ARM GAS  C:\DOCUME~1\z_80\LOCALS~1\Temp\cc2dyvzq.s 			page 1


   1              		.syntax unified
   2              		.cpu cortex-m3
   3              		.fpu softvfp
   4              		.eabi_attribute 20, 1
   5              		.eabi_attribute 21, 1
   6              		.eabi_attribute 23, 3
   7              		.eabi_attribute 24, 1
   8              		.eabi_attribute 25, 1
   9              		.eabi_attribute 26, 1
  10              		.eabi_attribute 30, 2
  11              		.eabi_attribute 18, 4
  12              		.thumb
  13              		.file	"adc_lld.c"
  14              		.section	.debug_abbrev,"",%progbits
  15              	.Ldebug_abbrev0:
  16              		.section	.debug_info,"",%progbits
  17              	.Ldebug_info0:
  18              		.section	.debug_line,"",%progbits
  19              	.Ldebug_line0:
  20 0000 C9030000 		.text
  20      02004802 
  20      00000201 
  20      FB0E0D00 
  20      01010101 
  21              	.Ltext0:
  22              		.cfi_sections	.debug_frame
  23              		.section	.text.adc_lld_serve_rx_interrupt,"ax",%progbits
  24              		.align	2
  25              		.p2align 4,,15
  26              		.thumb
  27              		.thumb_func
  28              		.type	adc_lld_serve_rx_interrupt, %function
  29              	adc_lld_serve_rx_interrupt:
  30              	.LFB55:
  31              		.file 1 "../chibios_2.4.x/os/hal/platforms/STM32F1xx/adc_lld.c"
  32              		.loc 1 64 0
  33              		.cfi_startproc
  34              		@ args = 0, pretend = 0, frame = 0
  35              		@ frame_needed = 0, uses_anonymous_args = 0
  36              	.LVL0:
  37              		.loc 1 67 0
  38 0000 11F0080F 		tst	r1, #8
  39              		.loc 1 64 0
  40 0004 F8B5     		push	{r3, r4, r5, r6, r7, lr}
  41              	.LCFI0:
  42              		.cfi_def_cfa_offset 24
  43              		.loc 1 64 0
  44 0006 0D46     		mov	r5, r1
  45              		.cfi_offset 14, -4
  46              		.cfi_offset 7, -8
  47              		.cfi_offset 6, -12
  48              		.cfi_offset 5, -16
  49              		.cfi_offset 4, -20
  50              		.cfi_offset 3, -24
  51 0008 0446     		mov	r4, r0
  52              		.loc 1 67 0
  53 000a 2AD0     		beq	.L2
ARM GAS  C:\DOCUME~1\z_80\LOCALS~1\Temp\cc2dyvzq.s 			page 2


  54              	.LVL1:
  55              	.LBB10:
  56              	.LBB12:
  57              		.loc 1 233 0
  58 000c C36A     		ldr	r3, [r0, #44]
  59              	.LBE12:
  60              	.LBE10:
  61              		.loc 1 70 0
  62 000e 0169     		ldr	r1, [r0, #16]
  63              	.LVL2:
  64              	.LBB14:
  65              	.LBB11:
  66              		.loc 1 233 0
  67 0010 1A68     		ldr	r2, [r3, #0]
  68 0012 5D68     		ldr	r5, [r3, #4]
  69              	.LVL3:
  70 0014 1668     		ldr	r6, [r2, #0]
  71 0016 26F00106 		bic	r6, r6, #1
  72 001a 1660     		str	r6, [r2, #0]
  73 001c 1B7A     		ldrb	r3, [r3, #8]	@ zero_extendqisi2
  74 001e 0F26     		movs	r6, #15
  75 0020 9E40     		lsls	r6, r6, r3
  76              		.loc 1 234 0
  77 0022 826A     		ldr	r2, [r0, #40]
  78              	.LBE11:
  79              	.LBE14:
  80              		.loc 1 70 0
  81 0024 CB68     		ldr	r3, [r1, #12]
  82              	.LBB15:
  83              	.LBB13:
  84              		.loc 1 234 0
  85 0026 0021     		movs	r1, #0
  86              		.loc 1 233 0
  87 0028 2E60     		str	r6, [r5, #0]
  88              		.loc 1 234 0
  89 002a 9160     		str	r1, [r2, #8]
  90              	.LBE13:
  91              	.LBE15:
  92              		.loc 1 70 0
  93 002c 2BB1     		cbz	r3, .L3
  94              		.loc 1 70 0 is_stmt 0 discriminator 1
  95 002e 0525     		movs	r5, #5
  96 0030 0570     		strb	r5, [r0, #0]
  97 0032 9847     		blx	r3
  98              	.LVL4:
  99 0034 2078     		ldrb	r0, [r4, #0]	@ zero_extendqisi2
 100 0036 0528     		cmp	r0, #5
 101 0038 6AD0     		beq	.L15
 102              	.L3:
 103              		.loc 1 70 0 discriminator 2
 104 003a 0025     		movs	r5, #0
 105 003c 2561     		str	r5, [r4, #16]
 106              	@ 70 "../chibios_2.4.x/os/hal/platforms/STM32F1xx/adc_lld.c" 1
 107 003e FFF7FEFF 		bl      _port_lock
 108              	@ 0 "" 2
 109              		.thumb
 110 0042 FFF7FEFF 		bl	dbg_check_lock_from_isr
ARM GAS  C:\DOCUME~1\z_80\LOCALS~1\Temp\cc2dyvzq.s 			page 3


 111 0046 6369     		ldr	r3, [r4, #20]
 112 0048 33B1     		cbz	r3, .L4
 113              	.LVL5:
 114              	.LBB16:
 115              		.loc 1 70 0 discriminator 4
 116 004a 4FF0FF32 		mov	r2, #-1
 117 004e 6561     		str	r5, [r4, #20]
 118 0050 1846     		mov	r0, r3
 119 0052 9A62     		str	r2, [r3, #40]
 120 0054 FFF7FEFF 		bl	chSchReadyI
 121              	.LVL6:
 122              	.L4:
 123              	.LBE16:
 124              		.loc 1 70 0 discriminator 5
 125 0058 FFF7FEFF 		bl	dbg_check_unlock_from_isr
 126              	@ 70 "../chibios_2.4.x/os/hal/platforms/STM32F1xx/adc_lld.c" 1
 127 005c FFF7FEFF 		bl      _port_unlock
 128              	@ 0 "" 2
 129              		.thumb
 130 0060 F8BD     		pop	{r3, r4, r5, r6, r7, pc}
 131              	.LVL7:
 132              	.L2:
 133              		.loc 1 73 0 is_stmt 1
 134 0062 11F0040F 		tst	r1, #4
 135 0066 06D0     		beq	.L6
 136              		.loc 1 75 0
 137 0068 0369     		ldr	r3, [r0, #16]
 138 006a 9B68     		ldr	r3, [r3, #8]
 139 006c 1BB1     		cbz	r3, .L6
 140              		.loc 1 75 0 is_stmt 0 discriminator 1
 141 006e C268     		ldr	r2, [r0, #12]
 142 0070 8168     		ldr	r1, [r0, #8]
 143              	.LVL8:
 144 0072 5208     		lsrs	r2, r2, #1
 145 0074 9847     		blx	r3
 146              	.L6:
 147              		.loc 1 77 0 is_stmt 1
 148 0076 15F0020F 		tst	r5, #2
 149 007a 37D0     		beq	.L1
 150              		.loc 1 79 0
 151 007c 2169     		ldr	r1, [r4, #16]
 152 007e 0A68     		ldr	r2, [r1, #0]
 153 0080 002A     		cmp	r2, #0
 154 0082 34D1     		bne	.L16
 155              	.LVL9:
 156              	.LBB17:
 157              	.LBB18:
 158              		.loc 1 233 0
 159 0084 E36A     		ldr	r3, [r4, #44]
 160              		.loc 1 234 0
 161 0086 A56A     		ldr	r5, [r4, #40]
 162              	.LVL10:
 163              		.loc 1 233 0
 164 0088 1868     		ldr	r0, [r3, #0]
 165 008a 5E68     		ldr	r6, [r3, #4]
 166 008c 0768     		ldr	r7, [r0, #0]
 167 008e 27F00107 		bic	r7, r7, #1
ARM GAS  C:\DOCUME~1\z_80\LOCALS~1\Temp\cc2dyvzq.s 			page 4


 168 0092 0760     		str	r7, [r0, #0]
 169 0094 187A     		ldrb	r0, [r3, #8]	@ zero_extendqisi2
 170 0096 0F27     		movs	r7, #15
 171 0098 17FA00F0 		lsls	r0, r7, r0
 172              	.LBE18:
 173              	.LBE17:
 174              		.loc 1 79 0
 175 009c 8B68     		ldr	r3, [r1, #8]
 176              	.LBB20:
 177              	.LBB19:
 178              		.loc 1 233 0
 179 009e 3060     		str	r0, [r6, #0]
 180              		.loc 1 234 0
 181 00a0 AA60     		str	r2, [r5, #8]
 182              	.LBE19:
 183              	.LBE20:
 184              		.loc 1 79 0
 185 00a2 002B     		cmp	r3, #0
 186 00a4 37D0     		beq	.L9
 187              		.loc 1 79 0 is_stmt 0 discriminator 6
 188 00a6 E268     		ldr	r2, [r4, #12]
 189 00a8 0425     		movs	r5, #4
 190 00aa 012A     		cmp	r2, #1
 191 00ac 2570     		strb	r5, [r4, #0]
 192 00ae 39D9     		bls	.L10
 193              	.LBB21:
 194              		.loc 1 79 0 discriminator 8
 195 00b0 B1F804C0 		ldrh	ip, [r1, #4]
 196 00b4 5208     		lsrs	r2, r2, #1
 197              	.LVL11:
 198 00b6 0CFB02FE 		mul	lr, ip, r2
 199 00ba A168     		ldr	r1, [r4, #8]
 200 00bc 2046     		mov	r0, r4
 201 00be 01EB4E01 		add	r1, r1, lr, lsl #1
 202 00c2 9847     		blx	r3
 203              	.LVL12:
 204              	.L11:
 205              	.LBE21:
 206              		.loc 1 79 0 discriminator 10
 207 00c4 2278     		ldrb	r2, [r4, #0]	@ zero_extendqisi2
 208 00c6 042A     		cmp	r2, #4
 209 00c8 25D0     		beq	.L9
 210              	.L12:
 211              		.loc 1 79 0 discriminator 12
 212 00ca 0025     		movs	r5, #0
 213 00cc 2561     		str	r5, [r4, #16]
 214              	@ 79 "../chibios_2.4.x/os/hal/platforms/STM32F1xx/adc_lld.c" 1
 215 00ce FFF7FEFF 		bl      _port_lock
 216              	@ 0 "" 2
 217              		.thumb
 218 00d2 FFF7FEFF 		bl	dbg_check_lock_from_isr
 219 00d6 6369     		ldr	r3, [r4, #20]
 220 00d8 23B1     		cbz	r3, .L13
 221              	.LVL13:
 222              	.LBB22:
 223              		.loc 1 79 0 discriminator 13
 224 00da 6561     		str	r5, [r4, #20]
ARM GAS  C:\DOCUME~1\z_80\LOCALS~1\Temp\cc2dyvzq.s 			page 5


 225 00dc 1846     		mov	r0, r3
 226 00de 9D62     		str	r5, [r3, #40]
 227 00e0 FFF7FEFF 		bl	chSchReadyI
 228              	.LVL14:
 229              	.L13:
 230              	.LBE22:
 231              		.loc 1 79 0 discriminator 14
 232 00e4 FFF7FEFF 		bl	dbg_check_unlock_from_isr
 233              	@ 79 "../chibios_2.4.x/os/hal/platforms/STM32F1xx/adc_lld.c" 1
 234 00e8 FFF7FEFF 		bl      _port_unlock
 235              	@ 0 "" 2
 236              	.LVL15:
 237              		.thumb
 238              	.L1:
 239 00ec F8BD     		pop	{r3, r4, r5, r6, r7, pc}
 240              	.LVL16:
 241              	.L16:
 242              		.loc 1 79 0 discriminator 1
 243 00ee 8B68     		ldr	r3, [r1, #8]
 244 00f0 002B     		cmp	r3, #0
 245 00f2 FBD0     		beq	.L1
 246              		.loc 1 79 0 discriminator 3
 247 00f4 E268     		ldr	r2, [r4, #12]
 248 00f6 012A     		cmp	r2, #1
 249 00f8 10D9     		bls	.L8
 250              	.LBB23:
 251              		.loc 1 79 0 discriminator 4
 252 00fa B1F804C0 		ldrh	ip, [r1, #4]
 253 00fe 5208     		lsrs	r2, r2, #1
 254              	.LVL17:
 255 0100 0CFB02F5 		mul	r5, ip, r2
 256              	.LVL18:
 257 0104 A168     		ldr	r1, [r4, #8]
 258 0106 2046     		mov	r0, r4
 259 0108 01EB4501 		add	r1, r1, r5, lsl #1
 260 010c 9847     		blx	r3
 261              	.LVL19:
 262 010e F8BD     		pop	{r3, r4, r5, r6, r7, pc}
 263              	.LVL20:
 264              	.L15:
 265              	.LBE23:
 266              		.loc 1 70 0 is_stmt 1 discriminator 3
 267 0110 0221     		movs	r1, #2
 268 0112 2170     		strb	r1, [r4, #0]
 269 0114 91E7     		b	.L3
 270              	.LVL21:
 271              	.L9:
 272              		.loc 1 79 0 discriminator 7
 273 0116 0223     		movs	r3, #2
 274 0118 2370     		strb	r3, [r4, #0]
 275 011a D6E7     		b	.L12
 276              	.LVL22:
 277              	.L8:
 278              		.loc 1 79 0 is_stmt 0 discriminator 5
 279 011c 2046     		mov	r0, r4
 280 011e A168     		ldr	r1, [r4, #8]
 281 0120 9847     		blx	r3
ARM GAS  C:\DOCUME~1\z_80\LOCALS~1\Temp\cc2dyvzq.s 			page 6


 282 0122 F8BD     		pop	{r3, r4, r5, r6, r7, pc}
 283              	.LVL23:
 284              	.L10:
 285              		.loc 1 79 0 discriminator 9
 286 0124 2046     		mov	r0, r4
 287 0126 A168     		ldr	r1, [r4, #8]
 288 0128 9847     		blx	r3
 289 012a CBE7     		b	.L11
 290              		.cfi_endproc
 291              	.LFE55:
 292              		.size	adc_lld_serve_rx_interrupt, .-adc_lld_serve_rx_interrupt
 293 012c AFF30080 		.section	.text.adc_lld_init,"ax",%progbits
 294              		.align	2
 295              		.p2align 4,,15
 296              		.global	adc_lld_init
 297              		.thumb
 298              		.thumb_func
 299              		.type	adc_lld_init, %function
 300              	adc_lld_init:
 301              	.LFB56:
 302              		.loc 1 97 0 is_stmt 1
 303              		.cfi_startproc
 304              		@ args = 0, pretend = 0, frame = 0
 305              		@ frame_needed = 0, uses_anonymous_args = 0
 306 0000 10B5     		push	{r4, lr}
 307              	.LCFI1:
 308              		.cfi_def_cfa_offset 8
 309              		.loc 1 101 0
 310 0002 144C     		ldr	r4, .L22
 311              		.cfi_offset 14, -4
 312              		.cfi_offset 4, -8
 313 0004 2046     		mov	r0, r4
 314 0006 FFF7FEFF 		bl	adcObjectInit
 315              		.loc 1 110 0
 316 000a 134B     		ldr	r3, .L22+4
 317              		.loc 1 102 0
 318 000c 1349     		ldr	r1, .L22+8
 319              		.loc 1 110 0
 320 000e 9869     		ldr	r0, [r3, #24]
 321 0010 40F40072 		orr	r2, r0, #512
 322 0014 9A61     		str	r2, [r3, #24]
 323              		.loc 1 103 0
 324 0016 124B     		ldr	r3, .L22+12
 325              		.loc 1 111 0
 326 0018 0020     		movs	r0, #0
 327              		.loc 1 102 0
 328 001a A162     		str	r1, [r4, #40]
 329              		.loc 1 112 0
 330 001c 0122     		movs	r2, #1
 331              		.loc 1 111 0
 332 001e 4860     		str	r0, [r1, #4]
 333              		.loc 1 103 0
 334 0020 E362     		str	r3, [r4, #44]
 335              		.loc 1 104 0
 336 0022 42F28A50 		movw	r0, #9610
 337              		.loc 1 115 0
 338 0026 0923     		movs	r3, #9
ARM GAS  C:\DOCUME~1\z_80\LOCALS~1\Temp\cc2dyvzq.s 			page 7


 339              		.loc 1 112 0
 340 0028 8A60     		str	r2, [r1, #8]
 341              		.loc 1 104 0
 342 002a 2063     		str	r0, [r4, #48]
 343              		.loc 1 115 0
 344 002c 8B60     		str	r3, [r1, #8]
 345              	.L18:
 346              		.loc 1 116 0 discriminator 1
 347 002e 8B68     		ldr	r3, [r1, #8]
 348 0030 0A4A     		ldr	r2, .L22+8
 349 0032 13F0080F 		tst	r3, #8
 350 0036 FAD1     		bne	.L18
 351              		.loc 1 120 0
 352 0038 0521     		movs	r1, #5
 353 003a 9160     		str	r1, [r2, #8]
 354              	.L19:
 355              		.loc 1 121 0 discriminator 1
 356 003c 9068     		ldr	r0, [r2, #8]
 357 003e 10F00403 		ands	r3, r0, #4
 358 0042 FBD1     		bne	.L19
 359              		.loc 1 125 0
 360 0044 0548     		ldr	r0, .L22+8
 361              		.loc 1 126 0
 362 0046 044A     		ldr	r2, .L22+4
 363              		.loc 1 125 0
 364 0048 8360     		str	r3, [r0, #8]
 365              		.loc 1 126 0
 366 004a 9169     		ldr	r1, [r2, #24]
 367 004c 21F40073 		bic	r3, r1, #512
 368 0050 9361     		str	r3, [r2, #24]
 369              		.loc 1 128 0
 370 0052 10BD     		pop	{r4, pc}
 371              	.L23:
 372              		.align	2
 373              	.L22:
 374 0054 00000000 		.word	.LANCHOR0
 375 0058 00100240 		.word	1073876992
 376 005c 00240140 		.word	1073816576
 377 0060 00000000 		.word	_stm32_dma_streams
 378              		.cfi_endproc
 379              	.LFE56:
 380              		.size	adc_lld_init, .-adc_lld_init
 381 0064 AFF30080 		.section	.text.adc_lld_start,"ax",%progbits
 381      AFF30080 
 381      AFF30080 
 382              		.align	2
 383              		.p2align 4,,15
 384              		.global	adc_lld_start
 385              		.thumb
 386              		.thumb_func
 387              		.type	adc_lld_start, %function
 388              	adc_lld_start:
 389              	.LFB57:
 390              		.loc 1 137 0
 391              		.cfi_startproc
 392              		@ args = 0, pretend = 0, frame = 0
 393              		@ frame_needed = 0, uses_anonymous_args = 0
ARM GAS  C:\DOCUME~1\z_80\LOCALS~1\Temp\cc2dyvzq.s 			page 8


 394              	.LVL24:
 395 0000 38B5     		push	{r3, r4, r5, lr}
 396              	.LCFI2:
 397              		.cfi_def_cfa_offset 16
 398              		.loc 1 140 0
 399 0002 0378     		ldrb	r3, [r0, #0]	@ zero_extendqisi2
 400              		.cfi_offset 14, -4
 401              		.cfi_offset 5, -8
 402              		.cfi_offset 4, -12
 403              		.cfi_offset 3, -16
 404              		.loc 1 137 0
 405 0004 0446     		mov	r4, r0
 406              		.loc 1 140 0
 407 0006 012B     		cmp	r3, #1
 408 0008 00D0     		beq	.L28
 409 000a 38BD     		pop	{r3, r4, r5, pc}
 410              	.L28:
 411              		.loc 1 142 0
 412 000c 0E4D     		ldr	r5, .L31
 413 000e A842     		cmp	r0, r5
 414 0010 04D0     		beq	.L29
 415              	.LVL25:
 416              	.L26:
 417              		.loc 1 156 0
 418 0012 A36A     		ldr	r3, [r4, #40]
 419 0014 0021     		movs	r1, #0
 420 0016 5960     		str	r1, [r3, #4]
 421              		.loc 1 157 0
 422 0018 9960     		str	r1, [r3, #8]
 423 001a 38BD     		pop	{r3, r4, r5, pc}
 424              	.L29:
 425              	.LBB24:
 426              		.loc 1 144 0
 427 001c C06A     		ldr	r0, [r0, #44]
 428 001e 0521     		movs	r1, #5
 429 0020 0A4A     		ldr	r2, .L31+4
 430 0022 2346     		mov	r3, r4
 431 0024 FFF7FEFF 		bl	dmaStreamAllocate
 432              	.LVL26:
 433              		.loc 1 148 0
 434 0028 48B9     		cbnz	r0, .L30
 435              	.LVL27:
 436              	.L27:
 437              		.loc 1 149 0
 438 002a E86A     		ldr	r0, [r5, #44]
 439 002c 084B     		ldr	r3, .L31+8
 440 002e 0268     		ldr	r2, [r0, #0]
 441              		.loc 1 150 0
 442 0030 0848     		ldr	r0, .L31+12
 443              		.loc 1 149 0
 444 0032 9360     		str	r3, [r2, #8]
 445              		.loc 1 150 0
 446 0034 8169     		ldr	r1, [r0, #24]
 447 0036 41F40072 		orr	r2, r1, #512
 448 003a 8261     		str	r2, [r0, #24]
 449 003c E9E7     		b	.L26
 450              	.LVL28:
ARM GAS  C:\DOCUME~1\z_80\LOCALS~1\Temp\cc2dyvzq.s 			page 9


 451              	.L30:
 452              		.loc 1 148 0 discriminator 1
 453 003e 0648     		ldr	r0, .L31+16
 454              	.LVL29:
 455 0040 FFF7FEFF 		bl	chDbgPanic
 456 0044 F1E7     		b	.L27
 457              	.L32:
 458 0046 00BF     		.align	2
 459              	.L31:
 460 0048 00000000 		.word	.LANCHOR0
 461 004c 00000000 		.word	adc_lld_serve_rx_interrupt
 462 0050 4C240140 		.word	1073816652
 463 0054 00100240 		.word	1073876992
 464 0058 00000000 		.word	.LC0
 465              	.LBE24:
 466              		.cfi_endproc
 467              	.LFE57:
 468              		.size	adc_lld_start, .-adc_lld_start
 469 005c AFF30080 		.section	.text.adc_lld_stop,"ax",%progbits
 470              		.align	2
 471              		.p2align 4,,15
 472              		.global	adc_lld_stop
 473              		.thumb
 474              		.thumb_func
 475              		.type	adc_lld_stop, %function
 476              	adc_lld_stop:
 477              	.LFB58:
 478              		.loc 1 168 0
 479              		.cfi_startproc
 480              		@ args = 0, pretend = 0, frame = 0
 481              		@ frame_needed = 0, uses_anonymous_args = 0
 482              	.LVL30:
 483 0000 08B5     		push	{r3, lr}
 484              	.LCFI3:
 485              		.cfi_def_cfa_offset 8
 486              		.loc 1 171 0
 487 0002 0378     		ldrb	r3, [r0, #0]	@ zero_extendqisi2
 488              		.cfi_offset 14, -4
 489              		.cfi_offset 3, -8
 490 0004 022B     		cmp	r3, #2
 491 0006 00D0     		beq	.L35
 492              	.LVL31:
 493              	.L33:
 494 0008 08BD     		pop	{r3, pc}
 495              	.LVL32:
 496              	.L35:
 497              		.loc 1 173 0
 498 000a 0849     		ldr	r1, .L36
 499 000c 8842     		cmp	r0, r1
 500 000e FBD1     		bne	.L33
 501              		.loc 1 174 0
 502 0010 074A     		ldr	r2, .L36+4
 503 0012 0021     		movs	r1, #0
 504              		.loc 1 176 0
 505 0014 C06A     		ldr	r0, [r0, #44]
 506              	.LVL33:
 507              		.loc 1 174 0
ARM GAS  C:\DOCUME~1\z_80\LOCALS~1\Temp\cc2dyvzq.s 			page 10


 508 0016 5160     		str	r1, [r2, #4]
 509              		.loc 1 175 0
 510 0018 9160     		str	r1, [r2, #8]
 511              		.loc 1 176 0
 512 001a FFF7FEFF 		bl	dmaStreamRelease
 513              		.loc 1 177 0
 514 001e 0548     		ldr	r0, .L36+8
 515 0020 8369     		ldr	r3, [r0, #24]
 516 0022 23F40072 		bic	r2, r3, #512
 517 0026 8261     		str	r2, [r0, #24]
 518 0028 EEE7     		b	.L33
 519              	.L37:
 520 002a 00BF     		.align	2
 521              	.L36:
 522 002c 00000000 		.word	.LANCHOR0
 523 0030 00240140 		.word	1073816576
 524 0034 00100240 		.word	1073876992
 525              		.cfi_endproc
 526              	.LFE58:
 527              		.size	adc_lld_stop, .-adc_lld_stop
 528 0038 AFF30080 		.section	.text.adc_lld_start_conversion,"ax",%progbits
 528      AFF30080 
 529              		.align	2
 530              		.p2align 4,,15
 531              		.global	adc_lld_start_conversion
 532              		.thumb
 533              		.thumb_func
 534              		.type	adc_lld_start_conversion, %function
 535              	adc_lld_start_conversion:
 536              	.LFB59:
 537              		.loc 1 190 0
 538              		.cfi_startproc
 539              		@ args = 0, pretend = 0, frame = 0
 540              		@ frame_needed = 0, uses_anonymous_args = 0
 541              		@ link register save eliminated.
 542              	.LVL34:
 543              		.loc 1 192 0
 544 0000 0369     		ldr	r3, [r0, #16]
 545              	.LVL35:
 546              		.loc 1 190 0
 547 0002 2DE9F003 		push	{r4, r5, r6, r7, r8, r9}
 548              	.LCFI4:
 549              		.cfi_def_cfa_offset 24
 550              		.loc 1 196 0
 551 0006 1968     		ldr	r1, [r3, #0]
 552              		.loc 1 195 0
 553 0008 026B     		ldr	r2, [r0, #48]
 554              	.LVL36:
 555              		.loc 1 196 0
 556 000a 09B1     		cbz	r1, .L39
 557              		.cfi_offset 9, -4
 558              		.cfi_offset 8, -8
 559              		.cfi_offset 7, -12
 560              		.cfi_offset 6, -16
 561              		.cfi_offset 5, -20
 562              		.cfi_offset 4, -24
 563              		.loc 1 197 0
ARM GAS  C:\DOCUME~1\z_80\LOCALS~1\Temp\cc2dyvzq.s 			page 11


 564 000c 42F02002 		orr	r2, r2, #32
 565              	.LVL37:
 566              	.L39:
 567              		.loc 1 198 0
 568 0010 C168     		ldr	r1, [r0, #12]
 569              		.loc 1 202 0
 570 0012 9E88     		ldrh	r6, [r3, #4]
 571              		.loc 1 198 0
 572 0014 0129     		cmp	r1, #1
 573              		.loc 1 206 0
 574 0016 C56A     		ldr	r5, [r0, #44]
 575              		.loc 1 202 0
 576 0018 88BF     		it	hi
 577 001a 4E43     		mulhi	r6, r1, r6
 578              		.loc 1 206 0
 579 001c 8468     		ldr	r4, [r0, #8]
 580 001e 2968     		ldr	r1, [r5, #0]
 581              		.loc 1 201 0
 582 0020 88BF     		it	hi
 583 0022 42F00402 		orrhi	r2, r2, #4
 584              	.LVL38:
 585              		.loc 1 213 0
 586 0026 D3F81480 		ldr	r8, [r3, #20]
 587              		.loc 1 206 0
 588 002a CC60     		str	r4, [r1, #12]
 589              		.loc 1 207 0
 590 002c 4E60     		str	r6, [r1, #4]
 591              		.loc 1 208 0
 592 002e 0A60     		str	r2, [r1, #0]
 593              		.loc 1 212 0
 594 0030 1F69     		ldr	r7, [r3, #16]
 595              		.loc 1 209 0
 596 0032 D1F800C0 		ldr	ip, [r1, #0]
 597              		.loc 1 212 0
 598 0036 826A     		ldr	r2, [r0, #40]
 599              	.LVL39:
 600              		.loc 1 214 0
 601 0038 D3F81890 		ldr	r9, [r3, #24]
 602              		.loc 1 215 0
 603 003c DE69     		ldr	r6, [r3, #28]
 604              	.LVL40:
 605              		.loc 1 216 0
 606 003e 1D6A     		ldr	r5, [r3, #32]
 607              		.loc 1 217 0
 608 0040 5C6A     		ldr	r4, [r3, #36]
 609              		.loc 1 218 0
 610 0042 986A     		ldr	r0, [r3, #40]
 611              	.LVL41:
 612              		.loc 1 213 0
 613 0044 48F48073 		orr	r3, r8, #256
 614              	.LVL42:
 615 0048 43F00303 		orr	r3, r3, #3
 616              		.loc 1 209 0
 617 004c 4CF0010C 		orr	ip, ip, #1
 618              		.loc 1 212 0
 619 0050 47F48077 		orr	r7, r7, #256
 620              		.loc 1 209 0
ARM GAS  C:\DOCUME~1\z_80\LOCALS~1\Temp\cc2dyvzq.s 			page 12


 621 0054 C1F800C0 		str	ip, [r1, #0]
 622              		.loc 1 212 0
 623 0058 5760     		str	r7, [r2, #4]
 624              		.loc 1 213 0
 625 005a 9360     		str	r3, [r2, #8]
 626              		.loc 1 214 0
 627 005c C2F80C90 		str	r9, [r2, #12]
 628              		.loc 1 215 0
 629 0060 1661     		str	r6, [r2, #16]
 630              		.loc 1 216 0
 631 0062 D562     		str	r5, [r2, #44]
 632              		.loc 1 217 0
 633 0064 1463     		str	r4, [r2, #48]
 634              		.loc 1 218 0
 635 0066 5063     		str	r0, [r2, #52]
 636              		.loc 1 221 0
 637 0068 9360     		str	r3, [r2, #8]
 638              		.loc 1 222 0
 639 006a BDE8F003 		pop	{r4, r5, r6, r7, r8, r9}
 640 006e 7047     		bx	lr
 641              		.cfi_endproc
 642              	.LFE59:
 643              		.size	adc_lld_start_conversion, .-adc_lld_start_conversion
 644              		.section	.text.adc_lld_stop_conversion,"ax",%progbits
 645              		.align	2
 646              		.p2align 4,,15
 647              		.global	adc_lld_stop_conversion
 648              		.thumb
 649              		.thumb_func
 650              		.type	adc_lld_stop_conversion, %function
 651              	adc_lld_stop_conversion:
 652              	.LFB60:
 653              		.loc 1 231 0
 654              		.cfi_startproc
 655              		@ args = 0, pretend = 0, frame = 0
 656              		@ frame_needed = 0, uses_anonymous_args = 0
 657              		@ link register save eliminated.
 658              	.LVL43:
 659              		.loc 1 233 0
 660 0000 C36A     		ldr	r3, [r0, #44]
 661              		.loc 1 231 0
 662 0002 30B4     		push	{r4, r5}
 663              	.LCFI5:
 664              		.cfi_def_cfa_offset 8
 665              		.loc 1 233 0
 666 0004 1A68     		ldr	r2, [r3, #0]
 667              		.loc 1 234 0
 668 0006 816A     		ldr	r1, [r0, #40]
 669              		.loc 1 233 0
 670 0008 1568     		ldr	r5, [r2, #0]
 671              		.cfi_offset 5, -4
 672              		.cfi_offset 4, -8
 673 000a 5C68     		ldr	r4, [r3, #4]
 674 000c 25F00100 		bic	r0, r5, #1
 675              	.LVL44:
 676 0010 1060     		str	r0, [r2, #0]
 677 0012 1B7A     		ldrb	r3, [r3, #8]	@ zero_extendqisi2
ARM GAS  C:\DOCUME~1\z_80\LOCALS~1\Temp\cc2dyvzq.s 			page 13


 678 0014 0F22     		movs	r2, #15
 679 0016 12FA03F0 		lsls	r0, r2, r3
 680              		.loc 1 234 0
 681 001a 0023     		movs	r3, #0
 682              		.loc 1 233 0
 683 001c 2060     		str	r0, [r4, #0]
 684              		.loc 1 234 0
 685 001e 8B60     		str	r3, [r1, #8]
 686              		.loc 1 235 0
 687 0020 30BC     		pop	{r4, r5}
 688 0022 7047     		bx	lr
 689              		.cfi_endproc
 690              	.LFE60:
 691              		.size	adc_lld_stop_conversion, .-adc_lld_stop_conversion
 692              		.global	ADCD1
 693 0024 AFF30080 		.section	.bss.ADCD1,"aw",%nobits
 693      AFF30080 
 693      AFF30080 
 694              		.align	2
 695              		.set	.LANCHOR0,. + 0
 696              		.type	ADCD1, %object
 697              		.size	ADCD1, 52
 698              	ADCD1:
 699 0000 00000000 		.space	52
 699      00000000 
 699      00000000 
 699      00000000 
 699      00000000 
 700              		.section	.rodata.str1.4,"aMS",%progbits,1
 701              		.align	2
 702              	.LC0:
 703 0000 6164635F 		.ascii	"adc_lld_start(), #1\000"
 703      6C6C645F 
 703      73746172 
 703      7428292C 
 703      20233100 
 704              		.text
 705              	.Letext0:
 706              		.section	.debug_loc,"",%progbits
 707              	.Ldebug_loc0:
 708              	.LLST0:
 709 0000 00000000 		.4byte	.LFB55
 710 0004 06000000 		.4byte	.LCFI0
 711 0008 0200     		.2byte	0x2
 712 000a 7D       		.byte	0x7d
 713 000b 00       		.sleb128 0
 714 000c 06000000 		.4byte	.LCFI0
 715 0010 2C010000 		.4byte	.LFE55
 716 0014 0200     		.2byte	0x2
 717 0016 7D       		.byte	0x7d
 718 0017 18       		.sleb128 24
 719 0018 00000000 		.4byte	0x0
 720 001c 00000000 		.4byte	0x0
 721              	.LLST1:
 722 0020 00000000 		.4byte	.LVL0
 723 0024 33000000 		.4byte	.LVL4-1
 724 0028 0100     		.2byte	0x1
ARM GAS  C:\DOCUME~1\z_80\LOCALS~1\Temp\cc2dyvzq.s 			page 14


 725 002a 50       		.byte	0x50
 726 002b 33000000 		.4byte	.LVL4-1
 727 002f 2C010000 		.4byte	.LFE55
 728 0033 0100     		.2byte	0x1
 729 0035 54       		.byte	0x54
 730 0036 00000000 		.4byte	0x0
 731 003a 00000000 		.4byte	0x0
 732              	.LLST2:
 733 003e 00000000 		.4byte	.LVL0
 734 0042 10000000 		.4byte	.LVL2
 735 0046 0100     		.2byte	0x1
 736 0048 51       		.byte	0x51
 737 0049 10000000 		.4byte	.LVL2
 738 004d 14000000 		.4byte	.LVL3
 739 0051 0100     		.2byte	0x1
 740 0053 55       		.byte	0x55
 741 0054 62000000 		.4byte	.LVL7
 742 0058 72000000 		.4byte	.LVL8
 743 005c 0100     		.2byte	0x1
 744 005e 51       		.byte	0x51
 745 005f 72000000 		.4byte	.LVL8
 746 0063 88000000 		.4byte	.LVL10
 747 0067 0100     		.2byte	0x1
 748 0069 55       		.byte	0x55
 749 006a EE000000 		.4byte	.LVL16
 750 006e 04010000 		.4byte	.LVL18
 751 0072 0100     		.2byte	0x1
 752 0074 55       		.byte	0x55
 753 0075 1C010000 		.4byte	.LVL22
 754 0079 24010000 		.4byte	.LVL23
 755 007d 0100     		.2byte	0x1
 756 007f 55       		.byte	0x55
 757 0080 00000000 		.4byte	0x0
 758 0084 00000000 		.4byte	0x0
 759              	.LLST3:
 760 0088 0C000000 		.4byte	.LVL1
 761 008c 33000000 		.4byte	.LVL4-1
 762 0090 0100     		.2byte	0x1
 763 0092 50       		.byte	0x50
 764 0093 33000000 		.4byte	.LVL4-1
 765 0097 62000000 		.4byte	.LVL7
 766 009b 0100     		.2byte	0x1
 767 009d 54       		.byte	0x54
 768 009e 10010000 		.4byte	.LVL20
 769 00a2 16010000 		.4byte	.LVL21
 770 00a6 0100     		.2byte	0x1
 771 00a8 54       		.byte	0x54
 772 00a9 00000000 		.4byte	0x0
 773 00ad 00000000 		.4byte	0x0
 774              	.LLST4:
 775 00b1 4A000000 		.4byte	.LVL5
 776 00b5 57000000 		.4byte	.LVL6-1
 777 00b9 0200     		.2byte	0x2
 778 00bb 74       		.byte	0x74
 779 00bc 14       		.sleb128 20
 780 00bd 00000000 		.4byte	0x0
 781 00c1 00000000 		.4byte	0x0
ARM GAS  C:\DOCUME~1\z_80\LOCALS~1\Temp\cc2dyvzq.s 			page 15


 782              	.LLST5:
 783 00c5 84000000 		.4byte	.LVL9
 784 00c9 EC000000 		.4byte	.LVL15
 785 00cd 0100     		.2byte	0x1
 786 00cf 54       		.byte	0x54
 787 00d0 16010000 		.4byte	.LVL21
 788 00d4 1C010000 		.4byte	.LVL22
 789 00d8 0100     		.2byte	0x1
 790 00da 54       		.byte	0x54
 791 00db 24010000 		.4byte	.LVL23
 792 00df 2C010000 		.4byte	.LFE55
 793 00e3 0100     		.2byte	0x1
 794 00e5 54       		.byte	0x54
 795 00e6 00000000 		.4byte	0x0
 796 00ea 00000000 		.4byte	0x0
 797              	.LLST6:
 798 00ee B6000000 		.4byte	.LVL11
 799 00f2 C3000000 		.4byte	.LVL12-1
 800 00f6 0100     		.2byte	0x1
 801 00f8 52       		.byte	0x52
 802 00f9 00000000 		.4byte	0x0
 803 00fd 00000000 		.4byte	0x0
 804              	.LLST7:
 805 0101 DA000000 		.4byte	.LVL13
 806 0105 E3000000 		.4byte	.LVL14-1
 807 0109 0200     		.2byte	0x2
 808 010b 74       		.byte	0x74
 809 010c 14       		.sleb128 20
 810 010d 00000000 		.4byte	0x0
 811 0111 00000000 		.4byte	0x0
 812              	.LLST8:
 813 0115 00010000 		.4byte	.LVL17
 814 0119 0D010000 		.4byte	.LVL19-1
 815 011d 0100     		.2byte	0x1
 816 011f 52       		.byte	0x52
 817 0120 00000000 		.4byte	0x0
 818 0124 00000000 		.4byte	0x0
 819              	.LLST9:
 820 0128 00000000 		.4byte	.LFB56
 821 012c 02000000 		.4byte	.LCFI1
 822 0130 0200     		.2byte	0x2
 823 0132 7D       		.byte	0x7d
 824 0133 00       		.sleb128 0
 825 0134 02000000 		.4byte	.LCFI1
 826 0138 64000000 		.4byte	.LFE56
 827 013c 0200     		.2byte	0x2
 828 013e 7D       		.byte	0x7d
 829 013f 08       		.sleb128 8
 830 0140 00000000 		.4byte	0x0
 831 0144 00000000 		.4byte	0x0
 832              	.LLST10:
 833 0148 00000000 		.4byte	.LFB57
 834 014c 02000000 		.4byte	.LCFI2
 835 0150 0200     		.2byte	0x2
 836 0152 7D       		.byte	0x7d
 837 0153 00       		.sleb128 0
 838 0154 02000000 		.4byte	.LCFI2
ARM GAS  C:\DOCUME~1\z_80\LOCALS~1\Temp\cc2dyvzq.s 			page 16


 839 0158 5C000000 		.4byte	.LFE57
 840 015c 0200     		.2byte	0x2
 841 015e 7D       		.byte	0x7d
 842 015f 10       		.sleb128 16
 843 0160 00000000 		.4byte	0x0
 844 0164 00000000 		.4byte	0x0
 845              	.LLST11:
 846 0168 00000000 		.4byte	.LVL24
 847 016c 12000000 		.4byte	.LVL25
 848 0170 0100     		.2byte	0x1
 849 0172 50       		.byte	0x50
 850 0173 12000000 		.4byte	.LVL25
 851 0177 5C000000 		.4byte	.LFE57
 852 017b 0100     		.2byte	0x1
 853 017d 54       		.byte	0x54
 854 017e 00000000 		.4byte	0x0
 855 0182 00000000 		.4byte	0x0
 856              	.LLST12:
 857 0186 28000000 		.4byte	.LVL26
 858 018a 2A000000 		.4byte	.LVL27
 859 018e 0100     		.2byte	0x1
 860 0190 50       		.byte	0x50
 861 0191 3E000000 		.4byte	.LVL28
 862 0195 40000000 		.4byte	.LVL29
 863 0199 0100     		.2byte	0x1
 864 019b 50       		.byte	0x50
 865 019c 00000000 		.4byte	0x0
 866 01a0 00000000 		.4byte	0x0
 867              	.LLST13:
 868 01a4 00000000 		.4byte	.LFB58
 869 01a8 02000000 		.4byte	.LCFI3
 870 01ac 0200     		.2byte	0x2
 871 01ae 7D       		.byte	0x7d
 872 01af 00       		.sleb128 0
 873 01b0 02000000 		.4byte	.LCFI3
 874 01b4 38000000 		.4byte	.LFE58
 875 01b8 0200     		.2byte	0x2
 876 01ba 7D       		.byte	0x7d
 877 01bb 08       		.sleb128 8
 878 01bc 00000000 		.4byte	0x0
 879 01c0 00000000 		.4byte	0x0
 880              	.LLST14:
 881 01c4 00000000 		.4byte	.LVL30
 882 01c8 08000000 		.4byte	.LVL31
 883 01cc 0100     		.2byte	0x1
 884 01ce 50       		.byte	0x50
 885 01cf 0A000000 		.4byte	.LVL32
 886 01d3 16000000 		.4byte	.LVL33
 887 01d7 0100     		.2byte	0x1
 888 01d9 50       		.byte	0x50
 889 01da 00000000 		.4byte	0x0
 890 01de 00000000 		.4byte	0x0
 891              	.LLST15:
 892 01e2 00000000 		.4byte	.LFB59
 893 01e6 06000000 		.4byte	.LCFI4
 894 01ea 0200     		.2byte	0x2
 895 01ec 7D       		.byte	0x7d
ARM GAS  C:\DOCUME~1\z_80\LOCALS~1\Temp\cc2dyvzq.s 			page 17


 896 01ed 00       		.sleb128 0
 897 01ee 06000000 		.4byte	.LCFI4
 898 01f2 70000000 		.4byte	.LFE59
 899 01f6 0200     		.2byte	0x2
 900 01f8 7D       		.byte	0x7d
 901 01f9 18       		.sleb128 24
 902 01fa 00000000 		.4byte	0x0
 903 01fe 00000000 		.4byte	0x0
 904              	.LLST16:
 905 0202 00000000 		.4byte	.LVL34
 906 0206 44000000 		.4byte	.LVL41
 907 020a 0100     		.2byte	0x1
 908 020c 50       		.byte	0x50
 909 020d 00000000 		.4byte	0x0
 910 0211 00000000 		.4byte	0x0
 911              	.LLST17:
 912 0215 0A000000 		.4byte	.LVL36
 913 0219 10000000 		.4byte	.LVL37
 914 021d 0200     		.2byte	0x2
 915 021f 70       		.byte	0x70
 916 0220 30       		.sleb128 48
 917 0221 10000000 		.4byte	.LVL37
 918 0225 26000000 		.4byte	.LVL38
 919 0229 0100     		.2byte	0x1
 920 022b 52       		.byte	0x52
 921 022c 26000000 		.4byte	.LVL38
 922 0230 38000000 		.4byte	.LVL39
 923 0234 0100     		.2byte	0x1
 924 0236 52       		.byte	0x52
 925 0237 38000000 		.4byte	.LVL39
 926 023b 44000000 		.4byte	.LVL41
 927 023f 0400     		.2byte	0x4
 928 0241 70       		.byte	0x70
 929 0242 2C       		.sleb128 44
 930 0243 06       		.byte	0x6
 931 0244 06       		.byte	0x6
 932 0245 44000000 		.4byte	.LVL41
 933 0249 70000000 		.4byte	.LFE59
 934 024d 0200     		.2byte	0x2
 935 024f 71       		.byte	0x71
 936 0250 00       		.sleb128 0
 937 0251 00000000 		.4byte	0x0
 938 0255 00000000 		.4byte	0x0
 939              	.LLST18:
 940 0259 26000000 		.4byte	.LVL38
 941 025d 3E000000 		.4byte	.LVL40
 942 0261 0100     		.2byte	0x1
 943 0263 56       		.byte	0x56
 944 0264 44000000 		.4byte	.LVL41
 945 0268 70000000 		.4byte	.LFE59
 946 026c 0200     		.2byte	0x2
 947 026e 71       		.byte	0x71
 948 026f 04       		.sleb128 4
 949 0270 00000000 		.4byte	0x0
 950 0274 00000000 		.4byte	0x0
 951              	.LLST19:
 952 0278 02000000 		.4byte	.LVL35
ARM GAS  C:\DOCUME~1\z_80\LOCALS~1\Temp\cc2dyvzq.s 			page 18


 953 027c 44000000 		.4byte	.LVL41
 954 0280 0200     		.2byte	0x2
 955 0282 70       		.byte	0x70
 956 0283 10       		.sleb128 16
 957 0284 44000000 		.4byte	.LVL41
 958 0288 48000000 		.4byte	.LVL42
 959 028c 0100     		.2byte	0x1
 960 028e 53       		.byte	0x53
 961 028f 00000000 		.4byte	0x0
 962 0293 00000000 		.4byte	0x0
 963              	.LLST20:
 964 0297 00000000 		.4byte	.LFB60
 965 029b 04000000 		.4byte	.LCFI5
 966 029f 0200     		.2byte	0x2
 967 02a1 7D       		.byte	0x7d
 968 02a2 00       		.sleb128 0
 969 02a3 04000000 		.4byte	.LCFI5
 970 02a7 24000000 		.4byte	.LFE60
 971 02ab 0200     		.2byte	0x2
 972 02ad 7D       		.byte	0x7d
 973 02ae 08       		.sleb128 8
 974 02af 00000000 		.4byte	0x0
 975 02b3 00000000 		.4byte	0x0
 976              	.LLST21:
 977 02b7 00000000 		.4byte	.LVL43
 978 02bb 10000000 		.4byte	.LVL44
 979 02bf 0100     		.2byte	0x1
 980 02c1 50       		.byte	0x50
 981 02c2 00000000 		.4byte	0x0
 982 02c6 00000000 		.4byte	0x0
 983              		.file 2 "c:\\programs\\codesourcery\\arm-2012.03-56\\bin\\../lib/gcc/arm-none-eabi/4.5.2/include/s
 984              		.file 3 "c:\\programs\\codesourcery\\arm-2012.03-56\\bin\\../lib/gcc/arm-none-eabi/4.5.2/../../../
 985              		.file 4 "../chibios_2.4.x/os/ports/GCC/ARMCMx/chtypes.h"
 986              		.file 5 "../chibios_2.4.x/os/kernel/include/chlists.h"
 987              		.file 6 "../chibios_2.4.x/os/kernel/include/chthreads.h"
 988              		.file 7 "../chibios_2.4.x/os/ports/GCC/ARMCMx/chcore_v7m.h"
 989              		.file 8 "../chibios_2.4.x/os/kernel/include/chmtx.h"
 990              		.file 9 "../chibios_2.4.x/os/hal/platforms/STM32F1xx/stm32f10x.h"
 991              		.file 10 "../chibios_2.4.x/os/hal/platforms/STM32F1xx/stm32_dma.h"
 992              		.file 11 "../chibios_2.4.x/os/hal/include/adc.h"
 993              		.file 12 "../chibios_2.4.x/os/hal/platforms/STM32F1xx/adc_lld.h"
 994              		.file 13 "../chibios_2.4.x/os/ports/common/ARMCMx/CMSIS/include/core_cm3.h"
 995              		.section	.debug_info
 996 0000 9D0B0000 		.4byte	0xb9d
 997 0004 0200     		.2byte	0x2
 998 0006 00000000 		.4byte	.Ldebug_abbrev0
 999 000a 04       		.byte	0x4
 1000 000b 01       		.uleb128 0x1
 1001 000c 6C020000 		.4byte	.LASF138
 1002 0010 01       		.byte	0x1
 1003 0011 EA020000 		.4byte	.LASF139
 1004 0015 35000000 		.4byte	.LASF140
 1005 0019 00000000 		.4byte	0x0
 1006 001d 00000000 		.4byte	0x0
 1007 0021 38000000 		.4byte	.Ldebug_ranges0+0x38
 1008 0025 00000000 		.4byte	.Ldebug_line0
 1009 0029 02       		.uleb128 0x2
ARM GAS  C:\DOCUME~1\z_80\LOCALS~1\Temp\cc2dyvzq.s 			page 19


 1010 002a 04       		.byte	0x4
 1011 002b 05       		.byte	0x5
 1012 002c 696E7400 		.ascii	"int\000"
 1013 0030 03       		.uleb128 0x3
 1014 0031 00000000 		.4byte	.LASF2
 1015 0035 02       		.byte	0x2
 1016 0036 D3       		.byte	0xd3
 1017 0037 3B000000 		.4byte	0x3b
 1018 003b 04       		.uleb128 0x4
 1019 003c 04       		.byte	0x4
 1020 003d 07       		.byte	0x7
 1021 003e E6010000 		.4byte	.LASF0
 1022 0042 04       		.uleb128 0x4
 1023 0043 01       		.byte	0x1
 1024 0044 06       		.byte	0x6
 1025 0045 AE000000 		.4byte	.LASF1
 1026 0049 03       		.uleb128 0x3
 1027 004a F3040000 		.4byte	.LASF3
 1028 004e 03       		.byte	0x3
 1029 004f 2A       		.byte	0x2a
 1030 0050 54000000 		.4byte	0x54
 1031 0054 04       		.uleb128 0x4
 1032 0055 01       		.byte	0x1
 1033 0056 08       		.byte	0x8
 1034 0057 B7030000 		.4byte	.LASF4
 1035 005b 04       		.uleb128 0x4
 1036 005c 02       		.byte	0x2
 1037 005d 05       		.byte	0x5
 1038 005e A5020000 		.4byte	.LASF5
 1039 0062 03       		.uleb128 0x3
 1040 0063 62010000 		.4byte	.LASF6
 1041 0067 03       		.byte	0x3
 1042 0068 36       		.byte	0x36
 1043 0069 6D000000 		.4byte	0x6d
 1044 006d 04       		.uleb128 0x4
 1045 006e 02       		.byte	0x2
 1046 006f 07       		.byte	0x7
 1047 0070 43020000 		.4byte	.LASF7
 1048 0074 03       		.uleb128 0x3
 1049 0075 AF030000 		.4byte	.LASF8
 1050 0079 03       		.byte	0x3
 1051 007a 4F       		.byte	0x4f
 1052 007b 7F000000 		.4byte	0x7f
 1053 007f 04       		.uleb128 0x4
 1054 0080 04       		.byte	0x4
 1055 0081 05       		.byte	0x5
 1056 0082 0A010000 		.4byte	.LASF9
 1057 0086 03       		.uleb128 0x3
 1058 0087 46040000 		.4byte	.LASF10
 1059 008b 03       		.byte	0x3
 1060 008c 50       		.byte	0x50
 1061 008d 91000000 		.4byte	0x91
 1062 0091 04       		.uleb128 0x4
 1063 0092 04       		.byte	0x4
 1064 0093 07       		.byte	0x7
 1065 0094 65040000 		.4byte	.LASF11
 1066 0098 04       		.uleb128 0x4
ARM GAS  C:\DOCUME~1\z_80\LOCALS~1\Temp\cc2dyvzq.s 			page 20


 1067 0099 08       		.byte	0x8
 1068 009a 05       		.byte	0x5
 1069 009b A0000000 		.4byte	.LASF12
 1070 009f 03       		.uleb128 0x3
 1071 00a0 36030000 		.4byte	.LASF13
 1072 00a4 03       		.byte	0x3
 1073 00a5 78       		.byte	0x78
 1074 00a6 AA000000 		.4byte	0xaa
 1075 00aa 04       		.uleb128 0x4
 1076 00ab 08       		.byte	0x8
 1077 00ac 07       		.byte	0x7
 1078 00ad CA000000 		.4byte	.LASF14
 1079 00b1 03       		.uleb128 0x3
 1080 00b2 8D000000 		.4byte	.LASF15
 1081 00b6 04       		.byte	0x4
 1082 00b7 2E       		.byte	0x2e
 1083 00b8 74000000 		.4byte	0x74
 1084 00bc 03       		.uleb128 0x3
 1085 00bd 78020000 		.4byte	.LASF16
 1086 00c1 04       		.byte	0x4
 1087 00c2 2F       		.byte	0x2f
 1088 00c3 49000000 		.4byte	0x49
 1089 00c7 03       		.uleb128 0x3
 1090 00c8 52010000 		.4byte	.LASF17
 1091 00cc 04       		.byte	0x4
 1092 00cd 30       		.byte	0x30
 1093 00ce 49000000 		.4byte	0x49
 1094 00d2 03       		.uleb128 0x3
 1095 00d3 7F030000 		.4byte	.LASF18
 1096 00d7 04       		.byte	0x4
 1097 00d8 31       		.byte	0x31
 1098 00d9 49000000 		.4byte	0x49
 1099 00dd 03       		.uleb128 0x3
 1100 00de A1030000 		.4byte	.LASF19
 1101 00e2 04       		.byte	0x4
 1102 00e3 32       		.byte	0x32
 1103 00e4 86000000 		.4byte	0x86
 1104 00e8 03       		.uleb128 0x3
 1105 00e9 66020000 		.4byte	.LASF20
 1106 00ed 04       		.byte	0x4
 1107 00ee 33       		.byte	0x33
 1108 00ef 74000000 		.4byte	0x74
 1109 00f3 03       		.uleb128 0x3
 1110 00f4 99020000 		.4byte	.LASF21
 1111 00f8 04       		.byte	0x4
 1112 00f9 35       		.byte	0x35
 1113 00fa 86000000 		.4byte	0x86
 1114 00fe 03       		.uleb128 0x3
 1115 00ff 9D040000 		.4byte	.LASF22
 1116 0103 04       		.byte	0x4
 1117 0104 36       		.byte	0x36
 1118 0105 86000000 		.4byte	0x86
 1119 0109 03       		.uleb128 0x3
 1120 010a C0010000 		.4byte	.LASF23
 1121 010e 05       		.byte	0x5
 1122 010f 2A       		.byte	0x2a
 1123 0110 14010000 		.4byte	0x114
ARM GAS  C:\DOCUME~1\z_80\LOCALS~1\Temp\cc2dyvzq.s 			page 21


 1124 0114 05       		.uleb128 0x5
 1125 0115 C0010000 		.4byte	.LASF23
 1126 0119 4C       		.byte	0x4c
 1127 011a 06       		.byte	0x6
 1128 011b 5E       		.byte	0x5e
 1129 011c 39020000 		.4byte	0x239
 1130 0120 06       		.uleb128 0x6
 1131 0121 26030000 		.4byte	.LASF24
 1132 0125 06       		.byte	0x6
 1133 0126 5F       		.byte	0x5f
 1134 0127 5E020000 		.4byte	0x25e
 1135 012b 02       		.byte	0x2
 1136 012c 23       		.byte	0x23
 1137 012d 00       		.uleb128 0x0
 1138 012e 06       		.uleb128 0x6
 1139 012f 87030000 		.4byte	.LASF25
 1140 0133 06       		.byte	0x6
 1141 0134 61       		.byte	0x61
 1142 0135 5E020000 		.4byte	0x25e
 1143 0139 02       		.byte	0x2
 1144 013a 23       		.byte	0x23
 1145 013b 04       		.uleb128 0x4
 1146 013c 06       		.uleb128 0x6
 1147 013d 94000000 		.4byte	.LASF26
 1148 0141 06       		.byte	0x6
 1149 0142 63       		.byte	0x63
 1150 0143 DD000000 		.4byte	0xdd
 1151 0147 02       		.byte	0x2
 1152 0148 23       		.byte	0x23
 1153 0149 08       		.uleb128 0x8
 1154 014a 06       		.uleb128 0x6
 1155 014b 79050000 		.4byte	.LASF27
 1156 014f 06       		.byte	0x6
 1157 0150 64       		.byte	0x64
 1158 0151 36030000 		.4byte	0x336
 1159 0155 02       		.byte	0x2
 1160 0156 23       		.byte	0x23
 1161 0157 0C       		.uleb128 0xc
 1162 0158 06       		.uleb128 0x6
 1163 0159 7E010000 		.4byte	.LASF28
 1164 015d 06       		.byte	0x6
 1165 015e 66       		.byte	0x66
 1166 015f 5E020000 		.4byte	0x25e
 1167 0163 02       		.byte	0x2
 1168 0164 23       		.byte	0x23
 1169 0165 10       		.uleb128 0x10
 1170 0166 06       		.uleb128 0x6
 1171 0167 3F030000 		.4byte	.LASF29
 1172 016b 06       		.byte	0x6
 1173 016c 67       		.byte	0x67
 1174 016d 5E020000 		.4byte	0x25e
 1175 0171 02       		.byte	0x2
 1176 0172 23       		.byte	0x23
 1177 0173 14       		.uleb128 0x14
 1178 0174 06       		.uleb128 0x6
 1179 0175 3C050000 		.4byte	.LASF30
 1180 0179 06       		.byte	0x6
ARM GAS  C:\DOCUME~1\z_80\LOCALS~1\Temp\cc2dyvzq.s 			page 22


 1181 017a 6E       		.byte	0x6e
 1182 017b E0030000 		.4byte	0x3e0
 1183 017f 02       		.byte	0x2
 1184 0180 23       		.byte	0x23
 1185 0181 18       		.uleb128 0x18
 1186 0182 06       		.uleb128 0x6
 1187 0183 DB010000 		.4byte	.LASF31
 1188 0187 06       		.byte	0x6
 1189 0188 74       		.byte	0x74
 1190 0189 F2030000 		.4byte	0x3f2
 1191 018d 02       		.byte	0x2
 1192 018e 23       		.byte	0x23
 1193 018f 1C       		.uleb128 0x1c
 1194 0190 06       		.uleb128 0x6
 1195 0191 BA000000 		.4byte	.LASF32
 1196 0195 06       		.byte	0x6
 1197 0196 79       		.byte	0x79
 1198 0197 C7000000 		.4byte	0xc7
 1199 019b 02       		.byte	0x2
 1200 019c 23       		.byte	0x23
 1201 019d 20       		.uleb128 0x20
 1202 019e 06       		.uleb128 0x6
 1203 019f 12040000 		.4byte	.LASF33
 1204 01a3 06       		.byte	0x6
 1205 01a4 7D       		.byte	0x7d
 1206 01a5 BC000000 		.4byte	0xbc
 1207 01a9 02       		.byte	0x2
 1208 01aa 23       		.byte	0x23
 1209 01ab 21       		.uleb128 0x21
 1210 01ac 06       		.uleb128 0x6
 1211 01ad E1040000 		.4byte	.LASF34
 1212 01b1 06       		.byte	0x6
 1213 01b2 82       		.byte	0x82
 1214 01b3 D2000000 		.4byte	0xd2
 1215 01b7 02       		.byte	0x2
 1216 01b8 23       		.byte	0x23
 1217 01b9 22       		.uleb128 0x22
 1218 01ba 06       		.uleb128 0x6
 1219 01bb 6B010000 		.4byte	.LASF35
 1220 01bf 06       		.byte	0x6
 1221 01c0 89       		.byte	0x89
 1222 01c1 5E030000 		.4byte	0x35e
 1223 01c5 02       		.byte	0x2
 1224 01c6 23       		.byte	0x23
 1225 01c7 24       		.uleb128 0x24
 1226 01c8 07       		.uleb128 0x7
 1227 01c9 705F7500 		.ascii	"p_u\000"
 1228 01cd 06       		.byte	0x6
 1229 01ce AE       		.byte	0xae
 1230 01cf AB030000 		.4byte	0x3ab
 1231 01d3 02       		.byte	0x2
 1232 01d4 23       		.byte	0x23
 1233 01d5 28       		.uleb128 0x28
 1234 01d6 06       		.uleb128 0x6
 1235 01d7 7F050000 		.4byte	.LASF36
 1236 01db 06       		.byte	0x6
 1237 01dc B3       		.byte	0xb3
ARM GAS  C:\DOCUME~1\z_80\LOCALS~1\Temp\cc2dyvzq.s 			page 23


 1238 01dd 86020000 		.4byte	0x286
 1239 01e1 02       		.byte	0x2
 1240 01e2 23       		.byte	0x23
 1241 01e3 2C       		.uleb128 0x2c
 1242 01e4 06       		.uleb128 0x6
 1243 01e5 07020000 		.4byte	.LASF37
 1244 01e9 06       		.byte	0x6
 1245 01ea B9       		.byte	0xb9
 1246 01eb 64020000 		.4byte	0x264
 1247 01ef 02       		.byte	0x2
 1248 01f0 23       		.byte	0x23
 1249 01f1 30       		.uleb128 0x30
 1250 01f2 06       		.uleb128 0x6
 1251 01f3 5B050000 		.4byte	.LASF38
 1252 01f7 06       		.byte	0x6
 1253 01f8 BD       		.byte	0xbd
 1254 01f9 E8000000 		.4byte	0xe8
 1255 01fd 02       		.byte	0x2
 1256 01fe 23       		.byte	0x23
 1257 01ff 38       		.uleb128 0x38
 1258 0200 06       		.uleb128 0x6
 1259 0201 36040000 		.4byte	.LASF39
 1260 0205 06       		.byte	0x6
 1261 0206 C3       		.byte	0xc3
 1262 0207 F3000000 		.4byte	0xf3
 1263 020b 02       		.byte	0x2
 1264 020c 23       		.byte	0x23
 1265 020d 3C       		.uleb128 0x3c
 1266 020e 06       		.uleb128 0x6
 1267 020f E0030000 		.4byte	.LASF40
 1268 0213 06       		.byte	0x6
 1269 0214 CA       		.byte	0xca
 1270 0215 F8030000 		.4byte	0x3f8
 1271 0219 02       		.byte	0x2
 1272 021a 23       		.byte	0x23
 1273 021b 40       		.uleb128 0x40
 1274 021c 06       		.uleb128 0x6
 1275 021d A7040000 		.4byte	.LASF41
 1276 0221 06       		.byte	0x6
 1277 0222 CE       		.byte	0xce
 1278 0223 DD000000 		.4byte	0xdd
 1279 0227 02       		.byte	0x2
 1280 0228 23       		.byte	0x23
 1281 0229 44       		.uleb128 0x44
 1282 022a 06       		.uleb128 0x6
 1283 022b C2000000 		.4byte	.LASF42
 1284 022f 06       		.byte	0x6
 1285 0230 D4       		.byte	0xd4
 1286 0231 9C020000 		.4byte	0x29c
 1287 0235 02       		.byte	0x2
 1288 0236 23       		.byte	0x23
 1289 0237 48       		.uleb128 0x48
 1290 0238 00       		.byte	0x0
 1291 0239 08       		.uleb128 0x8
 1292 023a 08       		.byte	0x8
 1293 023b 05       		.byte	0x5
 1294 023c 61       		.byte	0x61
ARM GAS  C:\DOCUME~1\z_80\LOCALS~1\Temp\cc2dyvzq.s 			page 24


 1295 023d 5E020000 		.4byte	0x25e
 1296 0241 06       		.uleb128 0x6
 1297 0242 26030000 		.4byte	.LASF24
 1298 0246 05       		.byte	0x5
 1299 0247 62       		.byte	0x62
 1300 0248 5E020000 		.4byte	0x25e
 1301 024c 02       		.byte	0x2
 1302 024d 23       		.byte	0x23
 1303 024e 00       		.uleb128 0x0
 1304 024f 06       		.uleb128 0x6
 1305 0250 87030000 		.4byte	.LASF25
 1306 0254 05       		.byte	0x5
 1307 0255 64       		.byte	0x64
 1308 0256 5E020000 		.4byte	0x25e
 1309 025a 02       		.byte	0x2
 1310 025b 23       		.byte	0x23
 1311 025c 04       		.uleb128 0x4
 1312 025d 00       		.byte	0x0
 1313 025e 09       		.uleb128 0x9
 1314 025f 04       		.byte	0x4
 1315 0260 09010000 		.4byte	0x109
 1316 0264 03       		.uleb128 0x3
 1317 0265 47030000 		.4byte	.LASF43
 1318 0269 05       		.byte	0x5
 1319 026a 66       		.byte	0x66
 1320 026b 39020000 		.4byte	0x239
 1321 026f 08       		.uleb128 0x8
 1322 0270 04       		.byte	0x4
 1323 0271 05       		.byte	0x5
 1324 0272 6B       		.byte	0x6b
 1325 0273 86020000 		.4byte	0x286
 1326 0277 06       		.uleb128 0x6
 1327 0278 26030000 		.4byte	.LASF24
 1328 027c 05       		.byte	0x5
 1329 027d 6D       		.byte	0x6d
 1330 027e 5E020000 		.4byte	0x25e
 1331 0282 02       		.byte	0x2
 1332 0283 23       		.byte	0x23
 1333 0284 00       		.uleb128 0x0
 1334 0285 00       		.byte	0x0
 1335 0286 03       		.uleb128 0x3
 1336 0287 8D020000 		.4byte	.LASF44
 1337 028b 05       		.byte	0x5
 1338 028c 70       		.byte	0x70
 1339 028d 6F020000 		.4byte	0x26f
 1340 0291 03       		.uleb128 0x3
 1341 0292 A7010000 		.4byte	.LASF45
 1342 0296 07       		.byte	0x7
 1343 0297 D7       		.byte	0xd7
 1344 0298 9C020000 		.4byte	0x29c
 1345 029c 0A       		.uleb128 0xa
 1346 029d 04       		.byte	0x4
 1347 029e 03       		.uleb128 0x3
 1348 029f B9020000 		.4byte	.LASF46
 1349 02a3 07       		.byte	0x7
 1350 02a4 DD       		.byte	0xdd
 1351 02a5 9F000000 		.4byte	0x9f
ARM GAS  C:\DOCUME~1\z_80\LOCALS~1\Temp\cc2dyvzq.s 			page 25


 1352 02a9 05       		.uleb128 0x5
 1353 02aa C2040000 		.4byte	.LASF47
 1354 02ae 24       		.byte	0x24
 1355 02af 07       		.byte	0x7
 1356 02b0 FE       		.byte	0xfe
 1357 02b1 36030000 		.4byte	0x336
 1358 02b5 0B       		.uleb128 0xb
 1359 02b6 723400   		.ascii	"r4\000"
 1360 02b9 07       		.byte	0x7
 1361 02ba 1101     		.2byte	0x111
 1362 02bc 91020000 		.4byte	0x291
 1363 02c0 02       		.byte	0x2
 1364 02c1 23       		.byte	0x23
 1365 02c2 00       		.uleb128 0x0
 1366 02c3 0B       		.uleb128 0xb
 1367 02c4 723500   		.ascii	"r5\000"
 1368 02c7 07       		.byte	0x7
 1369 02c8 1201     		.2byte	0x112
 1370 02ca 91020000 		.4byte	0x291
 1371 02ce 02       		.byte	0x2
 1372 02cf 23       		.byte	0x23
 1373 02d0 04       		.uleb128 0x4
 1374 02d1 0B       		.uleb128 0xb
 1375 02d2 723600   		.ascii	"r6\000"
 1376 02d5 07       		.byte	0x7
 1377 02d6 1301     		.2byte	0x113
 1378 02d8 91020000 		.4byte	0x291
 1379 02dc 02       		.byte	0x2
 1380 02dd 23       		.byte	0x23
 1381 02de 08       		.uleb128 0x8
 1382 02df 0B       		.uleb128 0xb
 1383 02e0 723700   		.ascii	"r7\000"
 1384 02e3 07       		.byte	0x7
 1385 02e4 1401     		.2byte	0x114
 1386 02e6 91020000 		.4byte	0x291
 1387 02ea 02       		.byte	0x2
 1388 02eb 23       		.byte	0x23
 1389 02ec 0C       		.uleb128 0xc
 1390 02ed 0B       		.uleb128 0xb
 1391 02ee 723800   		.ascii	"r8\000"
 1392 02f1 07       		.byte	0x7
 1393 02f2 1501     		.2byte	0x115
 1394 02f4 91020000 		.4byte	0x291
 1395 02f8 02       		.byte	0x2
 1396 02f9 23       		.byte	0x23
 1397 02fa 10       		.uleb128 0x10
 1398 02fb 0B       		.uleb128 0xb
 1399 02fc 723900   		.ascii	"r9\000"
 1400 02ff 07       		.byte	0x7
 1401 0300 1601     		.2byte	0x116
 1402 0302 91020000 		.4byte	0x291
 1403 0306 02       		.byte	0x2
 1404 0307 23       		.byte	0x23
 1405 0308 14       		.uleb128 0x14
 1406 0309 0B       		.uleb128 0xb
 1407 030a 72313000 		.ascii	"r10\000"
 1408 030e 07       		.byte	0x7
ARM GAS  C:\DOCUME~1\z_80\LOCALS~1\Temp\cc2dyvzq.s 			page 26


 1409 030f 1701     		.2byte	0x117
 1410 0311 91020000 		.4byte	0x291
 1411 0315 02       		.byte	0x2
 1412 0316 23       		.byte	0x23
 1413 0317 18       		.uleb128 0x18
 1414 0318 0B       		.uleb128 0xb
 1415 0319 72313100 		.ascii	"r11\000"
 1416 031d 07       		.byte	0x7
 1417 031e 1801     		.2byte	0x118
 1418 0320 91020000 		.4byte	0x291
 1419 0324 02       		.byte	0x2
 1420 0325 23       		.byte	0x23
 1421 0326 1C       		.uleb128 0x1c
 1422 0327 0B       		.uleb128 0xb
 1423 0328 6C7200   		.ascii	"lr\000"
 1424 032b 07       		.byte	0x7
 1425 032c 1901     		.2byte	0x119
 1426 032e 91020000 		.4byte	0x291
 1427 0332 02       		.byte	0x2
 1428 0333 23       		.byte	0x23
 1429 0334 20       		.uleb128 0x20
 1430 0335 00       		.byte	0x0
 1431 0336 0C       		.uleb128 0xc
 1432 0337 BA040000 		.4byte	.LASF48
 1433 033b 04       		.byte	0x4
 1434 033c 07       		.byte	0x7
 1435 033d 2301     		.2byte	0x123
 1436 033f 53030000 		.4byte	0x353
 1437 0343 0B       		.uleb128 0xb
 1438 0344 72313300 		.ascii	"r13\000"
 1439 0348 07       		.byte	0x7
 1440 0349 2401     		.2byte	0x124
 1441 034b 53030000 		.4byte	0x353
 1442 034f 02       		.byte	0x2
 1443 0350 23       		.byte	0x23
 1444 0351 00       		.uleb128 0x0
 1445 0352 00       		.byte	0x0
 1446 0353 09       		.uleb128 0x9
 1447 0354 04       		.byte	0x4
 1448 0355 A9020000 		.4byte	0x2a9
 1449 0359 0D       		.uleb128 0xd
 1450 035a 86000000 		.4byte	0x86
 1451 035e 0D       		.uleb128 0xd
 1452 035f FE000000 		.4byte	0xfe
 1453 0363 05       		.uleb128 0x5
 1454 0364 20030000 		.4byte	.LASF49
 1455 0368 10       		.byte	0x10
 1456 0369 08       		.byte	0x8
 1457 036a 2C       		.byte	0x2c
 1458 036b 9A030000 		.4byte	0x39a
 1459 036f 06       		.uleb128 0x6
 1460 0370 E1000000 		.4byte	.LASF50
 1461 0374 08       		.byte	0x8
 1462 0375 2D       		.byte	0x2d
 1463 0376 64020000 		.4byte	0x264
 1464 037a 02       		.byte	0x2
 1465 037b 23       		.byte	0x23
ARM GAS  C:\DOCUME~1\z_80\LOCALS~1\Temp\cc2dyvzq.s 			page 27


 1466 037c 00       		.uleb128 0x0
 1467 037d 06       		.uleb128 0x6
 1468 037e 66050000 		.4byte	.LASF51
 1469 0382 08       		.byte	0x8
 1470 0383 2F       		.byte	0x2f
 1471 0384 5E020000 		.4byte	0x25e
 1472 0388 02       		.byte	0x2
 1473 0389 23       		.byte	0x23
 1474 038a 08       		.uleb128 0x8
 1475 038b 06       		.uleb128 0x6
 1476 038c 60030000 		.4byte	.LASF52
 1477 0390 08       		.byte	0x8
 1478 0391 31       		.byte	0x31
 1479 0392 9A030000 		.4byte	0x39a
 1480 0396 02       		.byte	0x2
 1481 0397 23       		.byte	0x23
 1482 0398 0C       		.uleb128 0xc
 1483 0399 00       		.byte	0x0
 1484 039a 09       		.uleb128 0x9
 1485 039b 04       		.byte	0x4
 1486 039c 63030000 		.4byte	0x363
 1487 03a0 03       		.uleb128 0x3
 1488 03a1 20030000 		.4byte	.LASF49
 1489 03a5 08       		.byte	0x8
 1490 03a6 33       		.byte	0x33
 1491 03a7 63030000 		.4byte	0x363
 1492 03ab 0E       		.uleb128 0xe
 1493 03ac 04       		.byte	0x4
 1494 03ad 06       		.byte	0x6
 1495 03ae 90       		.byte	0x90
 1496 03af E0030000 		.4byte	0x3e0
 1497 03b3 0F       		.uleb128 0xf
 1498 03b4 07000000 		.4byte	.LASF53
 1499 03b8 06       		.byte	0x6
 1500 03b9 97       		.byte	0x97
 1501 03ba E8000000 		.4byte	0xe8
 1502 03be 0F       		.uleb128 0xf
 1503 03bf 59000000 		.4byte	.LASF54
 1504 03c3 06       		.byte	0x6
 1505 03c4 9E       		.byte	0x9e
 1506 03c5 E8000000 		.4byte	0xe8
 1507 03c9 0F       		.uleb128 0xf
 1508 03ca 28050000 		.4byte	.LASF55
 1509 03ce 06       		.byte	0x6
 1510 03cf A5       		.byte	0xa5
 1511 03d0 9C020000 		.4byte	0x29c
 1512 03d4 0F       		.uleb128 0xf
 1513 03d5 0B040000 		.4byte	.LASF56
 1514 03d9 06       		.byte	0x6
 1515 03da AC       		.byte	0xac
 1516 03db F3000000 		.4byte	0xf3
 1517 03df 00       		.byte	0x0
 1518 03e0 09       		.uleb128 0x9
 1519 03e1 04       		.byte	0x4
 1520 03e2 E6030000 		.4byte	0x3e6
 1521 03e6 10       		.uleb128 0x10
 1522 03e7 EB030000 		.4byte	0x3eb
ARM GAS  C:\DOCUME~1\z_80\LOCALS~1\Temp\cc2dyvzq.s 			page 28


 1523 03eb 04       		.uleb128 0x4
 1524 03ec 01       		.byte	0x1
 1525 03ed 08       		.byte	0x8
 1526 03ee 7D040000 		.4byte	.LASF57
 1527 03f2 09       		.uleb128 0x9
 1528 03f3 04       		.byte	0x4
 1529 03f4 9E020000 		.4byte	0x29e
 1530 03f8 09       		.uleb128 0x9
 1531 03f9 04       		.byte	0x4
 1532 03fa A0030000 		.4byte	0x3a0
 1533 03fe 0D       		.uleb128 0xd
 1534 03ff 74000000 		.4byte	0x74
 1535 0403 11       		.uleb128 0x11
 1536 0404 50       		.byte	0x50
 1537 0405 09       		.byte	0x9
 1538 0406 2D02     		.2byte	0x22d
 1539 0408 37050000 		.4byte	0x537
 1540 040c 0B       		.uleb128 0xb
 1541 040d 535200   		.ascii	"SR\000"
 1542 0410 09       		.byte	0x9
 1543 0411 2F02     		.2byte	0x22f
 1544 0413 59030000 		.4byte	0x359
 1545 0417 02       		.byte	0x2
 1546 0418 23       		.byte	0x23
 1547 0419 00       		.uleb128 0x0
 1548 041a 0B       		.uleb128 0xb
 1549 041b 43523100 		.ascii	"CR1\000"
 1550 041f 09       		.byte	0x9
 1551 0420 3002     		.2byte	0x230
 1552 0422 59030000 		.4byte	0x359
 1553 0426 02       		.byte	0x2
 1554 0427 23       		.byte	0x23
 1555 0428 04       		.uleb128 0x4
 1556 0429 0B       		.uleb128 0xb
 1557 042a 43523200 		.ascii	"CR2\000"
 1558 042e 09       		.byte	0x9
 1559 042f 3102     		.2byte	0x231
 1560 0431 59030000 		.4byte	0x359
 1561 0435 02       		.byte	0x2
 1562 0436 23       		.byte	0x23
 1563 0437 08       		.uleb128 0x8
 1564 0438 12       		.uleb128 0x12
 1565 0439 54030000 		.4byte	.LASF58
 1566 043d 09       		.byte	0x9
 1567 043e 3202     		.2byte	0x232
 1568 0440 59030000 		.4byte	0x359
 1569 0444 02       		.byte	0x2
 1570 0445 23       		.byte	0x23
 1571 0446 0C       		.uleb128 0xc
 1572 0447 12       		.uleb128 0x12
 1573 0448 5A030000 		.4byte	.LASF59
 1574 044c 09       		.byte	0x9
 1575 044d 3302     		.2byte	0x233
 1576 044f 59030000 		.4byte	0x359
 1577 0453 02       		.byte	0x2
 1578 0454 23       		.byte	0x23
 1579 0455 10       		.uleb128 0x10
ARM GAS  C:\DOCUME~1\z_80\LOCALS~1\Temp\cc2dyvzq.s 			page 29


 1580 0456 12       		.uleb128 0x12
 1581 0457 C9020000 		.4byte	.LASF60
 1582 045b 09       		.byte	0x9
 1583 045c 3402     		.2byte	0x234
 1584 045e 59030000 		.4byte	0x359
 1585 0462 02       		.byte	0x2
 1586 0463 23       		.byte	0x23
 1587 0464 14       		.uleb128 0x14
 1588 0465 12       		.uleb128 0x12
 1589 0466 CF020000 		.4byte	.LASF61
 1590 046a 09       		.byte	0x9
 1591 046b 3502     		.2byte	0x235
 1592 046d 59030000 		.4byte	0x359
 1593 0471 02       		.byte	0x2
 1594 0472 23       		.byte	0x23
 1595 0473 18       		.uleb128 0x18
 1596 0474 12       		.uleb128 0x12
 1597 0475 1A040000 		.4byte	.LASF62
 1598 0479 09       		.byte	0x9
 1599 047a 3602     		.2byte	0x236
 1600 047c 59030000 		.4byte	0x359
 1601 0480 02       		.byte	0x2
 1602 0481 23       		.byte	0x23
 1603 0482 1C       		.uleb128 0x1c
 1604 0483 12       		.uleb128 0x12
 1605 0484 20040000 		.4byte	.LASF63
 1606 0488 09       		.byte	0x9
 1607 0489 3702     		.2byte	0x237
 1608 048b 59030000 		.4byte	0x359
 1609 048f 02       		.byte	0x2
 1610 0490 23       		.byte	0x23
 1611 0491 20       		.uleb128 0x20
 1612 0492 0B       		.uleb128 0xb
 1613 0493 48545200 		.ascii	"HTR\000"
 1614 0497 09       		.byte	0x9
 1615 0498 3802     		.2byte	0x238
 1616 049a 59030000 		.4byte	0x359
 1617 049e 02       		.byte	0x2
 1618 049f 23       		.byte	0x23
 1619 04a0 24       		.uleb128 0x24
 1620 04a1 0B       		.uleb128 0xb
 1621 04a2 4C545200 		.ascii	"LTR\000"
 1622 04a6 09       		.byte	0x9
 1623 04a7 3902     		.2byte	0x239
 1624 04a9 59030000 		.4byte	0x359
 1625 04ad 02       		.byte	0x2
 1626 04ae 23       		.byte	0x23
 1627 04af 28       		.uleb128 0x28
 1628 04b0 12       		.uleb128 0x12
 1629 04b1 70030000 		.4byte	.LASF64
 1630 04b5 09       		.byte	0x9
 1631 04b6 3A02     		.2byte	0x23a
 1632 04b8 59030000 		.4byte	0x359
 1633 04bc 02       		.byte	0x2
 1634 04bd 23       		.byte	0x23
 1635 04be 2C       		.uleb128 0x2c
 1636 04bf 12       		.uleb128 0x12
ARM GAS  C:\DOCUME~1\z_80\LOCALS~1\Temp\cc2dyvzq.s 			page 30


 1637 04c0 75030000 		.4byte	.LASF65
 1638 04c4 09       		.byte	0x9
 1639 04c5 3B02     		.2byte	0x23b
 1640 04c7 59030000 		.4byte	0x359
 1641 04cb 02       		.byte	0x2
 1642 04cc 23       		.byte	0x23
 1643 04cd 30       		.uleb128 0x30
 1644 04ce 12       		.uleb128 0x12
 1645 04cf 7A030000 		.4byte	.LASF66
 1646 04d3 09       		.byte	0x9
 1647 04d4 3C02     		.2byte	0x23c
 1648 04d6 59030000 		.4byte	0x359
 1649 04da 02       		.byte	0x2
 1650 04db 23       		.byte	0x23
 1651 04dc 34       		.uleb128 0x34
 1652 04dd 12       		.uleb128 0x12
 1653 04de 9B000000 		.4byte	.LASF67
 1654 04e2 09       		.byte	0x9
 1655 04e3 3D02     		.2byte	0x23d
 1656 04e5 59030000 		.4byte	0x359
 1657 04e9 02       		.byte	0x2
 1658 04ea 23       		.byte	0x23
 1659 04eb 38       		.uleb128 0x38
 1660 04ec 12       		.uleb128 0x12
 1661 04ed 14050000 		.4byte	.LASF68
 1662 04f1 09       		.byte	0x9
 1663 04f2 3E02     		.2byte	0x23e
 1664 04f4 59030000 		.4byte	0x359
 1665 04f8 02       		.byte	0x2
 1666 04f9 23       		.byte	0x23
 1667 04fa 3C       		.uleb128 0x3c
 1668 04fb 12       		.uleb128 0x12
 1669 04fc 19050000 		.4byte	.LASF69
 1670 0500 09       		.byte	0x9
 1671 0501 3F02     		.2byte	0x23f
 1672 0503 59030000 		.4byte	0x359
 1673 0507 02       		.byte	0x2
 1674 0508 23       		.byte	0x23
 1675 0509 40       		.uleb128 0x40
 1676 050a 12       		.uleb128 0x12
 1677 050b 1E050000 		.4byte	.LASF70
 1678 050f 09       		.byte	0x9
 1679 0510 4002     		.2byte	0x240
 1680 0512 59030000 		.4byte	0x359
 1681 0516 02       		.byte	0x2
 1682 0517 23       		.byte	0x23
 1683 0518 44       		.uleb128 0x44
 1684 0519 12       		.uleb128 0x12
 1685 051a 23050000 		.4byte	.LASF71
 1686 051e 09       		.byte	0x9
 1687 051f 4102     		.2byte	0x241
 1688 0521 59030000 		.4byte	0x359
 1689 0525 02       		.byte	0x2
 1690 0526 23       		.byte	0x23
 1691 0527 48       		.uleb128 0x48
 1692 0528 0B       		.uleb128 0xb
 1693 0529 445200   		.ascii	"DR\000"
ARM GAS  C:\DOCUME~1\z_80\LOCALS~1\Temp\cc2dyvzq.s 			page 31


 1694 052c 09       		.byte	0x9
 1695 052d 4202     		.2byte	0x242
 1696 052f 59030000 		.4byte	0x359
 1697 0533 02       		.byte	0x2
 1698 0534 23       		.byte	0x23
 1699 0535 4C       		.uleb128 0x4c
 1700 0536 00       		.byte	0x0
 1701 0537 13       		.uleb128 0x13
 1702 0538 72010000 		.4byte	.LASF72
 1703 053c 09       		.byte	0x9
 1704 053d 4302     		.2byte	0x243
 1705 053f 03040000 		.4byte	0x403
 1706 0543 11       		.uleb128 0x11
 1707 0544 10       		.byte	0x10
 1708 0545 09       		.byte	0x9
 1709 0546 2D03     		.2byte	0x32d
 1710 0548 89050000 		.4byte	0x589
 1711 054c 0B       		.uleb128 0xb
 1712 054d 43435200 		.ascii	"CCR\000"
 1713 0551 09       		.byte	0x9
 1714 0552 2F03     		.2byte	0x32f
 1715 0554 59030000 		.4byte	0x359
 1716 0558 02       		.byte	0x2
 1717 0559 23       		.byte	0x23
 1718 055a 00       		.uleb128 0x0
 1719 055b 12       		.uleb128 0x12
 1720 055c E8040000 		.4byte	.LASF73
 1721 0560 09       		.byte	0x9
 1722 0561 3003     		.2byte	0x330
 1723 0563 59030000 		.4byte	0x359
 1724 0567 02       		.byte	0x2
 1725 0568 23       		.byte	0x23
 1726 0569 04       		.uleb128 0x4
 1727 056a 12       		.uleb128 0x12
 1728 056b F3010000 		.4byte	.LASF74
 1729 056f 09       		.byte	0x9
 1730 0570 3103     		.2byte	0x331
 1731 0572 59030000 		.4byte	0x359
 1732 0576 02       		.byte	0x2
 1733 0577 23       		.byte	0x23
 1734 0578 08       		.uleb128 0x8
 1735 0579 12       		.uleb128 0x12
 1736 057a B4020000 		.4byte	.LASF75
 1737 057e 09       		.byte	0x9
 1738 057f 3203     		.2byte	0x332
 1739 0581 59030000 		.4byte	0x359
 1740 0585 02       		.byte	0x2
 1741 0586 23       		.byte	0x23
 1742 0587 0C       		.uleb128 0xc
 1743 0588 00       		.byte	0x0
 1744 0589 13       		.uleb128 0x13
 1745 058a 28020000 		.4byte	.LASF76
 1746 058e 09       		.byte	0x9
 1747 058f 3303     		.2byte	0x333
 1748 0591 43050000 		.4byte	0x543
 1749 0595 11       		.uleb128 0x11
 1750 0596 28       		.byte	0x28
ARM GAS  C:\DOCUME~1\z_80\LOCALS~1\Temp\cc2dyvzq.s 			page 32


 1751 0597 09       		.byte	0x9
 1752 0598 4304     		.2byte	0x443
 1753 059a 34060000 		.4byte	0x634
 1754 059e 0B       		.uleb128 0xb
 1755 059f 435200   		.ascii	"CR\000"
 1756 05a2 09       		.byte	0x9
 1757 05a3 4504     		.2byte	0x445
 1758 05a5 59030000 		.4byte	0x359
 1759 05a9 02       		.byte	0x2
 1760 05aa 23       		.byte	0x23
 1761 05ab 00       		.uleb128 0x0
 1762 05ac 12       		.uleb128 0x12
 1763 05ad 56050000 		.4byte	.LASF77
 1764 05b1 09       		.byte	0x9
 1765 05b2 4604     		.2byte	0x446
 1766 05b4 59030000 		.4byte	0x359
 1767 05b8 02       		.byte	0x2
 1768 05b9 23       		.byte	0x23
 1769 05ba 04       		.uleb128 0x4
 1770 05bb 0B       		.uleb128 0xb
 1771 05bc 43495200 		.ascii	"CIR\000"
 1772 05c0 09       		.byte	0x9
 1773 05c1 4704     		.2byte	0x447
 1774 05c3 59030000 		.4byte	0x359
 1775 05c7 02       		.byte	0x2
 1776 05c8 23       		.byte	0x23
 1777 05c9 08       		.uleb128 0x8
 1778 05ca 12       		.uleb128 0x12
 1779 05cb C7010000 		.4byte	.LASF78
 1780 05cf 09       		.byte	0x9
 1781 05d0 4804     		.2byte	0x448
 1782 05d2 59030000 		.4byte	0x359
 1783 05d6 02       		.byte	0x2
 1784 05d7 23       		.byte	0x23
 1785 05d8 0C       		.uleb128 0xc
 1786 05d9 12       		.uleb128 0x12
 1787 05da 67030000 		.4byte	.LASF79
 1788 05de 09       		.byte	0x9
 1789 05df 4904     		.2byte	0x449
 1790 05e1 59030000 		.4byte	0x359
 1791 05e5 02       		.byte	0x2
 1792 05e6 23       		.byte	0x23
 1793 05e7 10       		.uleb128 0x10
 1794 05e8 12       		.uleb128 0x12
 1795 05e9 89050000 		.4byte	.LASF80
 1796 05ed 09       		.byte	0x9
 1797 05ee 4A04     		.2byte	0x44a
 1798 05f0 59030000 		.4byte	0x359
 1799 05f4 02       		.byte	0x2
 1800 05f5 23       		.byte	0x23
 1801 05f6 14       		.uleb128 0x14
 1802 05f7 12       		.uleb128 0x12
 1803 05f8 26040000 		.4byte	.LASF81
 1804 05fc 09       		.byte	0x9
 1805 05fd 4B04     		.2byte	0x44b
 1806 05ff 59030000 		.4byte	0x359
 1807 0603 02       		.byte	0x2
ARM GAS  C:\DOCUME~1\z_80\LOCALS~1\Temp\cc2dyvzq.s 			page 33


 1808 0604 23       		.byte	0x23
 1809 0605 18       		.uleb128 0x18
 1810 0606 12       		.uleb128 0x12
 1811 0607 B2040000 		.4byte	.LASF82
 1812 060b 09       		.byte	0x9
 1813 060c 4C04     		.2byte	0x44c
 1814 060e 59030000 		.4byte	0x359
 1815 0612 02       		.byte	0x2
 1816 0613 23       		.byte	0x23
 1817 0614 1C       		.uleb128 0x1c
 1818 0615 12       		.uleb128 0x12
 1819 0616 EE040000 		.4byte	.LASF83
 1820 061a 09       		.byte	0x9
 1821 061b 4D04     		.2byte	0x44d
 1822 061d 59030000 		.4byte	0x359
 1823 0621 02       		.byte	0x2
 1824 0622 23       		.byte	0x23
 1825 0623 20       		.uleb128 0x20
 1826 0624 0B       		.uleb128 0xb
 1827 0625 43535200 		.ascii	"CSR\000"
 1828 0629 09       		.byte	0x9
 1829 062a 4E04     		.2byte	0x44e
 1830 062c 59030000 		.4byte	0x359
 1831 0630 02       		.byte	0x2
 1832 0631 23       		.byte	0x23
 1833 0632 24       		.uleb128 0x24
 1834 0633 00       		.byte	0x0
 1835 0634 13       		.uleb128 0x13
 1836 0635 1C020000 		.4byte	.LASF84
 1837 0639 09       		.byte	0x9
 1838 063a 5904     		.2byte	0x459
 1839 063c 95050000 		.4byte	0x595
 1840 0640 08       		.uleb128 0x8
 1841 0641 0C       		.byte	0xc
 1842 0642 0A       		.byte	0xa
 1843 0643 C2       		.byte	0xc2
 1844 0644 8F060000 		.4byte	0x68f
 1845 0648 06       		.uleb128 0x6
 1846 0649 2E040000 		.4byte	.LASF85
 1847 064d 0A       		.byte	0xa
 1848 064e C3       		.byte	0xc3
 1849 064f 8F060000 		.4byte	0x68f
 1850 0653 02       		.byte	0x2
 1851 0654 23       		.byte	0x23
 1852 0655 00       		.uleb128 0x0
 1853 0656 06       		.uleb128 0x6
 1854 0657 41040000 		.4byte	.LASF86
 1855 065b 0A       		.byte	0xa
 1856 065c C4       		.byte	0xc4
 1857 065d 95060000 		.4byte	0x695
 1858 0661 02       		.byte	0x2
 1859 0662 23       		.byte	0x23
 1860 0663 04       		.uleb128 0x4
 1861 0664 06       		.uleb128 0x6
 1862 0665 3C020000 		.4byte	.LASF87
 1863 0669 0A       		.byte	0xa
 1864 066a C5       		.byte	0xc5
ARM GAS  C:\DOCUME~1\z_80\LOCALS~1\Temp\cc2dyvzq.s 			page 34


 1865 066b 49000000 		.4byte	0x49
 1866 066f 02       		.byte	0x2
 1867 0670 23       		.byte	0x23
 1868 0671 08       		.uleb128 0x8
 1869 0672 06       		.uleb128 0x6
 1870 0673 B0010000 		.4byte	.LASF88
 1871 0677 0A       		.byte	0xa
 1872 0678 C7       		.byte	0xc7
 1873 0679 49000000 		.4byte	0x49
 1874 067d 02       		.byte	0x2
 1875 067e 23       		.byte	0x23
 1876 067f 09       		.uleb128 0x9
 1877 0680 06       		.uleb128 0x6
 1878 0681 21000000 		.4byte	.LASF89
 1879 0685 0A       		.byte	0xa
 1880 0686 C8       		.byte	0xc8
 1881 0687 49000000 		.4byte	0x49
 1882 068b 02       		.byte	0x2
 1883 068c 23       		.byte	0x23
 1884 068d 0A       		.uleb128 0xa
 1885 068e 00       		.byte	0x0
 1886 068f 09       		.uleb128 0x9
 1887 0690 04       		.byte	0x4
 1888 0691 89050000 		.4byte	0x589
 1889 0695 09       		.uleb128 0x9
 1890 0696 04       		.byte	0x4
 1891 0697 59030000 		.4byte	0x359
 1892 069b 03       		.uleb128 0x3
 1893 069c 8E030000 		.4byte	.LASF90
 1894 06a0 0A       		.byte	0xa
 1895 06a1 C9       		.byte	0xc9
 1896 06a2 40060000 		.4byte	0x640
 1897 06a6 03       		.uleb128 0x3
 1898 06a7 F8010000 		.4byte	.LASF91
 1899 06ab 0A       		.byte	0xa
 1900 06ac D2       		.byte	0xd2
 1901 06ad B1060000 		.4byte	0x6b1
 1902 06b1 09       		.uleb128 0x9
 1903 06b2 04       		.byte	0x4
 1904 06b3 B7060000 		.4byte	0x6b7
 1905 06b7 14       		.uleb128 0x14
 1906 06b8 01       		.byte	0x1
 1907 06b9 C8060000 		.4byte	0x6c8
 1908 06bd 15       		.uleb128 0x15
 1909 06be 9C020000 		.4byte	0x29c
 1910 06c2 15       		.uleb128 0x15
 1911 06c3 86000000 		.4byte	0x86
 1912 06c7 00       		.byte	0x0
 1913 06c8 16       		.uleb128 0x16
 1914 06c9 01       		.byte	0x1
 1915 06ca 0B       		.byte	0xb
 1916 06cb 55       		.byte	0x55
 1917 06cc F5060000 		.4byte	0x6f5
 1918 06d0 17       		.uleb128 0x17
 1919 06d1 62000000 		.4byte	.LASF92
 1920 06d5 00       		.sleb128 0
 1921 06d6 17       		.uleb128 0x17
ARM GAS  C:\DOCUME~1\z_80\LOCALS~1\Temp\cc2dyvzq.s 			page 35


 1922 06d7 2D030000 		.4byte	.LASF93
 1923 06db 01       		.sleb128 1
 1924 06dc 17       		.uleb128 0x17
 1925 06dd 56020000 		.4byte	.LASF94
 1926 06e1 02       		.sleb128 2
 1927 06e2 17       		.uleb128 0x17
 1928 06e3 D0010000 		.4byte	.LASF95
 1929 06e7 03       		.sleb128 3
 1930 06e8 17       		.uleb128 0x17
 1931 06e9 2F050000 		.4byte	.LASF96
 1932 06ed 04       		.sleb128 4
 1933 06ee 17       		.uleb128 0x17
 1934 06ef D7040000 		.4byte	.LASF97
 1935 06f3 05       		.sleb128 5
 1936 06f4 00       		.byte	0x0
 1937 06f5 03       		.uleb128 0x3
 1938 06f6 16000000 		.4byte	.LASF98
 1939 06fa 0B       		.byte	0xb
 1940 06fb 5C       		.byte	0x5c
 1941 06fc C8060000 		.4byte	0x6c8
 1942 0700 03       		.uleb128 0x3
 1943 0701 9B010000 		.4byte	.LASF99
 1944 0705 0C       		.byte	0xc
 1945 0706 92       		.byte	0x92
 1946 0707 62000000 		.4byte	0x62
 1947 070b 03       		.uleb128 0x3
 1948 070c 43050000 		.4byte	.LASF100
 1949 0710 0C       		.byte	0xc
 1950 0711 97       		.byte	0x97
 1951 0712 62000000 		.4byte	0x62
 1952 0716 16       		.uleb128 0x16
 1953 0717 01       		.byte	0x1
 1954 0718 0C       		.byte	0xc
 1955 0719 9E       		.byte	0x9e
 1956 071a 25070000 		.4byte	0x725
 1957 071e 17       		.uleb128 0x17
 1958 071f 13010000 		.4byte	.LASF101
 1959 0723 00       		.sleb128 0
 1960 0724 00       		.byte	0x0
 1961 0725 03       		.uleb128 0x3
 1962 0726 E9000000 		.4byte	.LASF102
 1963 072a 0C       		.byte	0xc
 1964 072b A0       		.byte	0xa0
 1965 072c 16070000 		.4byte	0x716
 1966 0730 03       		.uleb128 0x3
 1967 0731 12020000 		.4byte	.LASF103
 1968 0735 0C       		.byte	0xc
 1969 0736 A5       		.byte	0xa5
 1970 0737 3B070000 		.4byte	0x73b
 1971 073b 0C       		.uleb128 0xc
 1972 073c 12020000 		.4byte	.LASF103
 1973 0740 34       		.byte	0x34
 1974 0741 0C       		.byte	0xc
 1975 0742 0901     		.2byte	0x109
 1976 0744 DF070000 		.4byte	0x7df
 1977 0748 12       		.uleb128 0x12
 1978 0749 FB000000 		.4byte	.LASF104
ARM GAS  C:\DOCUME~1\z_80\LOCALS~1\Temp\cc2dyvzq.s 			page 36


 1979 074d 0C       		.byte	0xc
 1980 074e 0D01     		.2byte	0x10d
 1981 0750 F5060000 		.4byte	0x6f5
 1982 0754 02       		.byte	0x2
 1983 0755 23       		.byte	0x23
 1984 0756 00       		.uleb128 0x0
 1985 0757 12       		.uleb128 0x12
 1986 0758 87040000 		.4byte	.LASF105
 1987 075c 0C       		.byte	0xc
 1988 075d 1101     		.2byte	0x111
 1989 075f 07090000 		.4byte	0x907
 1990 0763 02       		.byte	0x2
 1991 0764 23       		.byte	0x23
 1992 0765 04       		.uleb128 0x4
 1993 0766 12       		.uleb128 0x12
 1994 0767 E2020000 		.4byte	.LASF106
 1995 076b 0C       		.byte	0xc
 1996 076c 1501     		.2byte	0x115
 1997 076e 0C080000 		.4byte	0x80c
 1998 0772 02       		.byte	0x2
 1999 0773 23       		.byte	0x23
 2000 0774 08       		.uleb128 0x8
 2001 0775 12       		.uleb128 0x12
 2002 0776 60020000 		.4byte	.LASF107
 2003 077a 0C       		.byte	0xc
 2004 077b 1901     		.2byte	0x119
 2005 077d 30000000 		.4byte	0x30
 2006 0781 02       		.byte	0x2
 2007 0782 23       		.byte	0x23
 2008 0783 0C       		.uleb128 0xc
 2009 0784 12       		.uleb128 0x12
 2010 0785 C4020000 		.4byte	.LASF108
 2011 0789 0C       		.byte	0xc
 2012 078a 1D01     		.2byte	0x11d
 2013 078c 12090000 		.4byte	0x912
 2014 0790 02       		.byte	0x2
 2015 0791 23       		.byte	0x23
 2016 0792 10       		.uleb128 0x10
 2017 0793 12       		.uleb128 0x12
 2018 0794 5B010000 		.4byte	.LASF109
 2019 0798 0C       		.byte	0xc
 2020 0799 2201     		.2byte	0x122
 2021 079b 5E020000 		.4byte	0x25e
 2022 079f 02       		.byte	0x2
 2023 07a0 23       		.byte	0x23
 2024 07a1 14       		.uleb128 0x14
 2025 07a2 12       		.uleb128 0x12
 2026 07a3 A9030000 		.4byte	.LASF110
 2027 07a7 0C       		.byte	0xc
 2028 07a8 2901     		.2byte	0x129
 2029 07aa A0030000 		.4byte	0x3a0
 2030 07ae 02       		.byte	0x2
 2031 07af 23       		.byte	0x23
 2032 07b0 18       		.uleb128 0x18
 2033 07b1 0B       		.uleb128 0xb
 2034 07b2 61646300 		.ascii	"adc\000"
 2035 07b6 0C       		.byte	0xc
ARM GAS  C:\DOCUME~1\z_80\LOCALS~1\Temp\cc2dyvzq.s 			page 37


 2036 07b7 3501     		.2byte	0x135
 2037 07b9 1D090000 		.4byte	0x91d
 2038 07bd 02       		.byte	0x2
 2039 07be 23       		.byte	0x23
 2040 07bf 28       		.uleb128 0x28
 2041 07c0 12       		.uleb128 0x12
 2042 07c1 F4000000 		.4byte	.LASF111
 2043 07c5 0C       		.byte	0xc
 2044 07c6 3901     		.2byte	0x139
 2045 07c8 23090000 		.4byte	0x923
 2046 07cc 02       		.byte	0x2
 2047 07cd 23       		.byte	0x23
 2048 07ce 2C       		.uleb128 0x2c
 2049 07cf 12       		.uleb128 0x12
 2050 07d0 0E000000 		.4byte	.LASF112
 2051 07d4 0C       		.byte	0xc
 2052 07d5 3D01     		.2byte	0x13d
 2053 07d7 86000000 		.4byte	0x86
 2054 07db 02       		.byte	0x2
 2055 07dc 23       		.byte	0x23
 2056 07dd 30       		.uleb128 0x30
 2057 07de 00       		.byte	0x0
 2058 07df 03       		.uleb128 0x3
 2059 07e0 8D010000 		.4byte	.LASF113
 2060 07e4 0C       		.byte	0xc
 2061 07e5 AF       		.byte	0xaf
 2062 07e6 EA070000 		.4byte	0x7ea
 2063 07ea 09       		.uleb128 0x9
 2064 07eb 04       		.byte	0x4
 2065 07ec F0070000 		.4byte	0x7f0
 2066 07f0 14       		.uleb128 0x14
 2067 07f1 01       		.byte	0x1
 2068 07f2 06080000 		.4byte	0x806
 2069 07f6 15       		.uleb128 0x15
 2070 07f7 06080000 		.4byte	0x806
 2071 07fb 15       		.uleb128 0x15
 2072 07fc 0C080000 		.4byte	0x80c
 2073 0800 15       		.uleb128 0x15
 2074 0801 30000000 		.4byte	0x30
 2075 0805 00       		.byte	0x0
 2076 0806 09       		.uleb128 0x9
 2077 0807 04       		.byte	0x4
 2078 0808 30070000 		.4byte	0x730
 2079 080c 09       		.uleb128 0x9
 2080 080d 04       		.byte	0x4
 2081 080e 00070000 		.4byte	0x700
 2082 0812 03       		.uleb128 0x3
 2083 0813 3F010000 		.4byte	.LASF114
 2084 0817 0C       		.byte	0xc
 2085 0818 B8       		.byte	0xb8
 2086 0819 1D080000 		.4byte	0x81d
 2087 081d 09       		.uleb128 0x9
 2088 081e 04       		.byte	0x4
 2089 081f 23080000 		.4byte	0x823
 2090 0823 14       		.uleb128 0x14
 2091 0824 01       		.byte	0x1
 2092 0825 34080000 		.4byte	0x834
ARM GAS  C:\DOCUME~1\z_80\LOCALS~1\Temp\cc2dyvzq.s 			page 38


 2093 0829 15       		.uleb128 0x15
 2094 082a 06080000 		.4byte	0x806
 2095 082e 15       		.uleb128 0x15
 2096 082f 25070000 		.4byte	0x725
 2097 0833 00       		.byte	0x0
 2098 0834 08       		.uleb128 0x8
 2099 0835 2C       		.byte	0x2c
 2100 0836 0C       		.byte	0xc
 2101 0837 C2       		.byte	0xc2
 2102 0838 D7080000 		.4byte	0x8d7
 2103 083c 06       		.uleb128 0x6
 2104 083d 01010000 		.4byte	.LASF115
 2105 0841 0C       		.byte	0xc
 2106 0842 C6       		.byte	0xc6
 2107 0843 B1000000 		.4byte	0xb1
 2108 0847 02       		.byte	0x2
 2109 0848 23       		.byte	0x23
 2110 0849 00       		.uleb128 0x0
 2111 084a 06       		.uleb128 0x6
 2112 084b 80020000 		.4byte	.LASF116
 2113 084f 0C       		.byte	0xc
 2114 0850 CA       		.byte	0xca
 2115 0851 0B070000 		.4byte	0x70b
 2116 0855 02       		.byte	0x2
 2117 0856 23       		.byte	0x23
 2118 0857 04       		.uleb128 0x4
 2119 0858 06       		.uleb128 0x6
 2120 0859 86010000 		.4byte	.LASF117
 2121 085d 0C       		.byte	0xc
 2122 085e CE       		.byte	0xce
 2123 085f DF070000 		.4byte	0x7df
 2124 0863 02       		.byte	0x2
 2125 0864 23       		.byte	0x23
 2126 0865 08       		.uleb128 0x8
 2127 0866 06       		.uleb128 0x6
 2128 0867 02040000 		.4byte	.LASF118
 2129 086b 0C       		.byte	0xc
 2130 086c D2       		.byte	0xd2
 2131 086d 12080000 		.4byte	0x812
 2132 0871 02       		.byte	0x2
 2133 0872 23       		.byte	0x23
 2134 0873 0C       		.uleb128 0xc
 2135 0874 07       		.uleb128 0x7
 2136 0875 63723100 		.ascii	"cr1\000"
 2137 0879 0C       		.byte	0xc
 2138 087a D9       		.byte	0xd9
 2139 087b 86000000 		.4byte	0x86
 2140 087f 02       		.byte	0x2
 2141 0880 23       		.byte	0x23
 2142 0881 10       		.uleb128 0x10
 2143 0882 07       		.uleb128 0x7
 2144 0883 63723200 		.ascii	"cr2\000"
 2145 0887 0C       		.byte	0xc
 2146 0888 E0       		.byte	0xe0
 2147 0889 86000000 		.4byte	0x86
 2148 088d 02       		.byte	0x2
 2149 088e 23       		.byte	0x23
ARM GAS  C:\DOCUME~1\z_80\LOCALS~1\Temp\cc2dyvzq.s 			page 39


 2150 088f 14       		.uleb128 0x14
 2151 0890 06       		.uleb128 0x6
 2152 0891 5F040000 		.4byte	.LASF119
 2153 0895 0C       		.byte	0xc
 2154 0896 E6       		.byte	0xe6
 2155 0897 86000000 		.4byte	0x86
 2156 089b 02       		.byte	0x2
 2157 089c 23       		.byte	0x23
 2158 089d 18       		.uleb128 0x18
 2159 089e 06       		.uleb128 0x6
 2160 089f 77040000 		.4byte	.LASF120
 2161 08a3 0C       		.byte	0xc
 2162 08a4 EC       		.byte	0xec
 2163 08a5 86000000 		.4byte	0x86
 2164 08a9 02       		.byte	0x2
 2165 08aa 23       		.byte	0x23
 2166 08ab 1C       		.uleb128 0x1c
 2167 08ac 06       		.uleb128 0x6
 2168 08ad 8E040000 		.4byte	.LASF121
 2169 08b1 0C       		.byte	0xc
 2170 08b2 F1       		.byte	0xf1
 2171 08b3 86000000 		.4byte	0x86
 2172 08b7 02       		.byte	0x2
 2173 08b8 23       		.byte	0x23
 2174 08b9 20       		.uleb128 0x20
 2175 08ba 06       		.uleb128 0x6
 2176 08bb 93040000 		.4byte	.LASF122
 2177 08bf 0C       		.byte	0xc
 2178 08c0 F6       		.byte	0xf6
 2179 08c1 86000000 		.4byte	0x86
 2180 08c5 02       		.byte	0x2
 2181 08c6 23       		.byte	0x23
 2182 08c7 24       		.uleb128 0x24
 2183 08c8 06       		.uleb128 0x6
 2184 08c9 98040000 		.4byte	.LASF123
 2185 08cd 0C       		.byte	0xc
 2186 08ce FB       		.byte	0xfb
 2187 08cf 86000000 		.4byte	0x86
 2188 08d3 02       		.byte	0x2
 2189 08d4 23       		.byte	0x23
 2190 08d5 28       		.uleb128 0x28
 2191 08d6 00       		.byte	0x0
 2192 08d7 03       		.uleb128 0x3
 2193 08d8 FB040000 		.4byte	.LASF124
 2194 08dc 0C       		.byte	0xc
 2195 08dd FC       		.byte	0xfc
 2196 08de 34080000 		.4byte	0x834
 2197 08e2 11       		.uleb128 0x11
 2198 08e3 04       		.byte	0x4
 2199 08e4 0C       		.byte	0xc
 2200 08e5 0201     		.2byte	0x102
 2201 08e7 FB080000 		.4byte	0x8fb
 2202 08eb 12       		.uleb128 0x12
 2203 08ec BA010000 		.4byte	.LASF125
 2204 08f0 0C       		.byte	0xc
 2205 08f1 0301     		.2byte	0x103
 2206 08f3 86000000 		.4byte	0x86
ARM GAS  C:\DOCUME~1\z_80\LOCALS~1\Temp\cc2dyvzq.s 			page 40


 2207 08f7 02       		.byte	0x2
 2208 08f8 23       		.byte	0x23
 2209 08f9 00       		.uleb128 0x0
 2210 08fa 00       		.byte	0x0
 2211 08fb 13       		.uleb128 0x13
 2212 08fc 55040000 		.4byte	.LASF126
 2213 0900 0C       		.byte	0xc
 2214 0901 0401     		.2byte	0x104
 2215 0903 E2080000 		.4byte	0x8e2
 2216 0907 09       		.uleb128 0x9
 2217 0908 04       		.byte	0x4
 2218 0909 0D090000 		.4byte	0x90d
 2219 090d 10       		.uleb128 0x10
 2220 090e FB080000 		.4byte	0x8fb
 2221 0912 09       		.uleb128 0x9
 2222 0913 04       		.byte	0x4
 2223 0914 18090000 		.4byte	0x918
 2224 0918 10       		.uleb128 0x10
 2225 0919 D7080000 		.4byte	0x8d7
 2226 091d 09       		.uleb128 0x9
 2227 091e 04       		.byte	0x4
 2228 091f 37050000 		.4byte	0x537
 2229 0923 09       		.uleb128 0x9
 2230 0924 04       		.byte	0x4
 2231 0925 29090000 		.4byte	0x929
 2232 0929 10       		.uleb128 0x10
 2233 092a 9B060000 		.4byte	0x69b
 2234 092e 18       		.uleb128 0x18
 2235 092f 01       		.byte	0x1
 2236 0930 EA030000 		.4byte	.LASF141
 2237 0934 01       		.byte	0x1
 2238 0935 E7       		.byte	0xe7
 2239 0936 01       		.byte	0x1
 2240 0937 01       		.byte	0x1
 2241 0938 48090000 		.4byte	0x948
 2242 093c 19       		.uleb128 0x19
 2243 093d 61050000 		.4byte	.LASF127
 2244 0941 01       		.byte	0x1
 2245 0942 E7       		.byte	0xe7
 2246 0943 06080000 		.4byte	0x806
 2247 0947 00       		.byte	0x0
 2248 0948 1A       		.uleb128 0x1a
 2249 0949 C5030000 		.4byte	.LASF142
 2250 094d 01       		.byte	0x1
 2251 094e 40       		.byte	0x40
 2252 094f 01       		.byte	0x1
 2253 0950 00000000 		.4byte	.LFB55
 2254 0954 2C010000 		.4byte	.LFE55
 2255 0958 00000000 		.4byte	.LLST0
 2256 095c 3D0A0000 		.4byte	0xa3d
 2257 0960 1B       		.uleb128 0x1b
 2258 0961 61050000 		.4byte	.LASF127
 2259 0965 01       		.byte	0x1
 2260 0966 40       		.byte	0x40
 2261 0967 06080000 		.4byte	0x806
 2262 096b 20000000 		.4byte	.LLST1
 2263 096f 1B       		.uleb128 0x1b
ARM GAS  C:\DOCUME~1\z_80\LOCALS~1\Temp\cc2dyvzq.s 			page 41


 2264 0970 0E050000 		.4byte	.LASF128
 2265 0974 01       		.byte	0x1
 2266 0975 40       		.byte	0x40
 2267 0976 86000000 		.4byte	0x86
 2268 097a 3E000000 		.4byte	.LLST2
 2269 097e 1C       		.uleb128 0x1c
 2270 097f 2E090000 		.4byte	0x92e
 2271 0983 0C000000 		.4byte	.LBB10
 2272 0987 00000000 		.4byte	.Ldebug_ranges0+0x0
 2273 098b 01       		.byte	0x1
 2274 098c 46       		.byte	0x46
 2275 098d 9B090000 		.4byte	0x99b
 2276 0991 1D       		.uleb128 0x1d
 2277 0992 3C090000 		.4byte	0x93c
 2278 0996 88000000 		.4byte	.LLST3
 2279 099a 00       		.byte	0x0
 2280 099b 1E       		.uleb128 0x1e
 2281 099c 4A000000 		.4byte	.LBB16
 2282 09a0 58000000 		.4byte	.LBE16
 2283 09a4 B7090000 		.4byte	0x9b7
 2284 09a8 1F       		.uleb128 0x1f
 2285 09a9 747000   		.ascii	"tp\000"
 2286 09ac 01       		.byte	0x1
 2287 09ad 46       		.byte	0x46
 2288 09ae 5E020000 		.4byte	0x25e
 2289 09b2 B1000000 		.4byte	.LLST4
 2290 09b6 00       		.byte	0x0
 2291 09b7 1C       		.uleb128 0x1c
 2292 09b8 2E090000 		.4byte	0x92e
 2293 09bc 84000000 		.4byte	.LBB17
 2294 09c0 20000000 		.4byte	.Ldebug_ranges0+0x20
 2295 09c4 01       		.byte	0x1
 2296 09c5 4F       		.byte	0x4f
 2297 09c6 D4090000 		.4byte	0x9d4
 2298 09ca 1D       		.uleb128 0x1d
 2299 09cb 3C090000 		.4byte	0x93c
 2300 09cf C5000000 		.4byte	.LLST5
 2301 09d3 00       		.byte	0x0
 2302 09d4 1E       		.uleb128 0x1e
 2303 09d5 B0000000 		.4byte	.LBB21
 2304 09d9 C4000000 		.4byte	.LBE21
 2305 09dd FC090000 		.4byte	0x9fc
 2306 09e1 20       		.uleb128 0x20
 2307 09e2 AF020000 		.4byte	.LASF129
 2308 09e6 01       		.byte	0x1
 2309 09e7 4F       		.byte	0x4f
 2310 09e8 30000000 		.4byte	0x30
 2311 09ec EE000000 		.4byte	.LLST6
 2312 09f0 21       		.uleb128 0x21
 2313 09f1 6E050000 		.4byte	.LASF130
 2314 09f5 01       		.byte	0x1
 2315 09f6 4F       		.byte	0x4f
 2316 09f7 30000000 		.4byte	0x30
 2317 09fb 00       		.byte	0x0
 2318 09fc 1E       		.uleb128 0x1e
 2319 09fd DA000000 		.4byte	.LBB22
 2320 0a01 E4000000 		.4byte	.LBE22
ARM GAS  C:\DOCUME~1\z_80\LOCALS~1\Temp\cc2dyvzq.s 			page 42


 2321 0a05 180A0000 		.4byte	0xa18
 2322 0a09 1F       		.uleb128 0x1f
 2323 0a0a 747000   		.ascii	"tp\000"
 2324 0a0d 01       		.byte	0x1
 2325 0a0e 4F       		.byte	0x4f
 2326 0a0f 5E020000 		.4byte	0x25e
 2327 0a13 01010000 		.4byte	.LLST7
 2328 0a17 00       		.byte	0x0
 2329 0a18 22       		.uleb128 0x22
 2330 0a19 FA000000 		.4byte	.LBB23
 2331 0a1d 10010000 		.4byte	.LBE23
 2332 0a21 20       		.uleb128 0x20
 2333 0a22 AF020000 		.4byte	.LASF129
 2334 0a26 01       		.byte	0x1
 2335 0a27 4F       		.byte	0x4f
 2336 0a28 30000000 		.4byte	0x30
 2337 0a2c 15010000 		.4byte	.LLST8
 2338 0a30 21       		.uleb128 0x21
 2339 0a31 6E050000 		.4byte	.LASF130
 2340 0a35 01       		.byte	0x1
 2341 0a36 4F       		.byte	0x4f
 2342 0a37 30000000 		.4byte	0x30
 2343 0a3b 00       		.byte	0x0
 2344 0a3c 00       		.byte	0x0
 2345 0a3d 23       		.uleb128 0x23
 2346 0a3e 01       		.byte	0x1
 2347 0a3f D5020000 		.4byte	.LASF143
 2348 0a43 01       		.byte	0x1
 2349 0a44 61       		.byte	0x61
 2350 0a45 01       		.byte	0x1
 2351 0a46 00000000 		.4byte	.LFB56
 2352 0a4a 64000000 		.4byte	.LFE56
 2353 0a4e 28010000 		.4byte	.LLST9
 2354 0a52 24       		.uleb128 0x24
 2355 0a53 01       		.byte	0x1
 2356 0a54 C9040000 		.4byte	.LASF131
 2357 0a58 01       		.byte	0x1
 2358 0a59 89       		.byte	0x89
 2359 0a5a 01       		.byte	0x1
 2360 0a5b 00000000 		.4byte	.LFB57
 2361 0a5f 5C000000 		.4byte	.LFE57
 2362 0a63 48010000 		.4byte	.LLST10
 2363 0a67 920A0000 		.4byte	0xa92
 2364 0a6b 1B       		.uleb128 0x1b
 2365 0a6c 61050000 		.4byte	.LASF127
 2366 0a70 01       		.byte	0x1
 2367 0a71 89       		.byte	0x89
 2368 0a72 06080000 		.4byte	0x806
 2369 0a76 68010000 		.4byte	.LLST11
 2370 0a7a 22       		.uleb128 0x22
 2371 0a7b 1C000000 		.4byte	.LBB24
 2372 0a7f 5C000000 		.4byte	.LBE24
 2373 0a83 1F       		.uleb128 0x1f
 2374 0a84 6200     		.ascii	"b\000"
 2375 0a86 01       		.byte	0x1
 2376 0a87 8F       		.byte	0x8f
 2377 0a88 B1000000 		.4byte	0xb1
ARM GAS  C:\DOCUME~1\z_80\LOCALS~1\Temp\cc2dyvzq.s 			page 43


 2378 0a8c 86010000 		.4byte	.LLST12
 2379 0a90 00       		.byte	0x0
 2380 0a91 00       		.byte	0x0
 2381 0a92 24       		.uleb128 0x24
 2382 0a93 01       		.byte	0x1
 2383 0a94 28000000 		.4byte	.LASF132
 2384 0a98 01       		.byte	0x1
 2385 0a99 A8       		.byte	0xa8
 2386 0a9a 01       		.byte	0x1
 2387 0a9b 00000000 		.4byte	.LFB58
 2388 0a9f 38000000 		.4byte	.LFE58
 2389 0aa3 A4010000 		.4byte	.LLST13
 2390 0aa7 BB0A0000 		.4byte	0xabb
 2391 0aab 1B       		.uleb128 0x1b
 2392 0aac 61050000 		.4byte	.LASF127
 2393 0ab0 01       		.byte	0x1
 2394 0ab1 A8       		.byte	0xa8
 2395 0ab2 06080000 		.4byte	0x806
 2396 0ab6 C4010000 		.4byte	.LLST14
 2397 0aba 00       		.byte	0x0
 2398 0abb 24       		.uleb128 0x24
 2399 0abc 01       		.byte	0x1
 2400 0abd 26010000 		.4byte	.LASF133
 2401 0ac1 01       		.byte	0x1
 2402 0ac2 BE       		.byte	0xbe
 2403 0ac3 01       		.byte	0x1
 2404 0ac4 00000000 		.4byte	.LFB59
 2405 0ac8 70000000 		.4byte	.LFE59
 2406 0acc E2010000 		.4byte	.LLST15
 2407 0ad0 0F0B0000 		.4byte	0xb0f
 2408 0ad4 1B       		.uleb128 0x1b
 2409 0ad5 61050000 		.4byte	.LASF127
 2410 0ad9 01       		.byte	0x1
 2411 0ada BE       		.byte	0xbe
 2412 0adb 06080000 		.4byte	0x806
 2413 0adf 02020000 		.4byte	.LLST16
 2414 0ae3 20       		.uleb128 0x20
 2415 0ae4 82040000 		.4byte	.LASF134
 2416 0ae8 01       		.byte	0x1
 2417 0ae9 BF       		.byte	0xbf
 2418 0aea 86000000 		.4byte	0x86
 2419 0aee 15020000 		.4byte	.LLST17
 2420 0af2 1F       		.uleb128 0x1f
 2421 0af3 6E00     		.ascii	"n\000"
 2422 0af5 01       		.byte	0x1
 2423 0af6 BF       		.byte	0xbf
 2424 0af7 86000000 		.4byte	0x86
 2425 0afb 59020000 		.4byte	.LLST18
 2426 0aff 20       		.uleb128 0x20
 2427 0b00 C4020000 		.4byte	.LASF108
 2428 0b04 01       		.byte	0x1
 2429 0b05 C0       		.byte	0xc0
 2430 0b06 12090000 		.4byte	0x912
 2431 0b0a 78020000 		.4byte	.LLST19
 2432 0b0e 00       		.byte	0x0
 2433 0b0f 25       		.uleb128 0x25
 2434 0b10 2E090000 		.4byte	0x92e
ARM GAS  C:\DOCUME~1\z_80\LOCALS~1\Temp\cc2dyvzq.s 			page 44


 2435 0b14 00000000 		.4byte	.LFB60
 2436 0b18 24000000 		.4byte	.LFE60
 2437 0b1c 97020000 		.4byte	.LLST20
 2438 0b20 2E0B0000 		.4byte	0xb2e
 2439 0b24 1D       		.uleb128 0x1d
 2440 0b25 3C090000 		.4byte	0x93c
 2441 0b29 B7020000 		.4byte	.LLST21
 2442 0b2d 00       		.byte	0x0
 2443 0b2e 26       		.uleb128 0x26
 2444 0b2f 80000000 		.4byte	.LASF135
 2445 0b33 0D       		.byte	0xd
 2446 0b34 9404     		.2byte	0x494
 2447 0b36 FE030000 		.4byte	0x3fe
 2448 0b3a 01       		.byte	0x1
 2449 0b3b 01       		.byte	0x1
 2450 0b3c 27       		.uleb128 0x27
 2451 0b3d 9B060000 		.4byte	0x69b
 2452 0b41 4C0B0000 		.4byte	0xb4c
 2453 0b45 28       		.uleb128 0x28
 2454 0b46 3B000000 		.4byte	0x3b
 2455 0b4a 06       		.byte	0x6
 2456 0b4b 00       		.byte	0x0
 2457 0b4c 26       		.uleb128 0x26
 2458 0b4d 6D000000 		.4byte	.LASF136
 2459 0b51 0A       		.byte	0xa
 2460 0b52 8201     		.2byte	0x182
 2461 0b54 5A0B0000 		.4byte	0xb5a
 2462 0b58 01       		.byte	0x1
 2463 0b59 01       		.byte	0x1
 2464 0b5a 10       		.uleb128 0x10
 2465 0b5b 3C0B0000 		.4byte	0xb3c
 2466 0b5f 26       		.uleb128 0x26
 2467 0b60 4F040000 		.4byte	.LASF137
 2468 0b64 0C       		.byte	0xc
 2469 0b65 8101     		.2byte	0x181
 2470 0b67 30070000 		.4byte	0x730
 2471 0b6b 01       		.byte	0x1
 2472 0b6c 01       		.byte	0x1
 2473 0b6d 26       		.uleb128 0x26
 2474 0b6e 80000000 		.4byte	.LASF135
 2475 0b72 0D       		.byte	0xd
 2476 0b73 9404     		.2byte	0x494
 2477 0b75 FE030000 		.4byte	0x3fe
 2478 0b79 01       		.byte	0x1
 2479 0b7a 01       		.byte	0x1
 2480 0b7b 26       		.uleb128 0x26
 2481 0b7c 6D000000 		.4byte	.LASF136
 2482 0b80 0A       		.byte	0xa
 2483 0b81 8201     		.2byte	0x182
 2484 0b83 890B0000 		.4byte	0xb89
 2485 0b87 01       		.byte	0x1
 2486 0b88 01       		.byte	0x1
 2487 0b89 10       		.uleb128 0x10
 2488 0b8a 3C0B0000 		.4byte	0xb3c
 2489 0b8e 29       		.uleb128 0x29
 2490 0b8f 4F040000 		.4byte	.LASF137
 2491 0b93 01       		.byte	0x1
ARM GAS  C:\DOCUME~1\z_80\LOCALS~1\Temp\cc2dyvzq.s 			page 45


 2492 0b94 2F       		.byte	0x2f
 2493 0b95 30070000 		.4byte	0x730
 2494 0b99 01       		.byte	0x1
 2495 0b9a 05       		.byte	0x5
 2496 0b9b 03       		.byte	0x3
 2497 0b9c 00000000 		.4byte	ADCD1
 2498 0ba0 00       		.byte	0x0
 2499              		.section	.debug_abbrev
 2500 0000 01       		.uleb128 0x1
 2501 0001 11       		.uleb128 0x11
 2502 0002 01       		.byte	0x1
 2503 0003 25       		.uleb128 0x25
 2504 0004 0E       		.uleb128 0xe
 2505 0005 13       		.uleb128 0x13
 2506 0006 0B       		.uleb128 0xb
 2507 0007 03       		.uleb128 0x3
 2508 0008 0E       		.uleb128 0xe
 2509 0009 1B       		.uleb128 0x1b
 2510 000a 0E       		.uleb128 0xe
 2511 000b 11       		.uleb128 0x11
 2512 000c 01       		.uleb128 0x1
 2513 000d 52       		.uleb128 0x52
 2514 000e 01       		.uleb128 0x1
 2515 000f 55       		.uleb128 0x55
 2516 0010 06       		.uleb128 0x6
 2517 0011 10       		.uleb128 0x10
 2518 0012 06       		.uleb128 0x6
 2519 0013 00       		.byte	0x0
 2520 0014 00       		.byte	0x0
 2521 0015 02       		.uleb128 0x2
 2522 0016 24       		.uleb128 0x24
 2523 0017 00       		.byte	0x0
 2524 0018 0B       		.uleb128 0xb
 2525 0019 0B       		.uleb128 0xb
 2526 001a 3E       		.uleb128 0x3e
 2527 001b 0B       		.uleb128 0xb
 2528 001c 03       		.uleb128 0x3
 2529 001d 08       		.uleb128 0x8
 2530 001e 00       		.byte	0x0
 2531 001f 00       		.byte	0x0
 2532 0020 03       		.uleb128 0x3
 2533 0021 16       		.uleb128 0x16
 2534 0022 00       		.byte	0x0
 2535 0023 03       		.uleb128 0x3
 2536 0024 0E       		.uleb128 0xe
 2537 0025 3A       		.uleb128 0x3a
 2538 0026 0B       		.uleb128 0xb
 2539 0027 3B       		.uleb128 0x3b
 2540 0028 0B       		.uleb128 0xb
 2541 0029 49       		.uleb128 0x49
 2542 002a 13       		.uleb128 0x13
 2543 002b 00       		.byte	0x0
 2544 002c 00       		.byte	0x0
 2545 002d 04       		.uleb128 0x4
 2546 002e 24       		.uleb128 0x24
 2547 002f 00       		.byte	0x0
 2548 0030 0B       		.uleb128 0xb
ARM GAS  C:\DOCUME~1\z_80\LOCALS~1\Temp\cc2dyvzq.s 			page 46


 2549 0031 0B       		.uleb128 0xb
 2550 0032 3E       		.uleb128 0x3e
 2551 0033 0B       		.uleb128 0xb
 2552 0034 03       		.uleb128 0x3
 2553 0035 0E       		.uleb128 0xe
 2554 0036 00       		.byte	0x0
 2555 0037 00       		.byte	0x0
 2556 0038 05       		.uleb128 0x5
 2557 0039 13       		.uleb128 0x13
 2558 003a 01       		.byte	0x1
 2559 003b 03       		.uleb128 0x3
 2560 003c 0E       		.uleb128 0xe
 2561 003d 0B       		.uleb128 0xb
 2562 003e 0B       		.uleb128 0xb
 2563 003f 3A       		.uleb128 0x3a
 2564 0040 0B       		.uleb128 0xb
 2565 0041 3B       		.uleb128 0x3b
 2566 0042 0B       		.uleb128 0xb
 2567 0043 01       		.uleb128 0x1
 2568 0044 13       		.uleb128 0x13
 2569 0045 00       		.byte	0x0
 2570 0046 00       		.byte	0x0
 2571 0047 06       		.uleb128 0x6
 2572 0048 0D       		.uleb128 0xd
 2573 0049 00       		.byte	0x0
 2574 004a 03       		.uleb128 0x3
 2575 004b 0E       		.uleb128 0xe
 2576 004c 3A       		.uleb128 0x3a
 2577 004d 0B       		.uleb128 0xb
 2578 004e 3B       		.uleb128 0x3b
 2579 004f 0B       		.uleb128 0xb
 2580 0050 49       		.uleb128 0x49
 2581 0051 13       		.uleb128 0x13
 2582 0052 38       		.uleb128 0x38
 2583 0053 0A       		.uleb128 0xa
 2584 0054 00       		.byte	0x0
 2585 0055 00       		.byte	0x0
 2586 0056 07       		.uleb128 0x7
 2587 0057 0D       		.uleb128 0xd
 2588 0058 00       		.byte	0x0
 2589 0059 03       		.uleb128 0x3
 2590 005a 08       		.uleb128 0x8
 2591 005b 3A       		.uleb128 0x3a
 2592 005c 0B       		.uleb128 0xb
 2593 005d 3B       		.uleb128 0x3b
 2594 005e 0B       		.uleb128 0xb
 2595 005f 49       		.uleb128 0x49
 2596 0060 13       		.uleb128 0x13
 2597 0061 38       		.uleb128 0x38
 2598 0062 0A       		.uleb128 0xa
 2599 0063 00       		.byte	0x0
 2600 0064 00       		.byte	0x0
 2601 0065 08       		.uleb128 0x8
 2602 0066 13       		.uleb128 0x13
 2603 0067 01       		.byte	0x1
 2604 0068 0B       		.uleb128 0xb
 2605 0069 0B       		.uleb128 0xb
ARM GAS  C:\DOCUME~1\z_80\LOCALS~1\Temp\cc2dyvzq.s 			page 47


 2606 006a 3A       		.uleb128 0x3a
 2607 006b 0B       		.uleb128 0xb
 2608 006c 3B       		.uleb128 0x3b
 2609 006d 0B       		.uleb128 0xb
 2610 006e 01       		.uleb128 0x1
 2611 006f 13       		.uleb128 0x13
 2612 0070 00       		.byte	0x0
 2613 0071 00       		.byte	0x0
 2614 0072 09       		.uleb128 0x9
 2615 0073 0F       		.uleb128 0xf
 2616 0074 00       		.byte	0x0
 2617 0075 0B       		.uleb128 0xb
 2618 0076 0B       		.uleb128 0xb
 2619 0077 49       		.uleb128 0x49
 2620 0078 13       		.uleb128 0x13
 2621 0079 00       		.byte	0x0
 2622 007a 00       		.byte	0x0
 2623 007b 0A       		.uleb128 0xa
 2624 007c 0F       		.uleb128 0xf
 2625 007d 00       		.byte	0x0
 2626 007e 0B       		.uleb128 0xb
 2627 007f 0B       		.uleb128 0xb
 2628 0080 00       		.byte	0x0
 2629 0081 00       		.byte	0x0
 2630 0082 0B       		.uleb128 0xb
 2631 0083 0D       		.uleb128 0xd
 2632 0084 00       		.byte	0x0
 2633 0085 03       		.uleb128 0x3
 2634 0086 08       		.uleb128 0x8
 2635 0087 3A       		.uleb128 0x3a
 2636 0088 0B       		.uleb128 0xb
 2637 0089 3B       		.uleb128 0x3b
 2638 008a 05       		.uleb128 0x5
 2639 008b 49       		.uleb128 0x49
 2640 008c 13       		.uleb128 0x13
 2641 008d 38       		.uleb128 0x38
 2642 008e 0A       		.uleb128 0xa
 2643 008f 00       		.byte	0x0
 2644 0090 00       		.byte	0x0
 2645 0091 0C       		.uleb128 0xc
 2646 0092 13       		.uleb128 0x13
 2647 0093 01       		.byte	0x1
 2648 0094 03       		.uleb128 0x3
 2649 0095 0E       		.uleb128 0xe
 2650 0096 0B       		.uleb128 0xb
 2651 0097 0B       		.uleb128 0xb
 2652 0098 3A       		.uleb128 0x3a
 2653 0099 0B       		.uleb128 0xb
 2654 009a 3B       		.uleb128 0x3b
 2655 009b 05       		.uleb128 0x5
 2656 009c 01       		.uleb128 0x1
 2657 009d 13       		.uleb128 0x13
 2658 009e 00       		.byte	0x0
 2659 009f 00       		.byte	0x0
 2660 00a0 0D       		.uleb128 0xd
 2661 00a1 35       		.uleb128 0x35
 2662 00a2 00       		.byte	0x0
ARM GAS  C:\DOCUME~1\z_80\LOCALS~1\Temp\cc2dyvzq.s 			page 48


 2663 00a3 49       		.uleb128 0x49
 2664 00a4 13       		.uleb128 0x13
 2665 00a5 00       		.byte	0x0
 2666 00a6 00       		.byte	0x0
 2667 00a7 0E       		.uleb128 0xe
 2668 00a8 17       		.uleb128 0x17
 2669 00a9 01       		.byte	0x1
 2670 00aa 0B       		.uleb128 0xb
 2671 00ab 0B       		.uleb128 0xb
 2672 00ac 3A       		.uleb128 0x3a
 2673 00ad 0B       		.uleb128 0xb
 2674 00ae 3B       		.uleb128 0x3b
 2675 00af 0B       		.uleb128 0xb
 2676 00b0 01       		.uleb128 0x1
 2677 00b1 13       		.uleb128 0x13
 2678 00b2 00       		.byte	0x0
 2679 00b3 00       		.byte	0x0
 2680 00b4 0F       		.uleb128 0xf
 2681 00b5 0D       		.uleb128 0xd
 2682 00b6 00       		.byte	0x0
 2683 00b7 03       		.uleb128 0x3
 2684 00b8 0E       		.uleb128 0xe
 2685 00b9 3A       		.uleb128 0x3a
 2686 00ba 0B       		.uleb128 0xb
 2687 00bb 3B       		.uleb128 0x3b
 2688 00bc 0B       		.uleb128 0xb
 2689 00bd 49       		.uleb128 0x49
 2690 00be 13       		.uleb128 0x13
 2691 00bf 00       		.byte	0x0
 2692 00c0 00       		.byte	0x0
 2693 00c1 10       		.uleb128 0x10
 2694 00c2 26       		.uleb128 0x26
 2695 00c3 00       		.byte	0x0
 2696 00c4 49       		.uleb128 0x49
 2697 00c5 13       		.uleb128 0x13
 2698 00c6 00       		.byte	0x0
 2699 00c7 00       		.byte	0x0
 2700 00c8 11       		.uleb128 0x11
 2701 00c9 13       		.uleb128 0x13
 2702 00ca 01       		.byte	0x1
 2703 00cb 0B       		.uleb128 0xb
 2704 00cc 0B       		.uleb128 0xb
 2705 00cd 3A       		.uleb128 0x3a
 2706 00ce 0B       		.uleb128 0xb
 2707 00cf 3B       		.uleb128 0x3b
 2708 00d0 05       		.uleb128 0x5
 2709 00d1 01       		.uleb128 0x1
 2710 00d2 13       		.uleb128 0x13
 2711 00d3 00       		.byte	0x0
 2712 00d4 00       		.byte	0x0
 2713 00d5 12       		.uleb128 0x12
 2714 00d6 0D       		.uleb128 0xd
 2715 00d7 00       		.byte	0x0
 2716 00d8 03       		.uleb128 0x3
 2717 00d9 0E       		.uleb128 0xe
 2718 00da 3A       		.uleb128 0x3a
 2719 00db 0B       		.uleb128 0xb
ARM GAS  C:\DOCUME~1\z_80\LOCALS~1\Temp\cc2dyvzq.s 			page 49


 2720 00dc 3B       		.uleb128 0x3b
 2721 00dd 05       		.uleb128 0x5
 2722 00de 49       		.uleb128 0x49
 2723 00df 13       		.uleb128 0x13
 2724 00e0 38       		.uleb128 0x38
 2725 00e1 0A       		.uleb128 0xa
 2726 00e2 00       		.byte	0x0
 2727 00e3 00       		.byte	0x0
 2728 00e4 13       		.uleb128 0x13
 2729 00e5 16       		.uleb128 0x16
 2730 00e6 00       		.byte	0x0
 2731 00e7 03       		.uleb128 0x3
 2732 00e8 0E       		.uleb128 0xe
 2733 00e9 3A       		.uleb128 0x3a
 2734 00ea 0B       		.uleb128 0xb
 2735 00eb 3B       		.uleb128 0x3b
 2736 00ec 05       		.uleb128 0x5
 2737 00ed 49       		.uleb128 0x49
 2738 00ee 13       		.uleb128 0x13
 2739 00ef 00       		.byte	0x0
 2740 00f0 00       		.byte	0x0
 2741 00f1 14       		.uleb128 0x14
 2742 00f2 15       		.uleb128 0x15
 2743 00f3 01       		.byte	0x1
 2744 00f4 27       		.uleb128 0x27
 2745 00f5 0C       		.uleb128 0xc
 2746 00f6 01       		.uleb128 0x1
 2747 00f7 13       		.uleb128 0x13
 2748 00f8 00       		.byte	0x0
 2749 00f9 00       		.byte	0x0
 2750 00fa 15       		.uleb128 0x15
 2751 00fb 05       		.uleb128 0x5
 2752 00fc 00       		.byte	0x0
 2753 00fd 49       		.uleb128 0x49
 2754 00fe 13       		.uleb128 0x13
 2755 00ff 00       		.byte	0x0
 2756 0100 00       		.byte	0x0
 2757 0101 16       		.uleb128 0x16
 2758 0102 04       		.uleb128 0x4
 2759 0103 01       		.byte	0x1
 2760 0104 0B       		.uleb128 0xb
 2761 0105 0B       		.uleb128 0xb
 2762 0106 3A       		.uleb128 0x3a
 2763 0107 0B       		.uleb128 0xb
 2764 0108 3B       		.uleb128 0x3b
 2765 0109 0B       		.uleb128 0xb
 2766 010a 01       		.uleb128 0x1
 2767 010b 13       		.uleb128 0x13
 2768 010c 00       		.byte	0x0
 2769 010d 00       		.byte	0x0
 2770 010e 17       		.uleb128 0x17
 2771 010f 28       		.uleb128 0x28
 2772 0110 00       		.byte	0x0
 2773 0111 03       		.uleb128 0x3
 2774 0112 0E       		.uleb128 0xe
 2775 0113 1C       		.uleb128 0x1c
 2776 0114 0D       		.uleb128 0xd
ARM GAS  C:\DOCUME~1\z_80\LOCALS~1\Temp\cc2dyvzq.s 			page 50


 2777 0115 00       		.byte	0x0
 2778 0116 00       		.byte	0x0
 2779 0117 18       		.uleb128 0x18
 2780 0118 2E       		.uleb128 0x2e
 2781 0119 01       		.byte	0x1
 2782 011a 3F       		.uleb128 0x3f
 2783 011b 0C       		.uleb128 0xc
 2784 011c 03       		.uleb128 0x3
 2785 011d 0E       		.uleb128 0xe
 2786 011e 3A       		.uleb128 0x3a
 2787 011f 0B       		.uleb128 0xb
 2788 0120 3B       		.uleb128 0x3b
 2789 0121 0B       		.uleb128 0xb
 2790 0122 27       		.uleb128 0x27
 2791 0123 0C       		.uleb128 0xc
 2792 0124 20       		.uleb128 0x20
 2793 0125 0B       		.uleb128 0xb
 2794 0126 01       		.uleb128 0x1
 2795 0127 13       		.uleb128 0x13
 2796 0128 00       		.byte	0x0
 2797 0129 00       		.byte	0x0
 2798 012a 19       		.uleb128 0x19
 2799 012b 05       		.uleb128 0x5
 2800 012c 00       		.byte	0x0
 2801 012d 03       		.uleb128 0x3
 2802 012e 0E       		.uleb128 0xe
 2803 012f 3A       		.uleb128 0x3a
 2804 0130 0B       		.uleb128 0xb
 2805 0131 3B       		.uleb128 0x3b
 2806 0132 0B       		.uleb128 0xb
 2807 0133 49       		.uleb128 0x49
 2808 0134 13       		.uleb128 0x13
 2809 0135 00       		.byte	0x0
 2810 0136 00       		.byte	0x0
 2811 0137 1A       		.uleb128 0x1a
 2812 0138 2E       		.uleb128 0x2e
 2813 0139 01       		.byte	0x1
 2814 013a 03       		.uleb128 0x3
 2815 013b 0E       		.uleb128 0xe
 2816 013c 3A       		.uleb128 0x3a
 2817 013d 0B       		.uleb128 0xb
 2818 013e 3B       		.uleb128 0x3b
 2819 013f 0B       		.uleb128 0xb
 2820 0140 27       		.uleb128 0x27
 2821 0141 0C       		.uleb128 0xc
 2822 0142 11       		.uleb128 0x11
 2823 0143 01       		.uleb128 0x1
 2824 0144 12       		.uleb128 0x12
 2825 0145 01       		.uleb128 0x1
 2826 0146 40       		.uleb128 0x40
 2827 0147 06       		.uleb128 0x6
 2828 0148 01       		.uleb128 0x1
 2829 0149 13       		.uleb128 0x13
 2830 014a 00       		.byte	0x0
 2831 014b 00       		.byte	0x0
 2832 014c 1B       		.uleb128 0x1b
 2833 014d 05       		.uleb128 0x5
ARM GAS  C:\DOCUME~1\z_80\LOCALS~1\Temp\cc2dyvzq.s 			page 51


 2834 014e 00       		.byte	0x0
 2835 014f 03       		.uleb128 0x3
 2836 0150 0E       		.uleb128 0xe
 2837 0151 3A       		.uleb128 0x3a
 2838 0152 0B       		.uleb128 0xb
 2839 0153 3B       		.uleb128 0x3b
 2840 0154 0B       		.uleb128 0xb
 2841 0155 49       		.uleb128 0x49
 2842 0156 13       		.uleb128 0x13
 2843 0157 02       		.uleb128 0x2
 2844 0158 06       		.uleb128 0x6
 2845 0159 00       		.byte	0x0
 2846 015a 00       		.byte	0x0
 2847 015b 1C       		.uleb128 0x1c
 2848 015c 1D       		.uleb128 0x1d
 2849 015d 01       		.byte	0x1
 2850 015e 31       		.uleb128 0x31
 2851 015f 13       		.uleb128 0x13
 2852 0160 52       		.uleb128 0x52
 2853 0161 01       		.uleb128 0x1
 2854 0162 55       		.uleb128 0x55
 2855 0163 06       		.uleb128 0x6
 2856 0164 58       		.uleb128 0x58
 2857 0165 0B       		.uleb128 0xb
 2858 0166 59       		.uleb128 0x59
 2859 0167 0B       		.uleb128 0xb
 2860 0168 01       		.uleb128 0x1
 2861 0169 13       		.uleb128 0x13
 2862 016a 00       		.byte	0x0
 2863 016b 00       		.byte	0x0
 2864 016c 1D       		.uleb128 0x1d
 2865 016d 05       		.uleb128 0x5
 2866 016e 00       		.byte	0x0
 2867 016f 31       		.uleb128 0x31
 2868 0170 13       		.uleb128 0x13
 2869 0171 02       		.uleb128 0x2
 2870 0172 06       		.uleb128 0x6
 2871 0173 00       		.byte	0x0
 2872 0174 00       		.byte	0x0
 2873 0175 1E       		.uleb128 0x1e
 2874 0176 0B       		.uleb128 0xb
 2875 0177 01       		.byte	0x1
 2876 0178 11       		.uleb128 0x11
 2877 0179 01       		.uleb128 0x1
 2878 017a 12       		.uleb128 0x12
 2879 017b 01       		.uleb128 0x1
 2880 017c 01       		.uleb128 0x1
 2881 017d 13       		.uleb128 0x13
 2882 017e 00       		.byte	0x0
 2883 017f 00       		.byte	0x0
 2884 0180 1F       		.uleb128 0x1f
 2885 0181 34       		.uleb128 0x34
 2886 0182 00       		.byte	0x0
 2887 0183 03       		.uleb128 0x3
 2888 0184 08       		.uleb128 0x8
 2889 0185 3A       		.uleb128 0x3a
 2890 0186 0B       		.uleb128 0xb
ARM GAS  C:\DOCUME~1\z_80\LOCALS~1\Temp\cc2dyvzq.s 			page 52


 2891 0187 3B       		.uleb128 0x3b
 2892 0188 0B       		.uleb128 0xb
 2893 0189 49       		.uleb128 0x49
 2894 018a 13       		.uleb128 0x13
 2895 018b 02       		.uleb128 0x2
 2896 018c 06       		.uleb128 0x6
 2897 018d 00       		.byte	0x0
 2898 018e 00       		.byte	0x0
 2899 018f 20       		.uleb128 0x20
 2900 0190 34       		.uleb128 0x34
 2901 0191 00       		.byte	0x0
 2902 0192 03       		.uleb128 0x3
 2903 0193 0E       		.uleb128 0xe
 2904 0194 3A       		.uleb128 0x3a
 2905 0195 0B       		.uleb128 0xb
 2906 0196 3B       		.uleb128 0x3b
 2907 0197 0B       		.uleb128 0xb
 2908 0198 49       		.uleb128 0x49
 2909 0199 13       		.uleb128 0x13
 2910 019a 02       		.uleb128 0x2
 2911 019b 06       		.uleb128 0x6
 2912 019c 00       		.byte	0x0
 2913 019d 00       		.byte	0x0
 2914 019e 21       		.uleb128 0x21
 2915 019f 34       		.uleb128 0x34
 2916 01a0 00       		.byte	0x0
 2917 01a1 03       		.uleb128 0x3
 2918 01a2 0E       		.uleb128 0xe
 2919 01a3 3A       		.uleb128 0x3a
 2920 01a4 0B       		.uleb128 0xb
 2921 01a5 3B       		.uleb128 0x3b
 2922 01a6 0B       		.uleb128 0xb
 2923 01a7 49       		.uleb128 0x49
 2924 01a8 13       		.uleb128 0x13
 2925 01a9 00       		.byte	0x0
 2926 01aa 00       		.byte	0x0
 2927 01ab 22       		.uleb128 0x22
 2928 01ac 0B       		.uleb128 0xb
 2929 01ad 01       		.byte	0x1
 2930 01ae 11       		.uleb128 0x11
 2931 01af 01       		.uleb128 0x1
 2932 01b0 12       		.uleb128 0x12
 2933 01b1 01       		.uleb128 0x1
 2934 01b2 00       		.byte	0x0
 2935 01b3 00       		.byte	0x0
 2936 01b4 23       		.uleb128 0x23
 2937 01b5 2E       		.uleb128 0x2e
 2938 01b6 00       		.byte	0x0
 2939 01b7 3F       		.uleb128 0x3f
 2940 01b8 0C       		.uleb128 0xc
 2941 01b9 03       		.uleb128 0x3
 2942 01ba 0E       		.uleb128 0xe
 2943 01bb 3A       		.uleb128 0x3a
 2944 01bc 0B       		.uleb128 0xb
 2945 01bd 3B       		.uleb128 0x3b
 2946 01be 0B       		.uleb128 0xb
 2947 01bf 27       		.uleb128 0x27
ARM GAS  C:\DOCUME~1\z_80\LOCALS~1\Temp\cc2dyvzq.s 			page 53


 2948 01c0 0C       		.uleb128 0xc
 2949 01c1 11       		.uleb128 0x11
 2950 01c2 01       		.uleb128 0x1
 2951 01c3 12       		.uleb128 0x12
 2952 01c4 01       		.uleb128 0x1
 2953 01c5 40       		.uleb128 0x40
 2954 01c6 06       		.uleb128 0x6
 2955 01c7 00       		.byte	0x0
 2956 01c8 00       		.byte	0x0
 2957 01c9 24       		.uleb128 0x24
 2958 01ca 2E       		.uleb128 0x2e
 2959 01cb 01       		.byte	0x1
 2960 01cc 3F       		.uleb128 0x3f
 2961 01cd 0C       		.uleb128 0xc
 2962 01ce 03       		.uleb128 0x3
 2963 01cf 0E       		.uleb128 0xe
 2964 01d0 3A       		.uleb128 0x3a
 2965 01d1 0B       		.uleb128 0xb
 2966 01d2 3B       		.uleb128 0x3b
 2967 01d3 0B       		.uleb128 0xb
 2968 01d4 27       		.uleb128 0x27
 2969 01d5 0C       		.uleb128 0xc
 2970 01d6 11       		.uleb128 0x11
 2971 01d7 01       		.uleb128 0x1
 2972 01d8 12       		.uleb128 0x12
 2973 01d9 01       		.uleb128 0x1
 2974 01da 40       		.uleb128 0x40
 2975 01db 06       		.uleb128 0x6
 2976 01dc 01       		.uleb128 0x1
 2977 01dd 13       		.uleb128 0x13
 2978 01de 00       		.byte	0x0
 2979 01df 00       		.byte	0x0
 2980 01e0 25       		.uleb128 0x25
 2981 01e1 2E       		.uleb128 0x2e
 2982 01e2 01       		.byte	0x1
 2983 01e3 31       		.uleb128 0x31
 2984 01e4 13       		.uleb128 0x13
 2985 01e5 11       		.uleb128 0x11
 2986 01e6 01       		.uleb128 0x1
 2987 01e7 12       		.uleb128 0x12
 2988 01e8 01       		.uleb128 0x1
 2989 01e9 40       		.uleb128 0x40
 2990 01ea 06       		.uleb128 0x6
 2991 01eb 01       		.uleb128 0x1
 2992 01ec 13       		.uleb128 0x13
 2993 01ed 00       		.byte	0x0
 2994 01ee 00       		.byte	0x0
 2995 01ef 26       		.uleb128 0x26
 2996 01f0 34       		.uleb128 0x34
 2997 01f1 00       		.byte	0x0
 2998 01f2 03       		.uleb128 0x3
 2999 01f3 0E       		.uleb128 0xe
 3000 01f4 3A       		.uleb128 0x3a
 3001 01f5 0B       		.uleb128 0xb
 3002 01f6 3B       		.uleb128 0x3b
 3003 01f7 05       		.uleb128 0x5
 3004 01f8 49       		.uleb128 0x49
ARM GAS  C:\DOCUME~1\z_80\LOCALS~1\Temp\cc2dyvzq.s 			page 54


 3005 01f9 13       		.uleb128 0x13
 3006 01fa 3F       		.uleb128 0x3f
 3007 01fb 0C       		.uleb128 0xc
 3008 01fc 3C       		.uleb128 0x3c
 3009 01fd 0C       		.uleb128 0xc
 3010 01fe 00       		.byte	0x0
 3011 01ff 00       		.byte	0x0
 3012 0200 27       		.uleb128 0x27
 3013 0201 01       		.uleb128 0x1
 3014 0202 01       		.byte	0x1
 3015 0203 49       		.uleb128 0x49
 3016 0204 13       		.uleb128 0x13
 3017 0205 01       		.uleb128 0x1
 3018 0206 13       		.uleb128 0x13
 3019 0207 00       		.byte	0x0
 3020 0208 00       		.byte	0x0
 3021 0209 28       		.uleb128 0x28
 3022 020a 21       		.uleb128 0x21
 3023 020b 00       		.byte	0x0
 3024 020c 49       		.uleb128 0x49
 3025 020d 13       		.uleb128 0x13
 3026 020e 2F       		.uleb128 0x2f
 3027 020f 0B       		.uleb128 0xb
 3028 0210 00       		.byte	0x0
 3029 0211 00       		.byte	0x0
 3030 0212 29       		.uleb128 0x29
 3031 0213 34       		.uleb128 0x34
 3032 0214 00       		.byte	0x0
 3033 0215 03       		.uleb128 0x3
 3034 0216 0E       		.uleb128 0xe
 3035 0217 3A       		.uleb128 0x3a
 3036 0218 0B       		.uleb128 0xb
 3037 0219 3B       		.uleb128 0x3b
 3038 021a 0B       		.uleb128 0xb
 3039 021b 49       		.uleb128 0x49
 3040 021c 13       		.uleb128 0x13
 3041 021d 3F       		.uleb128 0x3f
 3042 021e 0C       		.uleb128 0xc
 3043 021f 02       		.uleb128 0x2
 3044 0220 0A       		.uleb128 0xa
 3045 0221 00       		.byte	0x0
 3046 0222 00       		.byte	0x0
 3047 0223 00       		.byte	0x0
 3048              		.section	.debug_pubnames,"",%progbits
 3049 0000 85000000 		.4byte	0x85
 3050 0004 0200     		.2byte	0x2
 3051 0006 00000000 		.4byte	.Ldebug_info0
 3052 000a A10B0000 		.4byte	0xba1
 3053 000e 3D0A0000 		.4byte	0xa3d
 3054 0012 6164635F 		.ascii	"adc_lld_init\000"
 3054      6C6C645F 
 3054      696E6974 
 3054      00
 3055 001f 520A0000 		.4byte	0xa52
 3056 0023 6164635F 		.ascii	"adc_lld_start\000"
 3056      6C6C645F 
 3056      73746172 
ARM GAS  C:\DOCUME~1\z_80\LOCALS~1\Temp\cc2dyvzq.s 			page 55


 3056      7400
 3057 0031 920A0000 		.4byte	0xa92
 3058 0035 6164635F 		.ascii	"adc_lld_stop\000"
 3058      6C6C645F 
 3058      73746F70 
 3058      00
 3059 0042 BB0A0000 		.4byte	0xabb
 3060 0046 6164635F 		.ascii	"adc_lld_start_conversion\000"
 3060      6C6C645F 
 3060      73746172 
 3060      745F636F 
 3060      6E766572 
 3061 005f 0F0B0000 		.4byte	0xb0f
 3062 0063 6164635F 		.ascii	"adc_lld_stop_conversion\000"
 3062      6C6C645F 
 3062      73746F70 
 3062      5F636F6E 
 3062      76657273 
 3063 007b 8E0B0000 		.4byte	0xb8e
 3064 007f 41444344 		.ascii	"ADCD1\000"
 3064      3100
 3065 0085 00000000 		.4byte	0x0
 3066              		.section	.debug_pubtypes,"",%progbits
 3067 0000 4B020000 		.4byte	0x24b
 3068 0004 0200     		.2byte	0x2
 3069 0006 00000000 		.4byte	.Ldebug_info0
 3070 000a A10B0000 		.4byte	0xba1
 3071 000e 30000000 		.4byte	0x30
 3072 0012 73697A65 		.ascii	"size_t\000"
 3072      5F7400
 3073 0019 49000000 		.4byte	0x49
 3074 001d 75696E74 		.ascii	"uint8_t\000"
 3074      385F7400 
 3075 0025 62000000 		.4byte	0x62
 3076 0029 75696E74 		.ascii	"uint16_t\000"
 3076      31365F74 
 3076      00
 3077 0032 74000000 		.4byte	0x74
 3078 0036 696E7433 		.ascii	"int32_t\000"
 3078      325F7400 
 3079 003e 86000000 		.4byte	0x86
 3080 0042 75696E74 		.ascii	"uint32_t\000"
 3080      33325F74 
 3080      00
 3081 004b 9F000000 		.4byte	0x9f
 3082 004f 75696E74 		.ascii	"uint64_t\000"
 3082      36345F74 
 3082      00
 3083 0058 B1000000 		.4byte	0xb1
 3084 005c 626F6F6C 		.ascii	"bool_t\000"
 3084      5F7400
 3085 0063 BC000000 		.4byte	0xbc
 3086 0067 746D6F64 		.ascii	"tmode_t\000"
 3086      655F7400 
 3087 006f C7000000 		.4byte	0xc7
 3088 0073 74737461 		.ascii	"tstate_t\000"
 3088      74655F74 
ARM GAS  C:\DOCUME~1\z_80\LOCALS~1\Temp\cc2dyvzq.s 			page 56


 3088      00
 3089 007c D2000000 		.4byte	0xd2
 3090 0080 74726566 		.ascii	"trefs_t\000"
 3090      735F7400 
 3091 0088 DD000000 		.4byte	0xdd
 3092 008c 74707269 		.ascii	"tprio_t\000"
 3092      6F5F7400 
 3093 0094 E8000000 		.4byte	0xe8
 3094 0098 6D73675F 		.ascii	"msg_t\000"
 3094      7400
 3095 009e F3000000 		.4byte	0xf3
 3096 00a2 6576656E 		.ascii	"eventmask_t\000"
 3096      746D6173 
 3096      6B5F7400 
 3097 00ae FE000000 		.4byte	0xfe
 3098 00b2 73797374 		.ascii	"systime_t\000"
 3098      696D655F 
 3098      7400
 3099 00bc 09010000 		.4byte	0x109
 3100 00c0 54687265 		.ascii	"Thread\000"
 3100      616400
 3101 00c7 64020000 		.4byte	0x264
 3102 00cb 54687265 		.ascii	"ThreadsQueue\000"
 3102      61647351 
 3102      75657565 
 3102      00
 3103 00d8 86020000 		.4byte	0x286
 3104 00dc 54687265 		.ascii	"ThreadsList\000"
 3104      6164734C 
 3104      69737400 
 3105 00e8 91020000 		.4byte	0x291
 3106 00ec 72656761 		.ascii	"regarm_t\000"
 3106      726D5F74 
 3106      00
 3107 00f5 9E020000 		.4byte	0x29e
 3108 00f9 73746B61 		.ascii	"stkalign_t\000"
 3108      6C69676E 
 3108      5F7400
 3109 0104 A9020000 		.4byte	0x2a9
 3110 0108 696E7463 		.ascii	"intctx\000"
 3110      747800
 3111 010f 36030000 		.4byte	0x336
 3112 0113 636F6E74 		.ascii	"context\000"
 3112      65787400 
 3113 011b 63030000 		.4byte	0x363
 3114 011f 4D757465 		.ascii	"Mutex\000"
 3114      7800
 3115 0125 A0030000 		.4byte	0x3a0
 3116 0129 4D757465 		.ascii	"Mutex\000"
 3116      7800
 3117 012f 14010000 		.4byte	0x114
 3118 0133 54687265 		.ascii	"Thread\000"
 3118      616400
 3119 013a 37050000 		.4byte	0x537
 3120 013e 4144435F 		.ascii	"ADC_TypeDef\000"
 3120      54797065 
 3120      44656600 
ARM GAS  C:\DOCUME~1\z_80\LOCALS~1\Temp\cc2dyvzq.s 			page 57


 3121 014a 89050000 		.4byte	0x589
 3122 014e 444D415F 		.ascii	"DMA_Channel_TypeDef\000"
 3122      4368616E 
 3122      6E656C5F 
 3122      54797065 
 3122      44656600 
 3123 0162 34060000 		.4byte	0x634
 3124 0166 5243435F 		.ascii	"RCC_TypeDef\000"
 3124      54797065 
 3124      44656600 
 3125 0172 9B060000 		.4byte	0x69b
 3126 0176 73746D33 		.ascii	"stm32_dma_stream_t\000"
 3126      325F646D 
 3126      615F7374 
 3126      7265616D 
 3126      5F7400
 3127 0189 A6060000 		.4byte	0x6a6
 3128 018d 73746D33 		.ascii	"stm32_dmaisr_t\000"
 3128      325F646D 
 3128      61697372 
 3128      5F7400
 3129 019c F5060000 		.4byte	0x6f5
 3130 01a0 61646373 		.ascii	"adcstate_t\000"
 3130      74617465 
 3130      5F7400
 3131 01ab 00070000 		.4byte	0x700
 3132 01af 61646373 		.ascii	"adcsample_t\000"
 3132      616D706C 
 3132      655F7400 
 3133 01bb 0B070000 		.4byte	0x70b
 3134 01bf 6164635F 		.ascii	"adc_channels_num_t\000"
 3134      6368616E 
 3134      6E656C73 
 3134      5F6E756D 
 3134      5F7400
 3135 01d2 25070000 		.4byte	0x725
 3136 01d6 61646365 		.ascii	"adcerror_t\000"
 3136      72726F72 
 3136      5F7400
 3137 01e1 30070000 		.4byte	0x730
 3138 01e5 41444344 		.ascii	"ADCDriver\000"
 3138      72697665 
 3138      7200
 3139 01ef DF070000 		.4byte	0x7df
 3140 01f3 61646363 		.ascii	"adccallback_t\000"
 3140      616C6C62 
 3140      61636B5F 
 3140      7400
 3141 0201 12080000 		.4byte	0x812
 3142 0205 61646365 		.ascii	"adcerrorcallback_t\000"
 3142      72726F72 
 3142      63616C6C 
 3142      6261636B 
 3142      5F7400
 3143 0218 D7080000 		.4byte	0x8d7
 3144 021c 41444343 		.ascii	"ADCConversionGroup\000"
 3144      6F6E7665 
ARM GAS  C:\DOCUME~1\z_80\LOCALS~1\Temp\cc2dyvzq.s 			page 58


 3144      7273696F 
 3144      6E47726F 
 3144      757000
 3145 022f FB080000 		.4byte	0x8fb
 3146 0233 41444343 		.ascii	"ADCConfig\000"
 3146      6F6E6669 
 3146      6700
 3147 023d 3B070000 		.4byte	0x73b
 3148 0241 41444344 		.ascii	"ADCDriver\000"
 3148      72697665 
 3148      7200
 3149 024b 00000000 		.4byte	0x0
 3150              		.section	.debug_aranges,"",%progbits
 3151 0000 44000000 		.4byte	0x44
 3152 0004 0200     		.2byte	0x2
 3153 0006 00000000 		.4byte	.Ldebug_info0
 3154 000a 04       		.byte	0x4
 3155 000b 00       		.byte	0x0
 3156 000c 0000     		.2byte	0x0
 3157 000e 0000     		.2byte	0x0
 3158 0010 00000000 		.4byte	.LFB55
 3159 0014 2C010000 		.4byte	.LFE55-.LFB55
 3160 0018 00000000 		.4byte	.LFB56
 3161 001c 64000000 		.4byte	.LFE56-.LFB56
 3162 0020 00000000 		.4byte	.LFB57
 3163 0024 5C000000 		.4byte	.LFE57-.LFB57
 3164 0028 00000000 		.4byte	.LFB58
 3165 002c 38000000 		.4byte	.LFE58-.LFB58
 3166 0030 00000000 		.4byte	.LFB59
 3167 0034 70000000 		.4byte	.LFE59-.LFB59
 3168 0038 00000000 		.4byte	.LFB60
 3169 003c 24000000 		.4byte	.LFE60-.LFB60
 3170 0040 00000000 		.4byte	0x0
 3171 0044 00000000 		.4byte	0x0
 3172              		.section	.debug_ranges,"",%progbits
 3173              	.Ldebug_ranges0:
 3174 0000 0C000000 		.4byte	.LBB10
 3175 0004 0E000000 		.4byte	.LBE10
 3176 0008 26000000 		.4byte	.LBB15
 3177 000c 2C000000 		.4byte	.LBE15
 3178 0010 10000000 		.4byte	.LBB14
 3179 0014 24000000 		.4byte	.LBE14
 3180 0018 00000000 		.4byte	0x0
 3181 001c 00000000 		.4byte	0x0
 3182 0020 84000000 		.4byte	.LBB17
 3183 0024 9C000000 		.4byte	.LBE17
 3184 0028 9E000000 		.4byte	.LBB20
 3185 002c A2000000 		.4byte	.LBE20
 3186 0030 00000000 		.4byte	0x0
 3187 0034 00000000 		.4byte	0x0
 3188 0038 00000000 		.4byte	.LFB55
 3189 003c 2C010000 		.4byte	.LFE55
 3190 0040 00000000 		.4byte	.LFB56
 3191 0044 64000000 		.4byte	.LFE56
 3192 0048 00000000 		.4byte	.LFB57
 3193 004c 5C000000 		.4byte	.LFE57
 3194 0050 00000000 		.4byte	.LFB58
ARM GAS  C:\DOCUME~1\z_80\LOCALS~1\Temp\cc2dyvzq.s 			page 59


 3195 0054 38000000 		.4byte	.LFE58
 3196 0058 00000000 		.4byte	.LFB59
 3197 005c 70000000 		.4byte	.LFE59
 3198 0060 00000000 		.4byte	.LFB60
 3199 0064 24000000 		.4byte	.LFE60
 3200 0068 00000000 		.4byte	0x0
 3201 006c 00000000 		.4byte	0x0
 3202              		.section	.debug_str,"MS",%progbits,1
 3203              	.LASF2:
 3204 0000 73697A65 		.ascii	"size_t\000"
 3204      5F7400
 3205              	.LASF53:
 3206 0007 7264796D 		.ascii	"rdymsg\000"
 3206      736700
 3207              	.LASF112:
 3208 000e 646D616D 		.ascii	"dmamode\000"
 3208      6F646500 
 3209              	.LASF98:
 3210 0016 61646373 		.ascii	"adcstate_t\000"
 3210      74617465 
 3210      5F7400
 3211              	.LASF89:
 3212 0021 76656374 		.ascii	"vector\000"
 3212      6F7200
 3213              	.LASF132:
 3214 0028 6164635F 		.ascii	"adc_lld_stop\000"
 3214      6C6C645F 
 3214      73746F70 
 3214      00
 3215              	.LASF140:
 3216 0035 433A5C70 		.ascii	"C:\\projects\\ipm\\soft\\firmware\\valve\000"
 3216      726F6A65 
 3216      6374735C 
 3216      69706D5C 
 3216      736F6674 
 3217              	.LASF54:
 3218 0059 65786974 		.ascii	"exitcode\000"
 3218      636F6465 
 3218      00
 3219              	.LASF92:
 3220 0062 4144435F 		.ascii	"ADC_UNINIT\000"
 3220      554E494E 
 3220      495400
 3221              	.LASF136:
 3222 006d 5F73746D 		.ascii	"_stm32_dma_streams\000"
 3222      33325F64 
 3222      6D615F73 
 3222      74726561 
 3222      6D7300
 3223              	.LASF135:
 3224 0080 49544D5F 		.ascii	"ITM_RxBuffer\000"
 3224      52784275 
 3224      66666572 
 3224      00
 3225              	.LASF15:
 3226 008d 626F6F6C 		.ascii	"bool_t\000"
 3226      5F7400
ARM GAS  C:\DOCUME~1\z_80\LOCALS~1\Temp\cc2dyvzq.s 			page 60


 3227              	.LASF26:
 3228 0094 705F7072 		.ascii	"p_prio\000"
 3228      696F00
 3229              	.LASF67:
 3230 009b 4A535152 		.ascii	"JSQR\000"
 3230      00
 3231              	.LASF12:
 3232 00a0 6C6F6E67 		.ascii	"long long int\000"
 3232      206C6F6E 
 3232      6720696E 
 3232      7400
 3233              	.LASF1:
 3234 00ae 7369676E 		.ascii	"signed char\000"
 3234      65642063 
 3234      68617200 
 3235              	.LASF32:
 3236 00ba 705F7374 		.ascii	"p_state\000"
 3236      61746500 
 3237              	.LASF42:
 3238 00c2 705F6D70 		.ascii	"p_mpool\000"
 3238      6F6F6C00 
 3239              	.LASF14:
 3240 00ca 6C6F6E67 		.ascii	"long long unsigned int\000"
 3240      206C6F6E 
 3240      6720756E 
 3240      7369676E 
 3240      65642069 
 3241              	.LASF50:
 3242 00e1 6D5F7175 		.ascii	"m_queue\000"
 3242      65756500 
 3243              	.LASF102:
 3244 00e9 61646365 		.ascii	"adcerror_t\000"
 3244      72726F72 
 3244      5F7400
 3245              	.LASF111:
 3246 00f4 646D6173 		.ascii	"dmastp\000"
 3246      747000
 3247              	.LASF104:
 3248 00fb 73746174 		.ascii	"state\000"
 3248      6500
 3249              	.LASF115:
 3250 0101 63697263 		.ascii	"circular\000"
 3250      756C6172 
 3250      00
 3251              	.LASF9:
 3252 010a 6C6F6E67 		.ascii	"long int\000"
 3252      20696E74 
 3252      00
 3253              	.LASF101:
 3254 0113 4144435F 		.ascii	"ADC_ERR_DMAFAILURE\000"
 3254      4552525F 
 3254      444D4146 
 3254      41494C55 
 3254      524500
 3255              	.LASF133:
 3256 0126 6164635F 		.ascii	"adc_lld_start_conversion\000"
 3256      6C6C645F 
ARM GAS  C:\DOCUME~1\z_80\LOCALS~1\Temp\cc2dyvzq.s 			page 61


 3256      73746172 
 3256      745F636F 
 3256      6E766572 
 3257              	.LASF114:
 3258 013f 61646365 		.ascii	"adcerrorcallback_t\000"
 3258      72726F72 
 3258      63616C6C 
 3258      6261636B 
 3258      5F7400
 3259              	.LASF17:
 3260 0152 74737461 		.ascii	"tstate_t\000"
 3260      74655F74 
 3260      00
 3261              	.LASF109:
 3262 015b 74687265 		.ascii	"thread\000"
 3262      616400
 3263              	.LASF6:
 3264 0162 75696E74 		.ascii	"uint16_t\000"
 3264      31365F74 
 3264      00
 3265              	.LASF35:
 3266 016b 705F7469 		.ascii	"p_time\000"
 3266      6D6500
 3267              	.LASF72:
 3268 0172 4144435F 		.ascii	"ADC_TypeDef\000"
 3268      54797065 
 3268      44656600 
 3269              	.LASF28:
 3270 017e 705F6E65 		.ascii	"p_newer\000"
 3270      77657200 
 3271              	.LASF117:
 3272 0186 656E645F 		.ascii	"end_cb\000"
 3272      636200
 3273              	.LASF113:
 3274 018d 61646363 		.ascii	"adccallback_t\000"
 3274      616C6C62 
 3274      61636B5F 
 3274      7400
 3275              	.LASF99:
 3276 019b 61646373 		.ascii	"adcsample_t\000"
 3276      616D706C 
 3276      655F7400 
 3277              	.LASF45:
 3278 01a7 72656761 		.ascii	"regarm_t\000"
 3278      726D5F74 
 3278      00
 3279              	.LASF88:
 3280 01b0 73656C66 		.ascii	"selfindex\000"
 3280      696E6465 
 3280      7800
 3281              	.LASF125:
 3282 01ba 64756D6D 		.ascii	"dummy\000"
 3282      7900
 3283              	.LASF23:
 3284 01c0 54687265 		.ascii	"Thread\000"
 3284      616400
 3285              	.LASF78:
ARM GAS  C:\DOCUME~1\z_80\LOCALS~1\Temp\cc2dyvzq.s 			page 62


 3286 01c7 41504232 		.ascii	"APB2RSTR\000"
 3286      52535452 
 3286      00
 3287              	.LASF95:
 3288 01d0 4144435F 		.ascii	"ADC_ACTIVE\000"
 3288      41435449 
 3288      564500
 3289              	.LASF31:
 3290 01db 705F7374 		.ascii	"p_stklimit\000"
 3290      6B6C696D 
 3290      697400
 3291              	.LASF0:
 3292 01e6 756E7369 		.ascii	"unsigned int\000"
 3292      676E6564 
 3292      20696E74 
 3292      00
 3293              	.LASF74:
 3294 01f3 43504152 		.ascii	"CPAR\000"
 3294      00
 3295              	.LASF91:
 3296 01f8 73746D33 		.ascii	"stm32_dmaisr_t\000"
 3296      325F646D 
 3296      61697372 
 3296      5F7400
 3297              	.LASF37:
 3298 0207 705F6D73 		.ascii	"p_msgqueue\000"
 3298      67717565 
 3298      756500
 3299              	.LASF103:
 3300 0212 41444344 		.ascii	"ADCDriver\000"
 3300      72697665 
 3300      7200
 3301              	.LASF84:
 3302 021c 5243435F 		.ascii	"RCC_TypeDef\000"
 3302      54797065 
 3302      44656600 
 3303              	.LASF76:
 3304 0228 444D415F 		.ascii	"DMA_Channel_TypeDef\000"
 3304      4368616E 
 3304      6E656C5F 
 3304      54797065 
 3304      44656600 
 3305              	.LASF87:
 3306 023c 69736869 		.ascii	"ishift\000"
 3306      667400
 3307              	.LASF7:
 3308 0243 73686F72 		.ascii	"short unsigned int\000"
 3308      7420756E 
 3308      7369676E 
 3308      65642069 
 3308      6E7400
 3309              	.LASF94:
 3310 0256 4144435F 		.ascii	"ADC_READY\000"
 3310      52454144 
 3310      5900
 3311              	.LASF107:
 3312 0260 64657074 		.ascii	"depth\000"
ARM GAS  C:\DOCUME~1\z_80\LOCALS~1\Temp\cc2dyvzq.s 			page 63


 3312      6800
 3313              	.LASF20:
 3314 0266 6D73675F 		.ascii	"msg_t\000"
 3314      7400
 3315              	.LASF138:
 3316 026c 474E5520 		.ascii	"GNU C 4.5.2\000"
 3316      4320342E 
 3316      352E3200 
 3317              	.LASF16:
 3318 0278 746D6F64 		.ascii	"tmode_t\000"
 3318      655F7400 
 3319              	.LASF116:
 3320 0280 6E756D5F 		.ascii	"num_channels\000"
 3320      6368616E 
 3320      6E656C73 
 3320      00
 3321              	.LASF44:
 3322 028d 54687265 		.ascii	"ThreadsList\000"
 3322      6164734C 
 3322      69737400 
 3323              	.LASF21:
 3324 0299 6576656E 		.ascii	"eventmask_t\000"
 3324      746D6173 
 3324      6B5F7400 
 3325              	.LASF5:
 3326 02a5 73686F72 		.ascii	"short int\000"
 3326      7420696E 
 3326      7400
 3327              	.LASF129:
 3328 02af 68616C66 		.ascii	"half\000"
 3328      00
 3329              	.LASF75:
 3330 02b4 434D4152 		.ascii	"CMAR\000"
 3330      00
 3331              	.LASF46:
 3332 02b9 73746B61 		.ascii	"stkalign_t\000"
 3332      6C69676E 
 3332      5F7400
 3333              	.LASF108:
 3334 02c4 67727070 		.ascii	"grpp\000"
 3334      00
 3335              	.LASF60:
 3336 02c9 4A4F4652 		.ascii	"JOFR1\000"
 3336      3100
 3337              	.LASF61:
 3338 02cf 4A4F4652 		.ascii	"JOFR2\000"
 3338      3200
 3339              	.LASF143:
 3340 02d5 6164635F 		.ascii	"adc_lld_init\000"
 3340      6C6C645F 
 3340      696E6974 
 3340      00
 3341              	.LASF106:
 3342 02e2 73616D70 		.ascii	"samples\000"
 3342      6C657300 
 3343              	.LASF139:
 3344 02ea 2E2E2F63 		.ascii	"../chibios_2.4.x/os/hal/platforms/STM32F1xx/adc_lld"
ARM GAS  C:\DOCUME~1\z_80\LOCALS~1\Temp\cc2dyvzq.s 			page 64


 3344      68696269 
 3344      6F735F32 
 3344      2E342E78 
 3344      2F6F732F 
 3345 031d 2E6300   		.ascii	".c\000"
 3346              	.LASF49:
 3347 0320 4D757465 		.ascii	"Mutex\000"
 3347      7800
 3348              	.LASF24:
 3349 0326 705F6E65 		.ascii	"p_next\000"
 3349      787400
 3350              	.LASF93:
 3351 032d 4144435F 		.ascii	"ADC_STOP\000"
 3351      53544F50 
 3351      00
 3352              	.LASF13:
 3353 0336 75696E74 		.ascii	"uint64_t\000"
 3353      36345F74 
 3353      00
 3354              	.LASF29:
 3355 033f 705F6F6C 		.ascii	"p_older\000"
 3355      64657200 
 3356              	.LASF43:
 3357 0347 54687265 		.ascii	"ThreadsQueue\000"
 3357      61647351 
 3357      75657565 
 3357      00
 3358              	.LASF58:
 3359 0354 534D5052 		.ascii	"SMPR1\000"
 3359      3100
 3360              	.LASF59:
 3361 035a 534D5052 		.ascii	"SMPR2\000"
 3361      3200
 3362              	.LASF52:
 3363 0360 6D5F6E65 		.ascii	"m_next\000"
 3363      787400
 3364              	.LASF79:
 3365 0367 41504231 		.ascii	"APB1RSTR\000"
 3365      52535452 
 3365      00
 3366              	.LASF64:
 3367 0370 53515231 		.ascii	"SQR1\000"
 3367      00
 3368              	.LASF65:
 3369 0375 53515232 		.ascii	"SQR2\000"
 3369      00
 3370              	.LASF66:
 3371 037a 53515233 		.ascii	"SQR3\000"
 3371      00
 3372              	.LASF18:
 3373 037f 74726566 		.ascii	"trefs_t\000"
 3373      735F7400 
 3374              	.LASF25:
 3375 0387 705F7072 		.ascii	"p_prev\000"
 3375      657600
 3376              	.LASF90:
 3377 038e 73746D33 		.ascii	"stm32_dma_stream_t\000"
ARM GAS  C:\DOCUME~1\z_80\LOCALS~1\Temp\cc2dyvzq.s 			page 65


 3377      325F646D 
 3377      615F7374 
 3377      7265616D 
 3377      5F7400
 3378              	.LASF19:
 3379 03a1 74707269 		.ascii	"tprio_t\000"
 3379      6F5F7400 
 3380              	.LASF110:
 3381 03a9 6D757465 		.ascii	"mutex\000"
 3381      7800
 3382              	.LASF8:
 3383 03af 696E7433 		.ascii	"int32_t\000"
 3383      325F7400 
 3384              	.LASF4:
 3385 03b7 756E7369 		.ascii	"unsigned char\000"
 3385      676E6564 
 3385      20636861 
 3385      7200
 3386              	.LASF142:
 3387 03c5 6164635F 		.ascii	"adc_lld_serve_rx_interrupt\000"
 3387      6C6C645F 
 3387      73657276 
 3387      655F7278 
 3387      5F696E74 
 3388              	.LASF40:
 3389 03e0 705F6D74 		.ascii	"p_mtxlist\000"
 3389      786C6973 
 3389      7400
 3390              	.LASF141:
 3391 03ea 6164635F 		.ascii	"adc_lld_stop_conversion\000"
 3391      6C6C645F 
 3391      73746F70 
 3391      5F636F6E 
 3391      76657273 
 3392              	.LASF118:
 3393 0402 6572726F 		.ascii	"error_cb\000"
 3393      725F6362 
 3393      00
 3394              	.LASF56:
 3395 040b 65776D61 		.ascii	"ewmask\000"
 3395      736B00
 3396              	.LASF33:
 3397 0412 705F666C 		.ascii	"p_flags\000"
 3397      61677300 
 3398              	.LASF62:
 3399 041a 4A4F4652 		.ascii	"JOFR3\000"
 3399      3300
 3400              	.LASF63:
 3401 0420 4A4F4652 		.ascii	"JOFR4\000"
 3401      3400
 3402              	.LASF81:
 3403 0426 41504232 		.ascii	"APB2ENR\000"
 3403      454E5200 
 3404              	.LASF85:
 3405 042e 6368616E 		.ascii	"channel\000"
 3405      6E656C00 
 3406              	.LASF39:
ARM GAS  C:\DOCUME~1\z_80\LOCALS~1\Temp\cc2dyvzq.s 			page 66


 3407 0436 705F6570 		.ascii	"p_epending\000"
 3407      656E6469 
 3407      6E6700
 3408              	.LASF86:
 3409 0441 69666372 		.ascii	"ifcr\000"
 3409      00
 3410              	.LASF10:
 3411 0446 75696E74 		.ascii	"uint32_t\000"
 3411      33325F74 
 3411      00
 3412              	.LASF137:
 3413 044f 41444344 		.ascii	"ADCD1\000"
 3413      3100
 3414              	.LASF126:
 3415 0455 41444343 		.ascii	"ADCConfig\000"
 3415      6F6E6669 
 3415      6700
 3416              	.LASF119:
 3417 045f 736D7072 		.ascii	"smpr1\000"
 3417      3100
 3418              	.LASF11:
 3419 0465 6C6F6E67 		.ascii	"long unsigned int\000"
 3419      20756E73 
 3419      69676E65 
 3419      6420696E 
 3419      7400
 3420              	.LASF120:
 3421 0477 736D7072 		.ascii	"smpr2\000"
 3421      3200
 3422              	.LASF57:
 3423 047d 63686172 		.ascii	"char\000"
 3423      00
 3424              	.LASF134:
 3425 0482 6D6F6465 		.ascii	"mode\000"
 3425      00
 3426              	.LASF105:
 3427 0487 636F6E66 		.ascii	"config\000"
 3427      696700
 3428              	.LASF121:
 3429 048e 73717231 		.ascii	"sqr1\000"
 3429      00
 3430              	.LASF122:
 3431 0493 73717232 		.ascii	"sqr2\000"
 3431      00
 3432              	.LASF123:
 3433 0498 73717233 		.ascii	"sqr3\000"
 3433      00
 3434              	.LASF22:
 3435 049d 73797374 		.ascii	"systime_t\000"
 3435      696D655F 
 3435      7400
 3436              	.LASF41:
 3437 04a7 705F7265 		.ascii	"p_realprio\000"
 3437      616C7072 
 3437      696F00
 3438              	.LASF82:
 3439 04b2 41504231 		.ascii	"APB1ENR\000"
ARM GAS  C:\DOCUME~1\z_80\LOCALS~1\Temp\cc2dyvzq.s 			page 67


 3439      454E5200 
 3440              	.LASF48:
 3441 04ba 636F6E74 		.ascii	"context\000"
 3441      65787400 
 3442              	.LASF47:
 3443 04c2 696E7463 		.ascii	"intctx\000"
 3443      747800
 3444              	.LASF131:
 3445 04c9 6164635F 		.ascii	"adc_lld_start\000"
 3445      6C6C645F 
 3445      73746172 
 3445      7400
 3446              	.LASF97:
 3447 04d7 4144435F 		.ascii	"ADC_ERROR\000"
 3447      4552524F 
 3447      5200
 3448              	.LASF34:
 3449 04e1 705F7265 		.ascii	"p_refs\000"
 3449      667300
 3450              	.LASF73:
 3451 04e8 434E4454 		.ascii	"CNDTR\000"
 3451      5200
 3452              	.LASF83:
 3453 04ee 42444352 		.ascii	"BDCR\000"
 3453      00
 3454              	.LASF3:
 3455 04f3 75696E74 		.ascii	"uint8_t\000"
 3455      385F7400 
 3456              	.LASF124:
 3457 04fb 41444343 		.ascii	"ADCConversionGroup\000"
 3457      6F6E7665 
 3457      7273696F 
 3457      6E47726F 
 3457      757000
 3458              	.LASF128:
 3459 050e 666C6167 		.ascii	"flags\000"
 3459      7300
 3460              	.LASF68:
 3461 0514 4A445231 		.ascii	"JDR1\000"
 3461      00
 3462              	.LASF69:
 3463 0519 4A445232 		.ascii	"JDR2\000"
 3463      00
 3464              	.LASF70:
 3465 051e 4A445233 		.ascii	"JDR3\000"
 3465      00
 3466              	.LASF71:
 3467 0523 4A445234 		.ascii	"JDR4\000"
 3467      00
 3468              	.LASF55:
 3469 0528 77746F62 		.ascii	"wtobjp\000"
 3469      6A7000
 3470              	.LASF96:
 3471 052f 4144435F 		.ascii	"ADC_COMPLETE\000"
 3471      434F4D50 
 3471      4C455445 
 3471      00
ARM GAS  C:\DOCUME~1\z_80\LOCALS~1\Temp\cc2dyvzq.s 			page 68


 3472              	.LASF30:
 3473 053c 705F6E61 		.ascii	"p_name\000"
 3473      6D6500
 3474              	.LASF100:
 3475 0543 6164635F 		.ascii	"adc_channels_num_t\000"
 3475      6368616E 
 3475      6E656C73 
 3475      5F6E756D 
 3475      5F7400
 3476              	.LASF77:
 3477 0556 43464752 		.ascii	"CFGR\000"
 3477      00
 3478              	.LASF38:
 3479 055b 705F6D73 		.ascii	"p_msg\000"
 3479      6700
 3480              	.LASF127:
 3481 0561 61646370 		.ascii	"adcp\000"
 3481      00
 3482              	.LASF51:
 3483 0566 6D5F6F77 		.ascii	"m_owner\000"
 3483      6E657200 
 3484              	.LASF130:
 3485 056e 68616C66 		.ascii	"half_index\000"
 3485      5F696E64 
 3485      657800
 3486              	.LASF27:
 3487 0579 705F6374 		.ascii	"p_ctx\000"
 3487      7800
 3488              	.LASF36:
 3489 057f 705F7761 		.ascii	"p_waiting\000"
 3489      6974696E 
 3489      6700
 3490              	.LASF80:
 3491 0589 41484245 		.ascii	"AHBENR\000"
 3491      4E5200
 3492              		.ident	"GCC: (Sourcery G++ Lite 2011.03-42) 4.5.2"
ARM GAS  C:\DOCUME~1\z_80\LOCALS~1\Temp\cc2dyvzq.s 			page 69


DEFINED SYMBOLS
                            *ABS*:00000000 adc_lld.c
C:\DOCUME~1\z_80\LOCALS~1\Temp\cc2dyvzq.s:24     .text.adc_lld_serve_rx_interrupt:00000000 $t
C:\DOCUME~1\z_80\LOCALS~1\Temp\cc2dyvzq.s:29     .text.adc_lld_serve_rx_interrupt:00000000 adc_lld_serve_rx_interrupt
C:\DOCUME~1\z_80\LOCALS~1\Temp\cc2dyvzq.s:294    .text.adc_lld_init:00000000 $t
C:\DOCUME~1\z_80\LOCALS~1\Temp\cc2dyvzq.s:300    .text.adc_lld_init:00000000 adc_lld_init
C:\DOCUME~1\z_80\LOCALS~1\Temp\cc2dyvzq.s:374    .text.adc_lld_init:00000054 $d
C:\DOCUME~1\z_80\LOCALS~1\Temp\cc2dyvzq.s:382    .text.adc_lld_start:00000000 $t
C:\DOCUME~1\z_80\LOCALS~1\Temp\cc2dyvzq.s:388    .text.adc_lld_start:00000000 adc_lld_start
C:\DOCUME~1\z_80\LOCALS~1\Temp\cc2dyvzq.s:460    .text.adc_lld_start:00000048 $d
C:\DOCUME~1\z_80\LOCALS~1\Temp\cc2dyvzq.s:470    .text.adc_lld_stop:00000000 $t
C:\DOCUME~1\z_80\LOCALS~1\Temp\cc2dyvzq.s:476    .text.adc_lld_stop:00000000 adc_lld_stop
C:\DOCUME~1\z_80\LOCALS~1\Temp\cc2dyvzq.s:522    .text.adc_lld_stop:0000002c $d
C:\DOCUME~1\z_80\LOCALS~1\Temp\cc2dyvzq.s:529    .text.adc_lld_start_conversion:00000000 $t
C:\DOCUME~1\z_80\LOCALS~1\Temp\cc2dyvzq.s:535    .text.adc_lld_start_conversion:00000000 adc_lld_start_conversion
C:\DOCUME~1\z_80\LOCALS~1\Temp\cc2dyvzq.s:645    .text.adc_lld_stop_conversion:00000000 $t
C:\DOCUME~1\z_80\LOCALS~1\Temp\cc2dyvzq.s:651    .text.adc_lld_stop_conversion:00000000 adc_lld_stop_conversion
C:\DOCUME~1\z_80\LOCALS~1\Temp\cc2dyvzq.s:698    .bss.ADCD1:00000000 ADCD1
C:\DOCUME~1\z_80\LOCALS~1\Temp\cc2dyvzq.s:694    .bss.ADCD1:00000000 $d
C:\DOCUME~1\z_80\LOCALS~1\Temp\cc2dyvzq.s:701    .rodata.str1.4:00000000 $d
                     .debug_frame:00000010 $d
C:\DOCUME~1\z_80\LOCALS~1\Temp\cc2dyvzq.s:381    .text.adc_lld_init:00000064 $t
C:\DOCUME~1\z_80\LOCALS~1\Temp\cc2dyvzq.s:469    .text.adc_lld_start:0000005c $t
C:\DOCUME~1\z_80\LOCALS~1\Temp\cc2dyvzq.s:528    .text.adc_lld_stop:00000038 $t

UNDEFINED SYMBOLS
_port_lock
dbg_check_lock_from_isr
chSchReadyI
dbg_check_unlock_from_isr
_port_unlock
adcObjectInit
_stm32_dma_streams
dmaStreamAllocate
chDbgPanic
dmaStreamRelease
