ARM GAS  C:\DOCUME~1\z_80\LOCALS~1\Temp\cc2dyvzq.s 			page 1


   1              		.syntax unified
   2              		.cpu cortex-m3
   3              		.fpu softvfp
   4              		.eabi_attribute 20, 1
   5              		.eabi_attribute 21, 1
   6              		.eabi_attribute 23, 3
   7              		.eabi_attribute 24, 1
   8              		.eabi_attribute 25, 1
   9              		.eabi_attribute 26, 1
  10              		.eabi_attribute 30, 2
  11              		.eabi_attribute 18, 4
  12              		.thumb
  13              		.file	"adc_lld.c"
  20 0000 C9030000 		.text
  20      02004802 
  20      00000201 
  20      FB0E0D00 
  20      01010101 
  21              	.Ltext0:
  22              		.cfi_sections	.debug_frame
  23              		.section	.text.adc_lld_serve_rx_interrupt,"ax",%progbits
  24              		.align	2
  25              		.p2align 4,,15
  26              		.thumb
  27              		.thumb_func
  28              		.type	adc_lld_serve_rx_interrupt, %function
  29              	adc_lld_serve_rx_interrupt:
  30              	.LFB55:
  31              		.file 1 "../chibios_2.4.x/os/hal/platforms/STM32F1xx/adc_lld.c"
  32              		.loc 1 64 0
  33              		.cfi_startproc
  34              		@ args = 0, pretend = 0, frame = 0
  35              		@ frame_needed = 0, uses_anonymous_args = 0
  36              	.LVL0:
  37              		.loc 1 67 0
  38 0000 11F0080F 		tst	r1, #8
  39              		.loc 1 64 0
  40 0004 F8B5     		push	{r3, r4, r5, r6, r7, lr}
  41              	.LCFI0:
  42              		.cfi_def_cfa_offset 24
  43              		.loc 1 64 0
  44 0006 0D46     		mov	r5, r1
  45              		.cfi_offset 14, -4
  46              		.cfi_offset 7, -8
  47              		.cfi_offset 6, -12
  48              		.cfi_offset 5, -16
  49              		.cfi_offset 4, -20
  50              		.cfi_offset 3, -24
  51 0008 0446     		mov	r4, r0
  52              		.loc 1 67 0
  53 000a 2AD0     		beq	.L2
ARM GAS  C:\DOCUME~1\z_80\LOCALS~1\Temp\cc2dyvzq.s 			page 2


  54              	.LVL1:
  55              	.LBB10:
  56              	.LBB12:
  57              		.loc 1 233 0
  58 000c C36A     		ldr	r3, [r0, #44]
  59              	.LBE12:
  60              	.LBE10:
  61              		.loc 1 70 0
  62 000e 0169     		ldr	r1, [r0, #16]
  63              	.LVL2:
  64              	.LBB14:
  65              	.LBB11:
  66              		.loc 1 233 0
  67 0010 1A68     		ldr	r2, [r3, #0]
  68 0012 5D68     		ldr	r5, [r3, #4]
  69              	.LVL3:
  70 0014 1668     		ldr	r6, [r2, #0]
  71 0016 26F00106 		bic	r6, r6, #1
  72 001a 1660     		str	r6, [r2, #0]
  73 001c 1B7A     		ldrb	r3, [r3, #8]	@ zero_extendqisi2
  74 001e 0F26     		movs	r6, #15
  75 0020 9E40     		lsls	r6, r6, r3
  76              		.loc 1 234 0
  77 0022 826A     		ldr	r2, [r0, #40]
  78              	.LBE11:
  79              	.LBE14:
  80              		.loc 1 70 0
  81 0024 CB68     		ldr	r3, [r1, #12]
  82              	.LBB15:
  83              	.LBB13:
  84              		.loc 1 234 0
  85 0026 0021     		movs	r1, #0
  86              		.loc 1 233 0
  87 0028 2E60     		str	r6, [r5, #0]
  88              		.loc 1 234 0
  89 002a 9160     		str	r1, [r2, #8]
  90              	.LBE13:
  91              	.LBE15:
  92              		.loc 1 70 0
  93 002c 2BB1     		cbz	r3, .L3
  94              		.loc 1 70 0 is_stmt 0 discriminator 1
  95 002e 0525     		movs	r5, #5
  96 0030 0570     		strb	r5, [r0, #0]
  97 0032 9847     		blx	r3
  98              	.LVL4:
  99 0034 2078     		ldrb	r0, [r4, #0]	@ zero_extendqisi2
 100 0036 0528     		cmp	r0, #5
 101 0038 6AD0     		beq	.L15
 102              	.L3:
 103              		.loc 1 70 0 discriminator 2
 104 003a 0025     		movs	r5, #0
 105 003c 2561     		str	r5, [r4, #16]
 106              	@ 70 "../chibios_2.4.x/os/hal/platforms/STM32F1xx/adc_lld.c" 1
 107 003e FFF7FEFF 		bl      _port_lock
 108              	@ 0 "" 2
 109              		.thumb
 110 0042 FFF7FEFF 		bl	dbg_check_lock_from_isr
ARM GAS  C:\DOCUME~1\z_80\LOCALS~1\Temp\cc2dyvzq.s 			page 3


 111 0046 6369     		ldr	r3, [r4, #20]
 112 0048 33B1     		cbz	r3, .L4
 113              	.LVL5:
 114              	.LBB16:
 115              		.loc 1 70 0 discriminator 4
 116 004a 4FF0FF32 		mov	r2, #-1
 117 004e 6561     		str	r5, [r4, #20]
 118 0050 1846     		mov	r0, r3
 119 0052 9A62     		str	r2, [r3, #40]
 120 0054 FFF7FEFF 		bl	chSchReadyI
 121              	.LVL6:
 122              	.L4:
 123              	.LBE16:
 124              		.loc 1 70 0 discriminator 5
 125 0058 FFF7FEFF 		bl	dbg_check_unlock_from_isr
 126              	@ 70 "../chibios_2.4.x/os/hal/platforms/STM32F1xx/adc_lld.c" 1
 127 005c FFF7FEFF 		bl      _port_unlock
 128              	@ 0 "" 2
 129              		.thumb
 130 0060 F8BD     		pop	{r3, r4, r5, r6, r7, pc}
 131              	.LVL7:
 132              	.L2:
 133              		.loc 1 73 0 is_stmt 1
 134 0062 11F0040F 		tst	r1, #4
 135 0066 06D0     		beq	.L6
 136              		.loc 1 75 0
 137 0068 0369     		ldr	r3, [r0, #16]
 138 006a 9B68     		ldr	r3, [r3, #8]
 139 006c 1BB1     		cbz	r3, .L6
 140              		.loc 1 75 0 is_stmt 0 discriminator 1
 141 006e C268     		ldr	r2, [r0, #12]
 142 0070 8168     		ldr	r1, [r0, #8]
 143              	.LVL8:
 144 0072 5208     		lsrs	r2, r2, #1
 145 0074 9847     		blx	r3
 146              	.L6:
 147              		.loc 1 77 0 is_stmt 1
 148 0076 15F0020F 		tst	r5, #2
 149 007a 37D0     		beq	.L1
 150              		.loc 1 79 0
 151 007c 2169     		ldr	r1, [r4, #16]
 152 007e 0A68     		ldr	r2, [r1, #0]
 153 0080 002A     		cmp	r2, #0
 154 0082 34D1     		bne	.L16
 155              	.LVL9:
 156              	.LBB17:
 157              	.LBB18:
 158              		.loc 1 233 0
 159 0084 E36A     		ldr	r3, [r4, #44]
 160              		.loc 1 234 0
 161 0086 A56A     		ldr	r5, [r4, #40]
 162              	.LVL10:
 163              		.loc 1 233 0
 164 0088 1868     		ldr	r0, [r3, #0]
 165 008a 5E68     		ldr	r6, [r3, #4]
 166 008c 0768     		ldr	r7, [r0, #0]
 167 008e 27F00107 		bic	r7, r7, #1
ARM GAS  C:\DOCUME~1\z_80\LOCALS~1\Temp\cc2dyvzq.s 			page 4


 168 0092 0760     		str	r7, [r0, #0]
 169 0094 187A     		ldrb	r0, [r3, #8]	@ zero_extendqisi2
 170 0096 0F27     		movs	r7, #15
 171 0098 17FA00F0 		lsls	r0, r7, r0
 172              	.LBE18:
 173              	.LBE17:
 174              		.loc 1 79 0
 175 009c 8B68     		ldr	r3, [r1, #8]
 176              	.LBB20:
 177              	.LBB19:
 178              		.loc 1 233 0
 179 009e 3060     		str	r0, [r6, #0]
 180              		.loc 1 234 0
 181 00a0 AA60     		str	r2, [r5, #8]
 182              	.LBE19:
 183              	.LBE20:
 184              		.loc 1 79 0
 185 00a2 002B     		cmp	r3, #0
 186 00a4 37D0     		beq	.L9
 187              		.loc 1 79 0 is_stmt 0 discriminator 6
 188 00a6 E268     		ldr	r2, [r4, #12]
 189 00a8 0425     		movs	r5, #4
 190 00aa 012A     		cmp	r2, #1
 191 00ac 2570     		strb	r5, [r4, #0]
 192 00ae 39D9     		bls	.L10
 193              	.LBB21:
 194              		.loc 1 79 0 discriminator 8
 195 00b0 B1F804C0 		ldrh	ip, [r1, #4]
 196 00b4 5208     		lsrs	r2, r2, #1
 197              	.LVL11:
 198 00b6 0CFB02FE 		mul	lr, ip, r2
 199 00ba A168     		ldr	r1, [r4, #8]
 200 00bc 2046     		mov	r0, r4
 201 00be 01EB4E01 		add	r1, r1, lr, lsl #1
 202 00c2 9847     		blx	r3
 203              	.LVL12:
 204              	.L11:
 205              	.LBE21:
 206              		.loc 1 79 0 discriminator 10
 207 00c4 2278     		ldrb	r2, [r4, #0]	@ zero_extendqisi2
 208 00c6 042A     		cmp	r2, #4
 209 00c8 25D0     		beq	.L9
 210              	.L12:
 211              		.loc 1 79 0 discriminator 12
 212 00ca 0025     		movs	r5, #0
 213 00cc 2561     		str	r5, [r4, #16]
 214              	@ 79 "../chibios_2.4.x/os/hal/platforms/STM32F1xx/adc_lld.c" 1
 215 00ce FFF7FEFF 		bl      _port_lock
 216              	@ 0 "" 2
 217              		.thumb
 218 00d2 FFF7FEFF 		bl	dbg_check_lock_from_isr
 219 00d6 6369     		ldr	r3, [r4, #20]
 220 00d8 23B1     		cbz	r3, .L13
 221              	.LVL13:
 222              	.LBB22:
 223              		.loc 1 79 0 discriminator 13
 224 00da 6561     		str	r5, [r4, #20]
ARM GAS  C:\DOCUME~1\z_80\LOCALS~1\Temp\cc2dyvzq.s 			page 5


 225 00dc 1846     		mov	r0, r3
 226 00de 9D62     		str	r5, [r3, #40]
 227 00e0 FFF7FEFF 		bl	chSchReadyI
 228              	.LVL14:
 229              	.L13:
 230              	.LBE22:
 231              		.loc 1 79 0 discriminator 14
 232 00e4 FFF7FEFF 		bl	dbg_check_unlock_from_isr
 233              	@ 79 "../chibios_2.4.x/os/hal/platforms/STM32F1xx/adc_lld.c" 1
 234 00e8 FFF7FEFF 		bl      _port_unlock
 235              	@ 0 "" 2
 236              	.LVL15:
 237              		.thumb
 238              	.L1:
 239 00ec F8BD     		pop	{r3, r4, r5, r6, r7, pc}
 240              	.LVL16:
 241              	.L16:
 242              		.loc 1 79 0 discriminator 1
 243 00ee 8B68     		ldr	r3, [r1, #8]
 244 00f0 002B     		cmp	r3, #0
 245 00f2 FBD0     		beq	.L1
 246              		.loc 1 79 0 discriminator 3
 247 00f4 E268     		ldr	r2, [r4, #12]
 248 00f6 012A     		cmp	r2, #1
 249 00f8 10D9     		bls	.L8
 250              	.LBB23:
 251              		.loc 1 79 0 discriminator 4
 252 00fa B1F804C0 		ldrh	ip, [r1, #4]
 253 00fe 5208     		lsrs	r2, r2, #1
 254              	.LVL17:
 255 0100 0CFB02F5 		mul	r5, ip, r2
 256              	.LVL18:
 257 0104 A168     		ldr	r1, [r4, #8]
 258 0106 2046     		mov	r0, r4
 259 0108 01EB4501 		add	r1, r1, r5, lsl #1
 260 010c 9847     		blx	r3
 261              	.LVL19:
 262 010e F8BD     		pop	{r3, r4, r5, r6, r7, pc}
 263              	.LVL20:
 264              	.L15:
 265              	.LBE23:
 266              		.loc 1 70 0 is_stmt 1 discriminator 3
 267 0110 0221     		movs	r1, #2
 268 0112 2170     		strb	r1, [r4, #0]
 269 0114 91E7     		b	.L3
 270              	.LVL21:
 271              	.L9:
 272              		.loc 1 79 0 discriminator 7
 273 0116 0223     		movs	r3, #2
 274 0118 2370     		strb	r3, [r4, #0]
 275 011a D6E7     		b	.L12
 276              	.LVL22:
 277              	.L8:
 278              		.loc 1 79 0 is_stmt 0 discriminator 5
 279 011c 2046     		mov	r0, r4
 280 011e A168     		ldr	r1, [r4, #8]
 281 0120 9847     		blx	r3
ARM GAS  C:\DOCUME~1\z_80\LOCALS~1\Temp\cc2dyvzq.s 			page 6


 282 0122 F8BD     		pop	{r3, r4, r5, r6, r7, pc}
 283              	.LVL23:
 284              	.L10:
 285              		.loc 1 79 0 discriminator 9
 286 0124 2046     		mov	r0, r4
 287 0126 A168     		ldr	r1, [r4, #8]
 288 0128 9847     		blx	r3
 289 012a CBE7     		b	.L11
 290              		.cfi_endproc
 291              	.LFE55:
 292              		.size	adc_lld_serve_rx_interrupt, .-adc_lld_serve_rx_interrupt
 293 012c AFF30080 		.section	.text.adc_lld_init,"ax",%progbits
 294              		.align	2
 295              		.p2align 4,,15
 296              		.global	adc_lld_init
 297              		.thumb
 298              		.thumb_func
 299              		.type	adc_lld_init, %function
 300              	adc_lld_init:
 301              	.LFB56:
 302              		.loc 1 97 0 is_stmt 1
 303              		.cfi_startproc
 304              		@ args = 0, pretend = 0, frame = 0
 305              		@ frame_needed = 0, uses_anonymous_args = 0
 306 0000 10B5     		push	{r4, lr}
 307              	.LCFI1:
 308              		.cfi_def_cfa_offset 8
 309              		.loc 1 101 0
 310 0002 144C     		ldr	r4, .L22
 311              		.cfi_offset 14, -4
 312              		.cfi_offset 4, -8
 313 0004 2046     		mov	r0, r4
 314 0006 FFF7FEFF 		bl	adcObjectInit
 315              		.loc 1 110 0
 316 000a 134B     		ldr	r3, .L22+4
 317              		.loc 1 102 0
 318 000c 1349     		ldr	r1, .L22+8
 319              		.loc 1 110 0
 320 000e 9869     		ldr	r0, [r3, #24]
 321 0010 40F40072 		orr	r2, r0, #512
 322 0014 9A61     		str	r2, [r3, #24]
 323              		.loc 1 103 0
 324 0016 124B     		ldr	r3, .L22+12
 325              		.loc 1 111 0
 326 0018 0020     		movs	r0, #0
 327              		.loc 1 102 0
 328 001a A162     		str	r1, [r4, #40]
 329              		.loc 1 112 0
 330 001c 0122     		movs	r2, #1
 331              		.loc 1 111 0
 332 001e 4860     		str	r0, [r1, #4]
 333              		.loc 1 103 0
 334 0020 E362     		str	r3, [r4, #44]
 335              		.loc 1 104 0
 336 0022 42F28A50 		movw	r0, #9610
 337              		.loc 1 115 0
 338 0026 0923     		movs	r3, #9
ARM GAS  C:\DOCUME~1\z_80\LOCALS~1\Temp\cc2dyvzq.s 			page 7


 339              		.loc 1 112 0
 340 0028 8A60     		str	r2, [r1, #8]
 341              		.loc 1 104 0
 342 002a 2063     		str	r0, [r4, #48]
 343              		.loc 1 115 0
 344 002c 8B60     		str	r3, [r1, #8]
 345              	.L18:
 346              		.loc 1 116 0 discriminator 1
 347 002e 8B68     		ldr	r3, [r1, #8]
 348 0030 0A4A     		ldr	r2, .L22+8
 349 0032 13F0080F 		tst	r3, #8
 350 0036 FAD1     		bne	.L18
 351              		.loc 1 120 0
 352 0038 0521     		movs	r1, #5
 353 003a 9160     		str	r1, [r2, #8]
 354              	.L19:
 355              		.loc 1 121 0 discriminator 1
 356 003c 9068     		ldr	r0, [r2, #8]
 357 003e 10F00403 		ands	r3, r0, #4
 358 0042 FBD1     		bne	.L19
 359              		.loc 1 125 0
 360 0044 0548     		ldr	r0, .L22+8
 361              		.loc 1 126 0
 362 0046 044A     		ldr	r2, .L22+4
 363              		.loc 1 125 0
 364 0048 8360     		str	r3, [r0, #8]
 365              		.loc 1 126 0
 366 004a 9169     		ldr	r1, [r2, #24]
 367 004c 21F40073 		bic	r3, r1, #512
 368 0050 9361     		str	r3, [r2, #24]
 369              		.loc 1 128 0
 370 0052 10BD     		pop	{r4, pc}
 371              	.L23:
 372              		.align	2
 373              	.L22:
 374 0054 00000000 		.word	.LANCHOR0
 375 0058 00100240 		.word	1073876992
 376 005c 00240140 		.word	1073816576
 377 0060 00000000 		.word	_stm32_dma_streams
 378              		.cfi_endproc
 379              	.LFE56:
 380              		.size	adc_lld_init, .-adc_lld_init
 381 0064 AFF30080 		.section	.text.adc_lld_start,"ax",%progbits
 381      AFF30080 
 381      AFF30080 
 382              		.align	2
 383              		.p2align 4,,15
 384              		.global	adc_lld_start
 385              		.thumb
 386              		.thumb_func
 387              		.type	adc_lld_start, %function
 388              	adc_lld_start:
 389              	.LFB57:
 390              		.loc 1 137 0
 391              		.cfi_startproc
 392              		@ args = 0, pretend = 0, frame = 0
 393              		@ frame_needed = 0, uses_anonymous_args = 0
ARM GAS  C:\DOCUME~1\z_80\LOCALS~1\Temp\cc2dyvzq.s 			page 8


 394              	.LVL24:
 395 0000 38B5     		push	{r3, r4, r5, lr}
 396              	.LCFI2:
 397              		.cfi_def_cfa_offset 16
 398              		.loc 1 140 0
 399 0002 0378     		ldrb	r3, [r0, #0]	@ zero_extendqisi2
 400              		.cfi_offset 14, -4
 401              		.cfi_offset 5, -8
 402              		.cfi_offset 4, -12
 403              		.cfi_offset 3, -16
 404              		.loc 1 137 0
 405 0004 0446     		mov	r4, r0
 406              		.loc 1 140 0
 407 0006 012B     		cmp	r3, #1
 408 0008 00D0     		beq	.L28
 409 000a 38BD     		pop	{r3, r4, r5, pc}
 410              	.L28:
 411              		.loc 1 142 0
 412 000c 0E4D     		ldr	r5, .L31
 413 000e A842     		cmp	r0, r5
 414 0010 04D0     		beq	.L29
 415              	.LVL25:
 416              	.L26:
 417              		.loc 1 156 0
 418 0012 A36A     		ldr	r3, [r4, #40]
 419 0014 0021     		movs	r1, #0
 420 0016 5960     		str	r1, [r3, #4]
 421              		.loc 1 157 0
 422 0018 9960     		str	r1, [r3, #8]
 423 001a 38BD     		pop	{r3, r4, r5, pc}
 424              	.L29:
 425              	.LBB24:
 426              		.loc 1 144 0
 427 001c C06A     		ldr	r0, [r0, #44]
 428 001e 0521     		movs	r1, #5
 429 0020 0A4A     		ldr	r2, .L31+4
 430 0022 2346     		mov	r3, r4
 431 0024 FFF7FEFF 		bl	dmaStreamAllocate
 432              	.LVL26:
 433              		.loc 1 148 0
 434 0028 48B9     		cbnz	r0, .L30
 435              	.LVL27:
 436              	.L27:
 437              		.loc 1 149 0
 438 002a E86A     		ldr	r0, [r5, #44]
 439 002c 084B     		ldr	r3, .L31+8
 440 002e 0268     		ldr	r2, [r0, #0]
 441              		.loc 1 150 0
 442 0030 0848     		ldr	r0, .L31+12
 443              		.loc 1 149 0
 444 0032 9360     		str	r3, [r2, #8]
 445              		.loc 1 150 0
 446 0034 8169     		ldr	r1, [r0, #24]
 447 0036 41F40072 		orr	r2, r1, #512
 448 003a 8261     		str	r2, [r0, #24]
 449 003c E9E7     		b	.L26
 450              	.LVL28:
ARM GAS  C:\DOCUME~1\z_80\LOCALS~1\Temp\cc2dyvzq.s 			page 9


 451              	.L30:
 452              		.loc 1 148 0 discriminator 1
 453 003e 0648     		ldr	r0, .L31+16
 454              	.LVL29:
 455 0040 FFF7FEFF 		bl	chDbgPanic
 456 0044 F1E7     		b	.L27
 457              	.L32:
 458 0046 00BF     		.align	2
 459              	.L31:
 460 0048 00000000 		.word	.LANCHOR0
 461 004c 00000000 		.word	adc_lld_serve_rx_interrupt
 462 0050 4C240140 		.word	1073816652
 463 0054 00100240 		.word	1073876992
 464 0058 00000000 		.word	.LC0
 465              	.LBE24:
 466              		.cfi_endproc
 467              	.LFE57:
 468              		.size	adc_lld_start, .-adc_lld_start
 469 005c AFF30080 		.section	.text.adc_lld_stop,"ax",%progbits
 470              		.align	2
 471              		.p2align 4,,15
 472              		.global	adc_lld_stop
 473              		.thumb
 474              		.thumb_func
 475              		.type	adc_lld_stop, %function
 476              	adc_lld_stop:
 477              	.LFB58:
 478              		.loc 1 168 0
 479              		.cfi_startproc
 480              		@ args = 0, pretend = 0, frame = 0
 481              		@ frame_needed = 0, uses_anonymous_args = 0
 482              	.LVL30:
 483 0000 08B5     		push	{r3, lr}
 484              	.LCFI3:
 485              		.cfi_def_cfa_offset 8
 486              		.loc 1 171 0
 487 0002 0378     		ldrb	r3, [r0, #0]	@ zero_extendqisi2
 488              		.cfi_offset 14, -4
 489              		.cfi_offset 3, -8
 490 0004 022B     		cmp	r3, #2
 491 0006 00D0     		beq	.L35
 492              	.LVL31:
 493              	.L33:
 494 0008 08BD     		pop	{r3, pc}
 495              	.LVL32:
 496              	.L35:
 497              		.loc 1 173 0
 498 000a 0849     		ldr	r1, .L36
 499 000c 8842     		cmp	r0, r1
 500 000e FBD1     		bne	.L33
 501              		.loc 1 174 0
 502 0010 074A     		ldr	r2, .L36+4
 503 0012 0021     		movs	r1, #0
 504              		.loc 1 176 0
 505 0014 C06A     		ldr	r0, [r0, #44]
 506              	.LVL33:
 507              		.loc 1 174 0
ARM GAS  C:\DOCUME~1\z_80\LOCALS~1\Temp\cc2dyvzq.s 			page 10


 508 0016 5160     		str	r1, [r2, #4]
 509              		.loc 1 175 0
 510 0018 9160     		str	r1, [r2, #8]
 511              		.loc 1 176 0
 512 001a FFF7FEFF 		bl	dmaStreamRelease
 513              		.loc 1 177 0
 514 001e 0548     		ldr	r0, .L36+8
 515 0020 8369     		ldr	r3, [r0, #24]
 516 0022 23F40072 		bic	r2, r3, #512
 517 0026 8261     		str	r2, [r0, #24]
 518 0028 EEE7     		b	.L33
 519              	.L37:
 520 002a 00BF     		.align	2
 521              	.L36:
 522 002c 00000000 		.word	.LANCHOR0
 523 0030 00240140 		.word	1073816576
 524 0034 00100240 		.word	1073876992
 525              		.cfi_endproc
 526              	.LFE58:
 527              		.size	adc_lld_stop, .-adc_lld_stop
 528 0038 AFF30080 		.section	.text.adc_lld_start_conversion,"ax",%progbits
 528      AFF30080 
 529              		.align	2
 530              		.p2align 4,,15
 531              		.global	adc_lld_start_conversion
 532              		.thumb
 533              		.thumb_func
 534              		.type	adc_lld_start_conversion, %function
 535              	adc_lld_start_conversion:
 536              	.LFB59:
 537              		.loc 1 190 0
 538              		.cfi_startproc
 539              		@ args = 0, pretend = 0, frame = 0
 540              		@ frame_needed = 0, uses_anonymous_args = 0
 541              		@ link register save eliminated.
 542              	.LVL34:
 543              		.loc 1 192 0
 544 0000 0369     		ldr	r3, [r0, #16]
 545              	.LVL35:
 546              		.loc 1 190 0
 547 0002 2DE9F003 		push	{r4, r5, r6, r7, r8, r9}
 548              	.LCFI4:
 549              		.cfi_def_cfa_offset 24
 550              		.loc 1 196 0
 551 0006 1968     		ldr	r1, [r3, #0]
 552              		.loc 1 195 0
 553 0008 026B     		ldr	r2, [r0, #48]
 554              	.LVL36:
 555              		.loc 1 196 0
 556 000a 09B1     		cbz	r1, .L39
 557              		.cfi_offset 9, -4
 558              		.cfi_offset 8, -8
 559              		.cfi_offset 7, -12
 560              		.cfi_offset 6, -16
 561              		.cfi_offset 5, -20
 562              		.cfi_offset 4, -24
 563              		.loc 1 197 0
ARM GAS  C:\DOCUME~1\z_80\LOCALS~1\Temp\cc2dyvzq.s 			page 11


 564 000c 42F02002 		orr	r2, r2, #32
 565              	.LVL37:
 566              	.L39:
 567              		.loc 1 198 0
 568 0010 C168     		ldr	r1, [r0, #12]
 569              		.loc 1 202 0
 570 0012 9E88     		ldrh	r6, [r3, #4]
 571              		.loc 1 198 0
 572 0014 0129     		cmp	r1, #1
 573              		.loc 1 206 0
 574 0016 C56A     		ldr	r5, [r0, #44]
 575              		.loc 1 202 0
 576 0018 88BF     		it	hi
 577 001a 4E43     		mulhi	r6, r1, r6
 578              		.loc 1 206 0
 579 001c 8468     		ldr	r4, [r0, #8]
 580 001e 2968     		ldr	r1, [r5, #0]
 581              		.loc 1 201 0
 582 0020 88BF     		it	hi
 583 0022 42F00402 		orrhi	r2, r2, #4
 584              	.LVL38:
 585              		.loc 1 213 0
 586 0026 D3F81480 		ldr	r8, [r3, #20]
 587              		.loc 1 206 0
 588 002a CC60     		str	r4, [r1, #12]
 589              		.loc 1 207 0
 590 002c 4E60     		str	r6, [r1, #4]
 591              		.loc 1 208 0
 592 002e 0A60     		str	r2, [r1, #0]
 593              		.loc 1 212 0
 594 0030 1F69     		ldr	r7, [r3, #16]
 595              		.loc 1 209 0
 596 0032 D1F800C0 		ldr	ip, [r1, #0]
 597              		.loc 1 212 0
 598 0036 826A     		ldr	r2, [r0, #40]
 599              	.LVL39:
 600              		.loc 1 214 0
 601 0038 D3F81890 		ldr	r9, [r3, #24]
 602              		.loc 1 215 0
 603 003c DE69     		ldr	r6, [r3, #28]
 604              	.LVL40:
 605              		.loc 1 216 0
 606 003e 1D6A     		ldr	r5, [r3, #32]
 607              		.loc 1 217 0
 608 0040 5C6A     		ldr	r4, [r3, #36]
 609              		.loc 1 218 0
 610 0042 986A     		ldr	r0, [r3, #40]
 611              	.LVL41:
 612              		.loc 1 213 0
 613 0044 48F48073 		orr	r3, r8, #256
 614              	.LVL42:
 615 0048 43F00303 		orr	r3, r3, #3
 616              		.loc 1 209 0
 617 004c 4CF0010C 		orr	ip, ip, #1
 618              		.loc 1 212 0
 619 0050 47F48077 		orr	r7, r7, #256
 620              		.loc 1 209 0
ARM GAS  C:\DOCUME~1\z_80\LOCALS~1\Temp\cc2dyvzq.s 			page 12


 621 0054 C1F800C0 		str	ip, [r1, #0]
 622              		.loc 1 212 0
 623 0058 5760     		str	r7, [r2, #4]
 624              		.loc 1 213 0
 625 005a 9360     		str	r3, [r2, #8]
 626              		.loc 1 214 0
 627 005c C2F80C90 		str	r9, [r2, #12]
 628              		.loc 1 215 0
 629 0060 1661     		str	r6, [r2, #16]
 630              		.loc 1 216 0
 631 0062 D562     		str	r5, [r2, #44]
 632              		.loc 1 217 0
 633 0064 1463     		str	r4, [r2, #48]
 634              		.loc 1 218 0
 635 0066 5063     		str	r0, [r2, #52]
 636              		.loc 1 221 0
 637 0068 9360     		str	r3, [r2, #8]
 638              		.loc 1 222 0
 639 006a BDE8F003 		pop	{r4, r5, r6, r7, r8, r9}
 640 006e 7047     		bx	lr
 641              		.cfi_endproc
 642              	.LFE59:
 643              		.size	adc_lld_start_conversion, .-adc_lld_start_conversion
 644              		.section	.text.adc_lld_stop_conversion,"ax",%progbits
 645              		.align	2
 646              		.p2align 4,,15
 647              		.global	adc_lld_stop_conversion
 648              		.thumb
 649              		.thumb_func
 650              		.type	adc_lld_stop_conversion, %function
 651              	adc_lld_stop_conversion:
 652              	.LFB60:
 653              		.loc 1 231 0
 654              		.cfi_startproc
 655              		@ args = 0, pretend = 0, frame = 0
 656              		@ frame_needed = 0, uses_anonymous_args = 0
 657              		@ link register save eliminated.
 658              	.LVL43:
 659              		.loc 1 233 0
 660 0000 C36A     		ldr	r3, [r0, #44]
 661              		.loc 1 231 0
 662 0002 30B4     		push	{r4, r5}
 663              	.LCFI5:
 664              		.cfi_def_cfa_offset 8
 665              		.loc 1 233 0
 666 0004 1A68     		ldr	r2, [r3, #0]
 667              		.loc 1 234 0
 668 0006 816A     		ldr	r1, [r0, #40]
 669              		.loc 1 233 0
 670 0008 1568     		ldr	r5, [r2, #0]
 671              		.cfi_offset 5, -4
 672              		.cfi_offset 4, -8
 673 000a 5C68     		ldr	r4, [r3, #4]
 674 000c 25F00100 		bic	r0, r5, #1
 675              	.LVL44:
 676 0010 1060     		str	r0, [r2, #0]
 677 0012 1B7A     		ldrb	r3, [r3, #8]	@ zero_extendqisi2
ARM GAS  C:\DOCUME~1\z_80\LOCALS~1\Temp\cc2dyvzq.s 			page 13


 678 0014 0F22     		movs	r2, #15
 679 0016 12FA03F0 		lsls	r0, r2, r3
 680              		.loc 1 234 0
 681 001a 0023     		movs	r3, #0
 682              		.loc 1 233 0
 683 001c 2060     		str	r0, [r4, #0]
 684              		.loc 1 234 0
 685 001e 8B60     		str	r3, [r1, #8]
 686              		.loc 1 235 0
 687 0020 30BC     		pop	{r4, r5}
 688 0022 7047     		bx	lr
 689              		.cfi_endproc
 690              	.LFE60:
 691              		.size	adc_lld_stop_conversion, .-adc_lld_stop_conversion
 692              		.global	ADCD1
 693 0024 AFF30080 		.section	.bss.ADCD1,"aw",%nobits
 693      AFF30080 
 693      AFF30080 
 694              		.align	2
 695              		.set	.LANCHOR0,. + 0
 696              		.type	ADCD1, %object
 697              		.size	ADCD1, 52
 698              	ADCD1:
 699 0000 00000000 		.space	52
 699      00000000 
 699      00000000 
 699      00000000 
 699      00000000 
 700              		.section	.rodata.str1.4,"aMS",%progbits,1
 701              		.align	2
 702              	.LC0:
 703 0000 6164635F 		.ascii	"adc_lld_start(), #1\000"
 703      6C6C645F 
 703      73746172 
 703      7428292C 
 703      20233100 
 704              		.text
 705              	.Letext0: