ARM GAS  C:\DOCUME~1\z_80\LOCALS~1\Temp\ccqDARSQ.s 			page 1


   1              		.syntax unified
   2              		.cpu cortex-m3
   3              		.fpu softvfp
   4              		.eabi_attribute 20, 1
   5              		.eabi_attribute 21, 1
   6              		.eabi_attribute 23, 3
   7              		.eabi_attribute 24, 1
   8              		.eabi_attribute 25, 1
   9              		.eabi_attribute 26, 1
  10              		.eabi_attribute 30, 2
  11              		.eabi_attribute 18, 4
  12              		.thumb
  13              		.file	"chcond.c"
  20 0000 77020000 		.text
  20      02005B01 
  20      00000201 
  20      FB0E0D00 
  20      01010101 
  21              	.Ltext0:
  22              		.cfi_sections	.debug_frame
  23              		.section	.text.chCondInit,"ax",%progbits
  24              		.align	2
  25              		.p2align 4,,15
  26              		.global	chCondInit
  27              		.thumb
  28              		.thumb_func
  29              		.type	chCondInit, %function
  30              	chCondInit:
  31              	.LFB0:
  32              		.file 1 "../chibios_2.4.x/os/kernel/src/chcond.c"
  33              		.loc 1 59 0
  34              		.cfi_startproc
  35              		@ args = 0, pretend = 0, frame = 0
  36              		@ frame_needed = 0, uses_anonymous_args = 0
  37              	.LVL0:
  38 0000 10B5     		push	{r4, lr}
  39              	.LCFI0:
  40              		.cfi_def_cfa_offset 8
  41              		.loc 1 61 0
  42 0002 0446     		mov	r4, r0
  43              		.cfi_offset 14, -4
  44              		.cfi_offset 4, -8
  45 0004 10B1     		cbz	r0, .L4
  46              		.loc 1 63 0
  47 0006 6460     		str	r4, [r4, #4]
  48 0008 2460     		str	r4, [r4, #0]
  49              		.loc 1 64 0
  50 000a 10BD     		pop	{r4, pc}
  51              	.L4:
  52              		.loc 1 61 0 discriminator 1
  53 000c 0248     		ldr	r0, .L5
ARM GAS  C:\DOCUME~1\z_80\LOCALS~1\Temp\ccqDARSQ.s 			page 2


  54              	.LVL1:
  55 000e FFF7FEFF 		bl	chDbgPanic
  56              		.loc 1 63 0 discriminator 1
  57 0012 6460     		str	r4, [r4, #4]
  58 0014 2460     		str	r4, [r4, #0]
  59              		.loc 1 64 0 discriminator 1
  60 0016 10BD     		pop	{r4, pc}
  61              	.L6:
  62              		.align	2
  63              	.L5:
  64 0018 00000000 		.word	.LC0
  65              		.cfi_endproc
  66              	.LFE0:
  67              		.size	chCondInit, .-chCondInit
  68 001c AFF30080 		.section	.text.chCondSignal,"ax",%progbits
  69              		.align	2
  70              		.p2align 4,,15
  71              		.global	chCondSignal
  72              		.thumb
  73              		.thumb_func
  74              		.type	chCondSignal, %function
  75              	chCondSignal:
  76              	.LFB1:
  77              		.loc 1 73 0
  78              		.cfi_startproc
  79              		@ args = 0, pretend = 0, frame = 0
  80              		@ frame_needed = 0, uses_anonymous_args = 0
  81              	.LVL2:
  82 0000 10B5     		push	{r4, lr}
  83              	.LCFI1:
  84              		.cfi_def_cfa_offset 8
  85              		.loc 1 75 0
  86 0002 0446     		mov	r4, r0
  87              		.cfi_offset 14, -4
  88              		.cfi_offset 4, -8
  89 0004 88B1     		cbz	r0, .L10
  90              	.LVL3:
  91              	.L8:
  92              		.loc 1 77 0
  93              	@ 77 "../chibios_2.4.x/os/kernel/src/chcond.c" 1
  94 0006 FFF7FEFF 		bl      _port_lock
  95              	@ 0 "" 2
  96              		.thumb
  97 000a FFF7FEFF 		bl	dbg_check_lock
  98              		.loc 1 78 0
  99 000e 2368     		ldr	r3, [r4, #0]
 100 0010 A342     		cmp	r3, r4
 101 0012 05D0     		beq	.L9
 102              		.loc 1 79 0
 103 0014 2046     		mov	r0, r4
 104 0016 FFF7FEFF 		bl	fifo_remove
 105 001a 0021     		movs	r1, #0
 106 001c FFF7FEFF 		bl	chSchWakeupS
 107              	.L9:
 108              		.loc 1 80 0
 109 0020 FFF7FEFF 		bl	dbg_check_unlock
 110              	@ 80 "../chibios_2.4.x/os/kernel/src/chcond.c" 1
ARM GAS  C:\DOCUME~1\z_80\LOCALS~1\Temp\ccqDARSQ.s 			page 3


 111 0024 FFF7FEFF 		bl      _port_unlock
 112              	@ 0 "" 2
 113              		.loc 1 81 0
 114              		.thumb
 115 0028 10BD     		pop	{r4, pc}
 116              	.L10:
 117              		.loc 1 75 0 discriminator 1
 118 002a 0248     		ldr	r0, .L11
 119 002c FFF7FEFF 		bl	chDbgPanic
 120 0030 E9E7     		b	.L8
 121              	.L12:
 122 0032 00BF     		.align	2
 123              	.L11:
 124 0034 10000000 		.word	.LC1
 125              		.cfi_endproc
 126              	.LFE1:
 127              		.size	chCondSignal, .-chCondSignal
 128 0038 AFF30080 		.section	.text.chCondSignalI,"ax",%progbits
 128      AFF30080 
 129              		.align	2
 130              		.p2align 4,,15
 131              		.global	chCondSignalI
 132              		.thumb
 133              		.thumb_func
 134              		.type	chCondSignalI, %function
 135              	chCondSignalI:
 136              	.LFB2:
 137              		.loc 1 94 0
 138              		.cfi_startproc
 139              		@ args = 0, pretend = 0, frame = 0
 140              		@ frame_needed = 0, uses_anonymous_args = 0
 141              	.LVL4:
 142 0000 10B5     		push	{r4, lr}
 143              	.LCFI2:
 144              		.cfi_def_cfa_offset 8
 145              		.loc 1 94 0
 146 0002 0446     		mov	r4, r0
 147              		.cfi_offset 14, -4
 148              		.cfi_offset 4, -8
 149              		.loc 1 96 0
 150 0004 FFF7FEFF 		bl	chDbgCheckClassI
 151              	.LVL5:
 152              		.loc 1 97 0
 153 0008 54B1     		cbz	r4, .L16
 154              	.L14:
 155              		.loc 1 99 0
 156 000a 2368     		ldr	r3, [r4, #0]
 157 000c A342     		cmp	r3, r4
 158 000e 06D0     		beq	.L13
 159              		.loc 1 100 0
 160 0010 2046     		mov	r0, r4
 161 0012 FFF7FEFF 		bl	fifo_remove
 162 0016 FFF7FEFF 		bl	chSchReadyI
 163 001a 0021     		movs	r1, #0
 164 001c 8162     		str	r1, [r0, #40]
 165              	.L13:
 166 001e 10BD     		pop	{r4, pc}
ARM GAS  C:\DOCUME~1\z_80\LOCALS~1\Temp\ccqDARSQ.s 			page 4


 167              	.L16:
 168              		.loc 1 97 0 discriminator 1
 169 0020 0148     		ldr	r0, .L17
 170 0022 FFF7FEFF 		bl	chDbgPanic
 171 0026 F0E7     		b	.L14
 172              	.L18:
 173              		.align	2
 174              	.L17:
 175 0028 24000000 		.word	.LC2
 176              		.cfi_endproc
 177              	.LFE2:
 178              		.size	chCondSignalI, .-chCondSignalI
 179 002c AFF30080 		.section	.text.chCondBroadcastI,"ax",%progbits
 180              		.align	2
 181              		.p2align 4,,15
 182              		.global	chCondBroadcastI
 183              		.thumb
 184              		.thumb_func
 185              		.type	chCondBroadcastI, %function
 186              	chCondBroadcastI:
 187              	.LFB4:
 188              		.loc 1 129 0
 189              		.cfi_startproc
 190              		@ args = 0, pretend = 0, frame = 0
 191              		@ frame_needed = 0, uses_anonymous_args = 0
 192              	.LVL6:
 193 0000 38B5     		push	{r3, r4, r5, lr}
 194              	.LCFI3:
 195              		.cfi_def_cfa_offset 16
 196              		.loc 1 129 0
 197 0002 0446     		mov	r4, r0
 198              		.cfi_offset 14, -4
 199              		.cfi_offset 5, -8
 200              		.cfi_offset 4, -12
 201              		.cfi_offset 3, -16
 202              		.loc 1 131 0
 203 0004 FFF7FEFF 		bl	chDbgCheckClassI
 204              	.LVL7:
 205              		.loc 1 132 0
 206 0008 74B1     		cbz	r4, .L25
 207              	.L20:
 208              		.loc 1 137 0 discriminator 1
 209 000a 2368     		ldr	r3, [r4, #0]
 210 000c A342     		cmp	r3, r4
 211 000e 0AD0     		beq	.L19
 212              		.loc 1 138 0
 213 0010 6FF00105 		mvn	r5, #1
 214              	.L23:
 215 0014 2046     		mov	r0, r4
 216 0016 FFF7FEFF 		bl	fifo_remove
 217 001a FFF7FEFF 		bl	chSchReadyI
 218 001e 8562     		str	r5, [r0, #40]
 219              		.loc 1 137 0
 220 0020 2068     		ldr	r0, [r4, #0]
 221 0022 A042     		cmp	r0, r4
 222 0024 F6D1     		bne	.L23
 223              	.L19:
ARM GAS  C:\DOCUME~1\z_80\LOCALS~1\Temp\ccqDARSQ.s 			page 5


 224 0026 38BD     		pop	{r3, r4, r5, pc}
 225              	.L25:
 226              		.loc 1 132 0 discriminator 1
 227 0028 0148     		ldr	r0, .L26
 228 002a FFF7FEFF 		bl	chDbgPanic
 229 002e ECE7     		b	.L20
 230              	.L27:
 231              		.align	2
 232              	.L26:
 233 0030 38000000 		.word	.LC3
 234              		.cfi_endproc
 235              	.LFE4:
 236              		.size	chCondBroadcastI, .-chCondBroadcastI
 237 0034 AFF30080 		.section	.text.chCondBroadcast,"ax",%progbits
 237      AFF30080 
 237      AFF30080 
 238              		.align	2
 239              		.p2align 4,,15
 240              		.global	chCondBroadcast
 241              		.thumb
 242              		.thumb_func
 243              		.type	chCondBroadcast, %function
 244              	chCondBroadcast:
 245              	.LFB3:
 246              		.loc 1 110 0
 247              		.cfi_startproc
 248              		@ args = 0, pretend = 0, frame = 0
 249              		@ frame_needed = 0, uses_anonymous_args = 0
 250              	.LVL8:
 251 0000 10B5     		push	{r4, lr}
 252              	.LCFI4:
 253              		.cfi_def_cfa_offset 8
 254              		.loc 1 110 0
 255 0002 0446     		mov	r4, r0
 256              		.cfi_offset 14, -4
 257              		.cfi_offset 4, -8
 258              		.loc 1 112 0
 259              	@ 112 "../chibios_2.4.x/os/kernel/src/chcond.c" 1
 260 0004 FFF7FEFF 		bl      _port_lock
 261              	@ 0 "" 2
 262              		.thumb
 263 0008 FFF7FEFF 		bl	dbg_check_lock
 264              	.LVL9:
 265              		.loc 1 113 0
 266 000c 2046     		mov	r0, r4
 267 000e FFF7FEFF 		bl	chCondBroadcastI
 268              		.loc 1 114 0
 269 0012 FFF7FEFF 		bl	chSchRescheduleS
 270              		.loc 1 115 0
 271 0016 FFF7FEFF 		bl	dbg_check_unlock
 272              	@ 115 "../chibios_2.4.x/os/kernel/src/chcond.c" 1
 273 001a FFF7FEFF 		bl      _port_unlock
 274              	@ 0 "" 2
 275              		.loc 1 116 0
 276              		.thumb
 277 001e 10BD     		pop	{r4, pc}
 278              		.cfi_endproc
ARM GAS  C:\DOCUME~1\z_80\LOCALS~1\Temp\ccqDARSQ.s 			page 6


 279              	.LFE3:
 280              		.size	chCondBroadcast, .-chCondBroadcast
 281              		.section	.text.chCondWaitS,"ax",%progbits
 282              		.align	2
 283              		.p2align 4,,15
 284              		.global	chCondWaitS
 285              		.thumb
 286              		.thumb_func
 287              		.type	chCondWaitS, %function
 288              	chCondWaitS:
 289              	.LFB6:
 290              		.loc 1 184 0
 291              		.cfi_startproc
 292              		@ args = 0, pretend = 0, frame = 0
 293              		@ frame_needed = 0, uses_anonymous_args = 0
 294              	.LVL10:
 295              		.loc 1 185 0
 296 0000 104B     		ldr	r3, .L34
 297              		.loc 1 184 0
 298 0002 70B5     		push	{r4, r5, r6, lr}
 299              	.LCFI5:
 300              		.cfi_def_cfa_offset 16
 301              		.loc 1 184 0
 302 0004 0546     		mov	r5, r0
 303              		.cfi_offset 14, -4
 304              		.cfi_offset 6, -8
 305              		.cfi_offset 5, -12
 306              		.cfi_offset 4, -16
 307              		.loc 1 185 0
 308 0006 DC69     		ldr	r4, [r3, #28]
 309              	.LVL11:
 310              		.loc 1 189 0
 311 0008 FFF7FEFF 		bl	chDbgCheckClassS
 312              	.LVL12:
 313              		.loc 1 190 0
 314 000c B5B1     		cbz	r5, .L32
 315              	.L30:
 316              		.loc 1 191 0
 317 000e 206C     		ldr	r0, [r4, #64]
 318 0010 80B1     		cbz	r0, .L33
 319              	.L31:
 320              		.loc 1 195 0
 321 0012 FFF7FEFF 		bl	chMtxUnlockS
 322              		.loc 1 197 0
 323 0016 2946     		mov	r1, r5
 324              		.loc 1 195 0
 325 0018 0646     		mov	r6, r0
 326              	.LVL13:
 327              		.loc 1 196 0
 328 001a A562     		str	r5, [r4, #40]
 329              		.loc 1 197 0
 330 001c 2046     		mov	r0, r4
 331              	.LVL14:
 332 001e FFF7FEFF 		bl	prio_insert
 333              		.loc 1 198 0
 334 0022 0520     		movs	r0, #5
 335 0024 FFF7FEFF 		bl	chSchGoSleepS
ARM GAS  C:\DOCUME~1\z_80\LOCALS~1\Temp\ccqDARSQ.s 			page 7


 336              		.loc 1 199 0
 337 0028 A46A     		ldr	r4, [r4, #40]
 338              	.LVL15:
 339              		.loc 1 200 0
 340 002a 3046     		mov	r0, r6
 341 002c FFF7FEFF 		bl	chMtxLockS
 342              		.loc 1 202 0
 343 0030 2046     		mov	r0, r4
 344 0032 70BD     		pop	{r4, r5, r6, pc}
 345              	.LVL16:
 346              	.L33:
 347              		.loc 1 191 0 discriminator 1
 348 0034 0448     		ldr	r0, .L34+4
 349 0036 FFF7FEFF 		bl	chDbgPanic
 350 003a EAE7     		b	.L31
 351              	.L32:
 352              		.loc 1 190 0 discriminator 1
 353 003c 0348     		ldr	r0, .L34+8
 354 003e FFF7FEFF 		bl	chDbgPanic
 355 0042 E4E7     		b	.L30
 356              	.L35:
 357              		.align	2
 358              	.L34:
 359 0044 00000000 		.word	rlist
 360 0048 60000000 		.word	.LC5
 361 004c 50000000 		.word	.LC4
 362              		.cfi_endproc
 363              	.LFE6:
 364              		.size	chCondWaitS, .-chCondWaitS
 365              		.section	.text.chCondWait,"ax",%progbits
 366              		.align	2
 367              		.p2align 4,,15
 368              		.global	chCondWait
 369              		.thumb
 370              		.thumb_func
 371              		.type	chCondWait, %function
 372              	chCondWait:
 373              	.LFB5:
 374              		.loc 1 158 0
 375              		.cfi_startproc
 376              		@ args = 0, pretend = 0, frame = 0
 377              		@ frame_needed = 0, uses_anonymous_args = 0
 378              	.LVL17:
 379 0000 10B5     		push	{r4, lr}
 380              	.LCFI6:
 381              		.cfi_def_cfa_offset 8
 382              		.loc 1 158 0
 383 0002 0446     		mov	r4, r0
 384              		.cfi_offset 14, -4
 385              		.cfi_offset 4, -8
 386              		.loc 1 161 0
 387              	@ 161 "../chibios_2.4.x/os/kernel/src/chcond.c" 1
 388 0004 FFF7FEFF 		bl      _port_lock
 389              	@ 0 "" 2
 390              		.thumb
 391 0008 FFF7FEFF 		bl	dbg_check_lock
 392              	.LVL18:
ARM GAS  C:\DOCUME~1\z_80\LOCALS~1\Temp\ccqDARSQ.s 			page 8


 393              		.loc 1 162 0
 394 000c 2046     		mov	r0, r4
 395 000e FFF7FEFF 		bl	chCondWaitS
 396 0012 0446     		mov	r4, r0
 397              	.LVL19:
 398              		.loc 1 163 0
 399 0014 FFF7FEFF 		bl	dbg_check_unlock
 400              	.LVL20:
 401              	@ 163 "../chibios_2.4.x/os/kernel/src/chcond.c" 1
 402 0018 FFF7FEFF 		bl      _port_unlock
 403              	@ 0 "" 2
 404              		.loc 1 165 0
 405              		.thumb
 406 001c 2046     		mov	r0, r4
 407 001e 10BD     		pop	{r4, pc}
 408              		.cfi_endproc
 409              	.LFE5:
 410              		.size	chCondWait, .-chCondWait
 411              		.section	.text.chCondWaitTimeoutS,"ax",%progbits
 412              		.align	2
 413              		.p2align 4,,15
 414              		.global	chCondWaitTimeoutS
 415              		.thumb
 416              		.thumb_func
 417              		.type	chCondWaitTimeoutS, %function
 418              	chCondWaitTimeoutS:
 419              	.LFB8:
 420              		.loc 1 270 0
 421              		.cfi_startproc
 422              		@ args = 0, pretend = 0, frame = 0
 423              		@ frame_needed = 0, uses_anonymous_args = 0
 424              	.LVL21:
 425 0000 F8B5     		push	{r3, r4, r5, r6, r7, lr}
 426              	.LCFI7:
 427              		.cfi_def_cfa_offset 24
 428              		.loc 1 270 0
 429 0002 0446     		mov	r4, r0
 430              		.cfi_offset 14, -4
 431              		.cfi_offset 7, -8
 432              		.cfi_offset 6, -12
 433              		.cfi_offset 5, -16
 434              		.cfi_offset 4, -20
 435              		.cfi_offset 3, -24
 436 0004 0D46     		mov	r5, r1
 437              		.loc 1 274 0
 438 0006 FFF7FEFF 		bl	chDbgCheckClassS
 439              	.LVL22:
 440              		.loc 1 275 0
 441 000a D4B1     		cbz	r4, .L38
 442              		.loc 1 275 0 is_stmt 0 discriminator 2
 443 000c CDB1     		cbz	r5, .L38
 444              	.L39:
 445              		.loc 1 276 0 is_stmt 1
 446 000e 114F     		ldr	r7, .L43
 447 0010 F869     		ldr	r0, [r7, #28]
 448 0012 036C     		ldr	r3, [r0, #64]
 449 0014 CBB1     		cbz	r3, .L42
ARM GAS  C:\DOCUME~1\z_80\LOCALS~1\Temp\ccqDARSQ.s 			page 9


 450              	.L40:
 451              		.loc 1 280 0
 452 0016 FFF7FEFF 		bl	chMtxUnlockS
 453              		.loc 1 281 0
 454 001a FA69     		ldr	r2, [r7, #28]
 455              		.loc 1 282 0
 456 001c 2146     		mov	r1, r4
 457              		.loc 1 281 0
 458 001e 9462     		str	r4, [r2, #40]
 459              		.loc 1 280 0
 460 0020 0646     		mov	r6, r0
 461              	.LVL23:
 462              		.loc 1 282 0
 463 0022 1046     		mov	r0, r2
 464              	.LVL24:
 465 0024 FFF7FEFF 		bl	prio_insert
 466              		.loc 1 283 0
 467 0028 0520     		movs	r0, #5
 468 002a 2946     		mov	r1, r5
 469 002c FFF7FEFF 		bl	chSchGoSleepTimeoutS
 470              		.loc 1 284 0
 471 0030 B0F1FF3F 		cmp	r0, #-1
 472              		.loc 1 283 0
 473 0034 0446     		mov	r4, r0
 474              	.LVL25:
 475              		.loc 1 284 0
 476 0036 02D0     		beq	.L41
 477              		.loc 1 285 0
 478 0038 3046     		mov	r0, r6
 479              	.LVL26:
 480 003a FFF7FEFF 		bl	chMtxLockS
 481              	.L41:
 482              		.loc 1 287 0
 483 003e 2046     		mov	r0, r4
 484 0040 F8BD     		pop	{r3, r4, r5, r6, r7, pc}
 485              	.LVL27:
 486              	.L38:
 487              		.loc 1 275 0 discriminator 1
 488 0042 0548     		ldr	r0, .L43+4
 489 0044 FFF7FEFF 		bl	chDbgPanic
 490 0048 E1E7     		b	.L39
 491              	.L42:
 492              		.loc 1 276 0 discriminator 1
 493 004a 0448     		ldr	r0, .L43+8
 494 004c FFF7FEFF 		bl	chDbgPanic
 495 0050 E1E7     		b	.L40
 496              	.L44:
 497 0052 00BF     		.align	2
 498              	.L43:
 499 0054 00000000 		.word	rlist
 500 0058 74000000 		.word	.LC6
 501 005c 8C000000 		.word	.LC7
 502              		.cfi_endproc
 503              	.LFE8:
 504              		.size	chCondWaitTimeoutS, .-chCondWaitTimeoutS
 505              		.section	.text.chCondWaitTimeout,"ax",%progbits
 506              		.align	2
ARM GAS  C:\DOCUME~1\z_80\LOCALS~1\Temp\ccqDARSQ.s 			page 10


 507              		.p2align 4,,15
 508              		.global	chCondWaitTimeout
 509              		.thumb
 510              		.thumb_func
 511              		.type	chCondWaitTimeout, %function
 512              	chCondWaitTimeout:
 513              	.LFB7:
 514              		.loc 1 233 0
 515              		.cfi_startproc
 516              		@ args = 0, pretend = 0, frame = 0
 517              		@ frame_needed = 0, uses_anonymous_args = 0
 518              	.LVL28:
 519 0000 38B5     		push	{r3, r4, r5, lr}
 520              	.LCFI8:
 521              		.cfi_def_cfa_offset 16
 522              		.loc 1 233 0
 523 0002 0546     		mov	r5, r0
 524              		.cfi_offset 14, -4
 525              		.cfi_offset 5, -8
 526              		.cfi_offset 4, -12
 527              		.cfi_offset 3, -16
 528 0004 0C46     		mov	r4, r1
 529              		.loc 1 236 0
 530              	@ 236 "../chibios_2.4.x/os/kernel/src/chcond.c" 1
 531 0006 FFF7FEFF 		bl      _port_lock
 532              	@ 0 "" 2
 533              		.thumb
 534 000a FFF7FEFF 		bl	dbg_check_lock
 535              	.LVL29:
 536              		.loc 1 237 0
 537 000e 2146     		mov	r1, r4
 538 0010 2846     		mov	r0, r5
 539 0012 FFF7FEFF 		bl	chCondWaitTimeoutS
 540 0016 0446     		mov	r4, r0
 541              	.LVL30:
 542              		.loc 1 238 0
 543 0018 FFF7FEFF 		bl	dbg_check_unlock
 544              	.LVL31:
 545              	@ 238 "../chibios_2.4.x/os/kernel/src/chcond.c" 1
 546 001c FFF7FEFF 		bl      _port_unlock
 547              	@ 0 "" 2
 548              		.loc 1 240 0
 549              		.thumb
 550 0020 2046     		mov	r0, r4
 551 0022 38BD     		pop	{r3, r4, r5, pc}
 552              		.cfi_endproc
 553              	.LFE7:
 554              		.size	chCondWaitTimeout, .-chCondWaitTimeout
 555 0024 AFF30080 		.section	.rodata.str1.4,"aMS",%progbits,1
 555      AFF30080 
 555      AFF30080 
 556              		.align	2
 557              	.LC0:
 558 0000 22636843 		.ascii	"\"chCondInit\"()\000"
 558      6F6E6449 
 558      6E697422 
 558      282900
ARM GAS  C:\DOCUME~1\z_80\LOCALS~1\Temp\ccqDARSQ.s 			page 11


 559 000f 00       		.space	1
 560              	.LC1:
 561 0010 22636843 		.ascii	"\"chCondSignal\"()\000"
 561      6F6E6453 
 561      69676E61 
 561      6C222829 
 561      00
 562 0021 000000   		.space	3
 563              	.LC2:
 564 0024 22636843 		.ascii	"\"chCondSignalI\"()\000"
 564      6F6E6453 
 564      69676E61 
 564      6C492228 
 564      2900
 565 0036 0000     		.space	2
 566              	.LC3:
 567 0038 22636843 		.ascii	"\"chCondBroadcastI\"()\000"
 567      6F6E6442 
 567      726F6164 
 567      63617374 
 567      49222829 
 568 004d 000000   		.space	3
 569              	.LC4:
 570 0050 22636843 		.ascii	"\"chCondWaitS\"()\000"
 570      6F6E6457 
 570      61697453 
 570      22282900 
 571              	.LC5:
 572 0060 6368436F 		.ascii	"chCondWaitS(), #1\000"
 572      6E645761 
 572      69745328 
 572      292C2023 
 572      3100
 573 0072 0000     		.space	2
 574              	.LC6:
 575 0074 22636843 		.ascii	"\"chCondWaitTimeoutS\"()\000"
 575      6F6E6457 
 575      61697454 
 575      696D656F 
 575      75745322 
 576 008b 00       		.space	1
 577              	.LC7:
 578 008c 6368436F 		.ascii	"chCondWaitTimeoutS(), #1\000"
 578      6E645761 
 578      69745469 
 578      6D656F75 
 578      74532829 
 579 00a5 000000   		.text
 580              	.Letext0: