ARM GAS  /tmp/ccRGHuOC.s 			page 1


   1              		.syntax unified
   2              		.cpu cortex-m3
   3              		.fpu softvfp
   4              		.eabi_attribute 20, 1
   5              		.eabi_attribute 21, 1
   6              		.eabi_attribute 23, 3
   7              		.eabi_attribute 24, 1
   8              		.eabi_attribute 25, 1
   9              		.eabi_attribute 26, 1
  10              		.eabi_attribute 30, 2
  11              		.eabi_attribute 18, 4
  12              		.thumb
  13              		.file	"chdebug.c"
  20 0000 46030000 		.text
  20      02006B01 
  20      00000201 
  20      FB0E0D00 
  20      01010101 
  21              	.Ltext0:
  22              		.cfi_sections	.debug_frame
  23              		.section	.text.dbg_check_disable,"ax",%progbits
  24              		.align	2
  25              		.p2align 4,,15
  26              		.global	dbg_check_disable
  27              		.thumb
  28              		.thumb_func
  29              		.type	dbg_check_disable, %function
  30              	dbg_check_disable:
  31              	.LFB0:
  32              		.file 1 "../chibios_2.4.x/os/kernel/src/chdebug.c"
  33              		.loc 1 81 0
  34              		.cfi_startproc
  35              		@ args = 0, pretend = 0, frame = 0
  36              		@ frame_needed = 0, uses_anonymous_args = 0
  37              		@ link register save eliminated.
  38              		.loc 1 83 0
  39 0000 0548     		ldr	r0, .L5
  40 0002 0368     		ldr	r3, [r0, #0]
  41 0004 13B9     		cbnz	r3, .L2
  42              		.loc 1 83 0 is_stmt 0 discriminator 1
  43 0006 054A     		ldr	r2, .L5+4
  44 0008 1168     		ldr	r1, [r2, #0]
  45 000a 21B1     		cbz	r1, .L1
  46              	.L2:
  47              	.LVL0:
  48              	.LBB24:
  49              	.LBB25:
  50              		.loc 1 273 0 is_stmt 1
  51 000c 0448     		ldr	r0, .L5+8
  52 000e 054B     		ldr	r3, .L5+12
  53 0010 1860     		str	r0, [r3, #0]
ARM GAS  /tmp/ccRGHuOC.s 			page 2


  54              	.LBE25:
  55              	.LBE24:
  56              		.loc 1 85 0
  57              	.LBB27:
  58              	.LBB26:
  59              		.loc 1 274 0
  60 0012 FFF7FEBF 		b	port_halt
  61              	.LVL1:
  62              	.L1:
  63 0016 7047     		bx	lr
  64              	.L6:
  65              		.align	2
  66              	.L5:
  67 0018 00000000 		.word	.LANCHOR0
  68 001c 00000000 		.word	.LANCHOR1
  69 0020 00000000 		.word	.LC0
  70 0024 00000000 		.word	.LANCHOR2
  71              	.LBE26:
  72              	.LBE27:
  73              		.cfi_endproc
  74              	.LFE0:
  75              		.size	dbg_check_disable, .-dbg_check_disable
  76 0028 AFF30080 		.section	.text.dbg_check_suspend,"ax",%progbits
  76      AFF30080 
  77              		.align	2
  78              		.p2align 4,,15
  79              		.global	dbg_check_suspend
  80              		.thumb
  81              		.thumb_func
  82              		.type	dbg_check_suspend, %function
  83              	dbg_check_suspend:
  84              	.LFB1:
  85              		.loc 1 92 0
  86              		.cfi_startproc
  87              		@ args = 0, pretend = 0, frame = 0
  88              		@ frame_needed = 0, uses_anonymous_args = 0
  89              		@ link register save eliminated.
  90              		.loc 1 94 0
  91 0000 0548     		ldr	r0, .L10
  92 0002 0368     		ldr	r3, [r0, #0]
  93 0004 13B9     		cbnz	r3, .L8
  94              		.loc 1 94 0 is_stmt 0 discriminator 1
  95 0006 054A     		ldr	r2, .L10+4
  96 0008 1168     		ldr	r1, [r2, #0]
  97 000a 21B1     		cbz	r1, .L7
  98              	.L8:
  99              	.LVL2:
 100              	.LBB28:
 101              	.LBB29:
 102              		.loc 1 273 0 is_stmt 1
 103 000c 0448     		ldr	r0, .L10+8
 104 000e 054B     		ldr	r3, .L10+12
 105 0010 1860     		str	r0, [r3, #0]
 106              	.LBE29:
 107              	.LBE28:
 108              		.loc 1 96 0
 109              	.LBB31:
ARM GAS  /tmp/ccRGHuOC.s 			page 3


 110              	.LBB30:
 111              		.loc 1 274 0
 112 0012 FFF7FEBF 		b	port_halt
 113              	.LVL3:
 114              	.L7:
 115 0016 7047     		bx	lr
 116              	.L11:
 117              		.align	2
 118              	.L10:
 119 0018 00000000 		.word	.LANCHOR0
 120 001c 00000000 		.word	.LANCHOR1
 121 0020 08000000 		.word	.LC1
 122 0024 00000000 		.word	.LANCHOR2
 123              	.LBE30:
 124              	.LBE31:
 125              		.cfi_endproc
 126              	.LFE1:
 127              		.size	dbg_check_suspend, .-dbg_check_suspend
 128 0028 AFF30080 		.section	.text.dbg_check_enable,"ax",%progbits
 128      AFF30080 
 129              		.align	2
 130              		.p2align 4,,15
 131              		.global	dbg_check_enable
 132              		.thumb
 133              		.thumb_func
 134              		.type	dbg_check_enable, %function
 135              	dbg_check_enable:
 136              	.LFB2:
 137              		.loc 1 103 0
 138              		.cfi_startproc
 139              		@ args = 0, pretend = 0, frame = 0
 140              		@ frame_needed = 0, uses_anonymous_args = 0
 141              		@ link register save eliminated.
 142              		.loc 1 105 0
 143 0000 0548     		ldr	r0, .L15
 144 0002 0368     		ldr	r3, [r0, #0]
 145 0004 13B9     		cbnz	r3, .L13
 146              		.loc 1 105 0 is_stmt 0 discriminator 1
 147 0006 054A     		ldr	r2, .L15+4
 148 0008 1168     		ldr	r1, [r2, #0]
 149 000a 21B1     		cbz	r1, .L12
 150              	.L13:
 151              	.LVL4:
 152              	.LBB32:
 153              	.LBB33:
 154              		.loc 1 273 0 is_stmt 1
 155 000c 0448     		ldr	r0, .L15+8
 156 000e 054B     		ldr	r3, .L15+12
 157 0010 1860     		str	r0, [r3, #0]
 158              	.LBE33:
 159              	.LBE32:
 160              		.loc 1 107 0
 161              	.LBB35:
 162              	.LBB34:
 163              		.loc 1 274 0
 164 0012 FFF7FEBF 		b	port_halt
 165              	.LVL5:
ARM GAS  /tmp/ccRGHuOC.s 			page 4


 166              	.L12:
 167 0016 7047     		bx	lr
 168              	.L16:
 169              		.align	2
 170              	.L15:
 171 0018 00000000 		.word	.LANCHOR0
 172 001c 00000000 		.word	.LANCHOR1
 173 0020 10000000 		.word	.LC2
 174 0024 00000000 		.word	.LANCHOR2
 175              	.LBE34:
 176              	.LBE35:
 177              		.cfi_endproc
 178              	.LFE2:
 179              		.size	dbg_check_enable, .-dbg_check_enable
 180 0028 AFF30080 		.section	.text.dbg_check_lock,"ax",%progbits
 180      AFF30080 
 181              		.align	2
 182              		.p2align 4,,15
 183              		.global	dbg_check_lock
 184              		.thumb
 185              		.thumb_func
 186              		.type	dbg_check_lock, %function
 187              	dbg_check_lock:
 188              	.LFB3:
 189              		.loc 1 114 0
 190              		.cfi_startproc
 191              		@ args = 0, pretend = 0, frame = 0
 192              		@ frame_needed = 0, uses_anonymous_args = 0
 193              		.loc 1 116 0
 194 0000 0848     		ldr	r0, .L23
 195              		.loc 1 114 0
 196 0002 10B5     		push	{r4, lr}
 197              	.LCFI0:
 198              		.cfi_def_cfa_offset 8
 199              		.loc 1 116 0
 200 0004 0368     		ldr	r3, [r0, #0]
 201 0006 53B9     		cbnz	r3, .L22
 202              		.cfi_offset 14, -4
 203              		.cfi_offset 4, -8
 204              		.loc 1 116 0 is_stmt 0 discriminator 1
 205 0008 074C     		ldr	r4, .L23+4
 206 000a 2168     		ldr	r1, [r4, #0]
 207 000c 21B1     		cbz	r1, .L19
 208              	.L18:
 209              	.LVL6:
 210              	.LBB36:
 211              	.LBB37:
 212              		.loc 1 273 0 is_stmt 1
 213 000e 074A     		ldr	r2, .L23+8
 214 0010 074B     		ldr	r3, .L23+12
 215 0012 1A60     		str	r2, [r3, #0]
 216              		.loc 1 274 0
 217 0014 FFF7FEFF 		bl	port_halt
 218              	.LVL7:
 219              	.L19:
 220              	.LBE37:
 221              	.LBE36:
ARM GAS  /tmp/ccRGHuOC.s 			page 5


 222              		.loc 1 118 0
 223 0018 0120     		movs	r0, #1
 224 001a 2060     		str	r0, [r4, #0]
 225              		.loc 1 119 0
 226 001c 10BD     		pop	{r4, pc}
 227              	.L22:
 228 001e 024C     		ldr	r4, .L23+4
 229 0020 F5E7     		b	.L18
 230              	.L24:
 231 0022 00BF     		.align	2
 232              	.L23:
 233 0024 00000000 		.word	.LANCHOR0
 234 0028 00000000 		.word	.LANCHOR1
 235 002c 18000000 		.word	.LC3
 236 0030 00000000 		.word	.LANCHOR2
 237              		.cfi_endproc
 238              	.LFE3:
 239              		.size	dbg_check_lock, .-dbg_check_lock
 240 0034 AFF30080 		.section	.text.dbg_check_unlock,"ax",%progbits
 240      AFF30080 
 240      AFF30080 
 241              		.align	2
 242              		.p2align 4,,15
 243              		.global	dbg_check_unlock
 244              		.thumb
 245              		.thumb_func
 246              		.type	dbg_check_unlock, %function
 247              	dbg_check_unlock:
 248              	.LFB4:
 249              		.loc 1 126 0
 250              		.cfi_startproc
 251              		@ args = 0, pretend = 0, frame = 0
 252              		@ frame_needed = 0, uses_anonymous_args = 0
 253              		.loc 1 128 0
 254 0000 0948     		ldr	r0, .L31
 255              		.loc 1 126 0
 256 0002 10B5     		push	{r4, lr}
 257              	.LCFI1:
 258              		.cfi_def_cfa_offset 8
 259              		.loc 1 128 0
 260 0004 0368     		ldr	r3, [r0, #0]
 261 0006 33B9     		cbnz	r3, .L30
 262              		.cfi_offset 14, -4
 263              		.cfi_offset 4, -8
 264              		.loc 1 128 0 is_stmt 0 discriminator 1
 265 0008 084C     		ldr	r4, .L31+4
 266 000a 2168     		ldr	r1, [r4, #0]
 267 000c 0029     		cmp	r1, #0
 268 000e 03DD     		ble	.L26
 269              		.loc 1 130 0 is_stmt 1
 270 0010 0020     		movs	r0, #0
 271 0012 2060     		str	r0, [r4, #0]
 272              		.loc 1 131 0
 273 0014 10BD     		pop	{r4, pc}
 274              	.L30:
 275 0016 054C     		ldr	r4, .L31+4
 276              	.L26:
ARM GAS  /tmp/ccRGHuOC.s 			page 6


 277              	.LVL8:
 278              	.LBB38:
 279              	.LBB39:
 280              		.loc 1 273 0
 281 0018 054A     		ldr	r2, .L31+8
 282 001a 064B     		ldr	r3, .L31+12
 283 001c 1A60     		str	r2, [r3, #0]
 284              		.loc 1 274 0
 285 001e FFF7FEFF 		bl	port_halt
 286              	.LBE39:
 287              	.LBE38:
 288              		.loc 1 130 0
 289 0022 0020     		movs	r0, #0
 290 0024 2060     		str	r0, [r4, #0]
 291              		.loc 1 131 0
 292 0026 10BD     		pop	{r4, pc}
 293              	.L32:
 294              		.align	2
 295              	.L31:
 296 0028 00000000 		.word	.LANCHOR0
 297 002c 00000000 		.word	.LANCHOR1
 298 0030 20000000 		.word	.LC4
 299 0034 00000000 		.word	.LANCHOR2
 300              		.cfi_endproc
 301              	.LFE4:
 302              		.size	dbg_check_unlock, .-dbg_check_unlock
 303 0038 AFF30080 		.section	.text.dbg_check_lock_from_isr,"ax",%progbits
 303      AFF30080 
 304              		.align	2
 305              		.p2align 4,,15
 306              		.global	dbg_check_lock_from_isr
 307              		.thumb
 308              		.thumb_func
 309              		.type	dbg_check_lock_from_isr, %function
 310              	dbg_check_lock_from_isr:
 311              	.LFB5:
 312              		.loc 1 138 0
 313              		.cfi_startproc
 314              		@ args = 0, pretend = 0, frame = 0
 315              		@ frame_needed = 0, uses_anonymous_args = 0
 316              		.loc 1 140 0
 317 0000 0848     		ldr	r0, .L39
 318              		.loc 1 138 0
 319 0002 10B5     		push	{r4, lr}
 320              	.LCFI2:
 321              		.cfi_def_cfa_offset 8
 322              		.loc 1 140 0
 323 0004 0368     		ldr	r3, [r0, #0]
 324 0006 002B     		cmp	r3, #0
 325 0008 0ADD     		ble	.L38
 326              		.cfi_offset 14, -4
 327              		.cfi_offset 4, -8
 328              		.loc 1 140 0 is_stmt 0 discriminator 1
 329 000a 074C     		ldr	r4, .L39+4
 330 000c 2168     		ldr	r1, [r4, #0]
 331 000e 21B1     		cbz	r1, .L35
 332              	.L34:
ARM GAS  /tmp/ccRGHuOC.s 			page 7


 333              	.LVL9:
 334              	.LBB40:
 335              	.LBB41:
 336              		.loc 1 273 0 is_stmt 1
 337 0010 064A     		ldr	r2, .L39+8
 338 0012 074B     		ldr	r3, .L39+12
 339 0014 1A60     		str	r2, [r3, #0]
 340              		.loc 1 274 0
 341 0016 FFF7FEFF 		bl	port_halt
 342              	.LVL10:
 343              	.L35:
 344              	.LBE41:
 345              	.LBE40:
 346              		.loc 1 142 0
 347 001a 0120     		movs	r0, #1
 348 001c 2060     		str	r0, [r4, #0]
 349              		.loc 1 143 0
 350 001e 10BD     		pop	{r4, pc}
 351              	.L38:
 352 0020 014C     		ldr	r4, .L39+4
 353 0022 F5E7     		b	.L34
 354              	.L40:
 355              		.align	2
 356              	.L39:
 357 0024 00000000 		.word	.LANCHOR0
 358 0028 00000000 		.word	.LANCHOR1
 359 002c 28000000 		.word	.LC5
 360 0030 00000000 		.word	.LANCHOR2
 361              		.cfi_endproc
 362              	.LFE5:
 363              		.size	dbg_check_lock_from_isr, .-dbg_check_lock_from_isr
 364 0034 AFF30080 		.section	.text.dbg_check_unlock_from_isr,"ax",%progbits
 364      AFF30080 
 364      AFF30080 
 365              		.align	2
 366              		.p2align 4,,15
 367              		.global	dbg_check_unlock_from_isr
 368              		.thumb
 369              		.thumb_func
 370              		.type	dbg_check_unlock_from_isr, %function
 371              	dbg_check_unlock_from_isr:
 372              	.LFB6:
 373              		.loc 1 150 0
 374              		.cfi_startproc
 375              		@ args = 0, pretend = 0, frame = 0
 376              		@ frame_needed = 0, uses_anonymous_args = 0
 377              		.loc 1 152 0
 378 0000 0A48     		ldr	r0, .L47
 379              		.loc 1 150 0
 380 0002 10B5     		push	{r4, lr}
 381              	.LCFI3:
 382              		.cfi_def_cfa_offset 8
 383              		.loc 1 152 0
 384 0004 0368     		ldr	r3, [r0, #0]
 385 0006 002B     		cmp	r3, #0
 386 0008 06DD     		ble	.L46
 387              		.cfi_offset 14, -4
ARM GAS  /tmp/ccRGHuOC.s 			page 8


 388              		.cfi_offset 4, -8
 389              		.loc 1 152 0 is_stmt 0 discriminator 1
 390 000a 094C     		ldr	r4, .L47+4
 391 000c 2168     		ldr	r1, [r4, #0]
 392 000e 0029     		cmp	r1, #0
 393 0010 03DD     		ble	.L42
 394              		.loc 1 154 0 is_stmt 1
 395 0012 0020     		movs	r0, #0
 396 0014 2060     		str	r0, [r4, #0]
 397              		.loc 1 155 0
 398 0016 10BD     		pop	{r4, pc}
 399              	.L46:
 400 0018 054C     		ldr	r4, .L47+4
 401              	.L42:
 402              	.LVL11:
 403              	.LBB42:
 404              	.LBB43:
 405              		.loc 1 273 0
 406 001a 064A     		ldr	r2, .L47+8
 407 001c 064B     		ldr	r3, .L47+12
 408 001e 1A60     		str	r2, [r3, #0]
 409              		.loc 1 274 0
 410 0020 FFF7FEFF 		bl	port_halt
 411              	.LBE43:
 412              	.LBE42:
 413              		.loc 1 154 0
 414 0024 0020     		movs	r0, #0
 415 0026 2060     		str	r0, [r4, #0]
 416              		.loc 1 155 0
 417 0028 10BD     		pop	{r4, pc}
 418              	.L48:
 419 002a 00BF     		.align	2
 420              	.L47:
 421 002c 00000000 		.word	.LANCHOR0
 422 0030 00000000 		.word	.LANCHOR1
 423 0034 30000000 		.word	.LC6
 424 0038 00000000 		.word	.LANCHOR2
 425              		.cfi_endproc
 426              	.LFE6:
 427              		.size	dbg_check_unlock_from_isr, .-dbg_check_unlock_from_isr
 428 003c AFF30080 		.section	.text.dbg_check_enter_isr,"ax",%progbits
 429              		.align	2
 430              		.p2align 4,,15
 431              		.global	dbg_check_enter_isr
 432              		.thumb
 433              		.thumb_func
 434              		.type	dbg_check_enter_isr, %function
 435              	dbg_check_enter_isr:
 436              	.LFB7:
 437              		.loc 1 162 0
 438              		.cfi_startproc
 439              		@ args = 0, pretend = 0, frame = 0
 440              		@ frame_needed = 0, uses_anonymous_args = 0
 441 0000 10B5     		push	{r4, lr}
 442              	.LCFI4:
 443              		.cfi_def_cfa_offset 8
 444              		.loc 1 164 0
ARM GAS  /tmp/ccRGHuOC.s 			page 9


 445              	@ 164 "../chibios_2.4.x/os/kernel/src/chdebug.c" 1
 446 0002 FFF7FEFF 		bl      _port_lock
 447              	@ 0 "" 2
 448              		.loc 1 165 0
 449              		.thumb
 450 0006 094C     		ldr	r4, .L52
 451              		.cfi_offset 14, -4
 452              		.cfi_offset 4, -8
 453 0008 2368     		ldr	r3, [r4, #0]
 454 000a 002B     		cmp	r3, #0
 455 000c 02DB     		blt	.L50
 456              		.loc 1 165 0 is_stmt 0 discriminator 1
 457 000e 0848     		ldr	r0, .L52+4
 458 0010 0268     		ldr	r2, [r0, #0]
 459 0012 2AB1     		cbz	r2, .L51
 460              	.L50:
 461              	.LVL12:
 462              	.LBB44:
 463              	.LBB45:
 464              		.loc 1 273 0 is_stmt 1
 465 0014 074B     		ldr	r3, .L52+8
 466 0016 0849     		ldr	r1, .L52+12
 467 0018 1960     		str	r1, [r3, #0]
 468              		.loc 1 274 0
 469 001a FFF7FEFF 		bl	port_halt
 470 001e 2368     		ldr	r3, [r4, #0]
 471              	.LVL13:
 472              	.L51:
 473              	.LBE45:
 474              	.LBE44:
 475              		.loc 1 167 0
 476 0020 5A1C     		adds	r2, r3, #1
 477 0022 2260     		str	r2, [r4, #0]
 478              		.loc 1 168 0
 479              	@ 168 "../chibios_2.4.x/os/kernel/src/chdebug.c" 1
 480 0024 FFF7FEFF 		bl      _port_unlock
 481              	@ 0 "" 2
 482              		.loc 1 169 0
 483              		.thumb
 484 0028 10BD     		pop	{r4, pc}
 485              	.L53:
 486 002a 00BF     		.align	2
 487              	.L52:
 488 002c 00000000 		.word	.LANCHOR0
 489 0030 00000000 		.word	.LANCHOR1
 490 0034 00000000 		.word	.LANCHOR2
 491 0038 38000000 		.word	.LC7
 492              		.cfi_endproc
 493              	.LFE7:
 494              		.size	dbg_check_enter_isr, .-dbg_check_enter_isr
 495 003c AFF30080 		.section	.text.dbg_check_leave_isr,"ax",%progbits
 496              		.align	2
 497              		.p2align 4,,15
 498              		.global	dbg_check_leave_isr
 499              		.thumb
 500              		.thumb_func
 501              		.type	dbg_check_leave_isr, %function
ARM GAS  /tmp/ccRGHuOC.s 			page 10


 502              	dbg_check_leave_isr:
 503              	.LFB8:
 504              		.loc 1 176 0
 505              		.cfi_startproc
 506              		@ args = 0, pretend = 0, frame = 0
 507              		@ frame_needed = 0, uses_anonymous_args = 0
 508 0000 10B5     		push	{r4, lr}
 509              	.LCFI5:
 510              		.cfi_def_cfa_offset 8
 511              		.loc 1 178 0
 512              	@ 178 "../chibios_2.4.x/os/kernel/src/chdebug.c" 1
 513 0002 FFF7FEFF 		bl      _port_lock
 514              	@ 0 "" 2
 515              		.loc 1 179 0
 516              		.thumb
 517 0006 094C     		ldr	r4, .L57
 518              		.cfi_offset 14, -4
 519              		.cfi_offset 4, -8
 520 0008 2368     		ldr	r3, [r4, #0]
 521 000a 002B     		cmp	r3, #0
 522 000c 02DD     		ble	.L55
 523              		.loc 1 179 0 is_stmt 0 discriminator 1
 524 000e 0848     		ldr	r0, .L57+4
 525 0010 0268     		ldr	r2, [r0, #0]
 526 0012 2AB1     		cbz	r2, .L56
 527              	.L55:
 528              	.LVL14:
 529              	.LBB46:
 530              	.LBB47:
 531              		.loc 1 273 0 is_stmt 1
 532 0014 074B     		ldr	r3, .L57+8
 533 0016 0849     		ldr	r1, .L57+12
 534 0018 1960     		str	r1, [r3, #0]
 535              		.loc 1 274 0
 536 001a FFF7FEFF 		bl	port_halt
 537 001e 2368     		ldr	r3, [r4, #0]
 538              	.LVL15:
 539              	.L56:
 540              	.LBE47:
 541              	.LBE46:
 542              		.loc 1 181 0
 543 0020 5A1E     		subs	r2, r3, #1
 544 0022 2260     		str	r2, [r4, #0]
 545              		.loc 1 182 0
 546              	@ 182 "../chibios_2.4.x/os/kernel/src/chdebug.c" 1
 547 0024 FFF7FEFF 		bl      _port_unlock
 548              	@ 0 "" 2
 549              		.loc 1 183 0
 550              		.thumb
 551 0028 10BD     		pop	{r4, pc}
 552              	.L58:
 553 002a 00BF     		.align	2
 554              	.L57:
 555 002c 00000000 		.word	.LANCHOR0
 556 0030 00000000 		.word	.LANCHOR1
 557 0034 00000000 		.word	.LANCHOR2
 558 0038 40000000 		.word	.LC8
ARM GAS  /tmp/ccRGHuOC.s 			page 11


 559              		.cfi_endproc
 560              	.LFE8:
 561              		.size	dbg_check_leave_isr, .-dbg_check_leave_isr
 562 003c AFF30080 		.section	.text.chDbgCheckClassI,"ax",%progbits
 563              		.align	2
 564              		.p2align 4,,15
 565              		.global	chDbgCheckClassI
 566              		.thumb
 567              		.thumb_func
 568              		.type	chDbgCheckClassI, %function
 569              	chDbgCheckClassI:
 570              	.LFB9:
 571              		.loc 1 193 0
 572              		.cfi_startproc
 573              		@ args = 0, pretend = 0, frame = 0
 574              		@ frame_needed = 0, uses_anonymous_args = 0
 575              		@ link register save eliminated.
 576              		.loc 1 195 0
 577 0000 0648     		ldr	r0, .L62
 578 0002 0368     		ldr	r3, [r0, #0]
 579 0004 002B     		cmp	r3, #0
 580 0006 04DB     		blt	.L60
 581              		.loc 1 195 0 is_stmt 0 discriminator 1
 582 0008 054A     		ldr	r2, .L62+4
 583 000a 1168     		ldr	r1, [r2, #0]
 584 000c 0029     		cmp	r1, #0
 585 000e 00DD     		ble	.L60
 586 0010 7047     		bx	lr
 587              	.L60:
 588              	.LVL16:
 589              	.LBB48:
 590              	.LBB49:
 591              		.loc 1 273 0 is_stmt 1
 592 0012 0448     		ldr	r0, .L62+8
 593 0014 044B     		ldr	r3, .L62+12
 594 0016 1860     		str	r0, [r3, #0]
 595              	.LBE49:
 596              	.LBE48:
 597              		.loc 1 197 0
 598              	.LBB51:
 599              	.LBB50:
 600              		.loc 1 274 0
 601 0018 FFF7FEBF 		b	port_halt
 602              	.L63:
 603              		.align	2
 604              	.L62:
 605 001c 00000000 		.word	.LANCHOR0
 606 0020 00000000 		.word	.LANCHOR1
 607 0024 48000000 		.word	.LC9
 608 0028 00000000 		.word	.LANCHOR2
 609              	.LBE50:
 610              	.LBE51:
 611              		.cfi_endproc
 612              	.LFE9:
 613              		.size	chDbgCheckClassI, .-chDbgCheckClassI
 614 002c AFF30080 		.section	.text.chDbgCheckClassS,"ax",%progbits
 615              		.align	2
ARM GAS  /tmp/ccRGHuOC.s 			page 12


 616              		.p2align 4,,15
 617              		.global	chDbgCheckClassS
 618              		.thumb
 619              		.thumb_func
 620              		.type	chDbgCheckClassS, %function
 621              	chDbgCheckClassS:
 622              	.LFB10:
 623              		.loc 1 207 0
 624              		.cfi_startproc
 625              		@ args = 0, pretend = 0, frame = 0
 626              		@ frame_needed = 0, uses_anonymous_args = 0
 627              		@ link register save eliminated.
 628              		.loc 1 209 0
 629 0000 0648     		ldr	r0, .L67
 630 0002 0368     		ldr	r3, [r0, #0]
 631 0004 23B9     		cbnz	r3, .L65
 632              		.loc 1 209 0 is_stmt 0 discriminator 1
 633 0006 064A     		ldr	r2, .L67+4
 634 0008 1168     		ldr	r1, [r2, #0]
 635 000a 0029     		cmp	r1, #0
 636 000c 00DD     		ble	.L65
 637 000e 7047     		bx	lr
 638              	.L65:
 639              	.LVL17:
 640              	.LBB52:
 641              	.LBB53:
 642              		.loc 1 273 0 is_stmt 1
 643 0010 0448     		ldr	r0, .L67+8
 644 0012 054B     		ldr	r3, .L67+12
 645 0014 1860     		str	r0, [r3, #0]
 646              	.LBE53:
 647              	.LBE52:
 648              		.loc 1 211 0
 649              	.LBB55:
 650              	.LBB54:
 651              		.loc 1 274 0
 652 0016 FFF7FEBF 		b	port_halt
 653              	.L68:
 654 001a 00BF     		.align	2
 655              	.L67:
 656 001c 00000000 		.word	.LANCHOR0
 657 0020 00000000 		.word	.LANCHOR1
 658 0024 50000000 		.word	.LC10
 659 0028 00000000 		.word	.LANCHOR2
 660              	.LBE54:
 661              	.LBE55:
 662              		.cfi_endproc
 663              	.LFE10:
 664              		.size	chDbgCheckClassS, .-chDbgCheckClassS
 665 002c AFF30080 		.section	.text._trace_init,"ax",%progbits
 666              		.align	2
 667              		.p2align 4,,15
 668              		.global	_trace_init
 669              		.thumb
 670              		.thumb_func
 671              		.type	_trace_init, %function
 672              	_trace_init:
ARM GAS  /tmp/ccRGHuOC.s 			page 13


 673              	.LFB11:
 674              		.loc 1 229 0
 675              		.cfi_startproc
 676              		@ args = 0, pretend = 0, frame = 0
 677              		@ frame_needed = 0, uses_anonymous_args = 0
 678              		@ link register save eliminated.
 679              		.loc 1 231 0
 680 0000 034A     		ldr	r2, .L70
 681 0002 4021     		movs	r1, #64
 682 0004 1346     		mov	r3, r2
 683 0006 43F8081B 		str	r1, [r3], #8
 684              		.loc 1 232 0
 685 000a 5360     		str	r3, [r2, #4]
 686              		.loc 1 233 0
 687 000c 7047     		bx	lr
 688              	.L71:
 689 000e 00BF     		.align	2
 690              	.L70:
 691 0010 00000000 		.word	.LANCHOR3
 692              		.cfi_endproc
 693              	.LFE11:
 694              		.size	_trace_init, .-_trace_init
 695 0014 AFF30080 		.section	.text.dbg_trace,"ax",%progbits
 695      AFF30080 
 695      AFF30080 
 696              		.align	2
 697              		.p2align 4,,15
 698              		.global	dbg_trace
 699              		.thumb
 700              		.thumb_func
 701              		.type	dbg_trace, %function
 702              	dbg_trace:
 703              	.LFB12:
 704              		.loc 1 242 0
 705              		.cfi_startproc
 706              		@ args = 0, pretend = 0, frame = 0
 707              		@ frame_needed = 0, uses_anonymous_args = 0
 708              		@ link register save eliminated.
 709              	.LVL18:
 710 0000 10B4     		push	{r4}
 711              	.LCFI6:
 712              		.cfi_def_cfa_offset 4
 713              		.loc 1 244 0
 714 0002 0D4A     		ldr	r2, .L74
 715 0004 0D4C     		ldr	r4, .L74+4
 716              		.cfi_offset 4, -4
 717              		.loc 1 245 0
 718 0006 0E49     		ldr	r1, .L74+8
 719              		.loc 1 244 0
 720 0008 5368     		ldr	r3, [r2, #4]
 721 000a E468     		ldr	r4, [r4, #12]
 722              		.loc 1 245 0
 723 000c C969     		ldr	r1, [r1, #28]
 724              		.loc 1 244 0
 725 000e 1C60     		str	r4, [r3, #0]
 726              		.loc 1 245 0
 727 0010 5960     		str	r1, [r3, #4]
ARM GAS  /tmp/ccRGHuOC.s 			page 14


 728              		.loc 1 246 0
 729 0012 846A     		ldr	r4, [r0, #40]
 730              		.loc 1 248 0
 731 0014 03F11001 		add	r1, r3, #16
 732              		.loc 1 246 0
 733 0018 9C60     		str	r4, [r3, #8]
 734              		.loc 1 247 0
 735 001a 90F82040 		ldrb	r4, [r0, #32]	@ zero_extendqisi2
 736              		.loc 1 249 0
 737 001e 02F58160 		add	r0, r2, #1032
 738              	.LVL19:
 739              		.loc 1 248 0
 740 0022 8142     		cmp	r1, r0
 741              		.loc 1 247 0
 742 0024 1C73     		strb	r4, [r3, #12]
 743              		.loc 1 250 0
 744 0026 28BF     		it	cs
 745 0028 02F10803 		addcs	r3, r2, #8
 746              		.loc 1 248 0
 747 002c 5160     		str	r1, [r2, #4]
 748              		.loc 1 250 0
 749 002e 28BF     		it	cs
 750 0030 5360     		strcs	r3, [r2, #4]
 751              		.loc 1 251 0
 752 0032 10BC     		pop	{r4}
 753 0034 7047     		bx	lr
 754              	.L75:
 755 0036 00BF     		.align	2
 756              	.L74:
 757 0038 00000000 		.word	.LANCHOR3
 758 003c 00000000 		.word	vtlist
 759 0040 00000000 		.word	rlist
 760              		.cfi_endproc
 761              	.LFE12:
 762              		.size	dbg_trace, .-dbg_trace
 763 0044 AFF30080 		.section	.text.chDbgPanic,"ax",%progbits
 763      AFF30080 
 763      AFF30080 
 764              		.align	2
 765              		.p2align 4,,15
 766              		.global	chDbgPanic
 767              		.thumb
 768              		.thumb_func
 769              		.type	chDbgPanic, %function
 770              	chDbgPanic:
 771              	.LFB13:
 772              		.loc 1 271 0
 773              		.cfi_startproc
 774              		@ args = 0, pretend = 0, frame = 0
 775              		@ frame_needed = 0, uses_anonymous_args = 0
 776              		@ link register save eliminated.
 777              	.LVL20:
 778              		.loc 1 273 0
 779 0000 014B     		ldr	r3, .L77
 780 0002 1860     		str	r0, [r3, #0]
 781              		.loc 1 275 0
 782              		.loc 1 274 0
ARM GAS  /tmp/ccRGHuOC.s 			page 15


 783 0004 FFF7FEBF 		b	port_halt
 784              	.LVL21:
 785              	.L78:
 786              		.align	2
 787              	.L77:
 788 0008 00000000 		.word	.LANCHOR2
 789              		.cfi_endproc
 790              	.LFE13:
 791              		.size	chDbgPanic, .-chDbgPanic
 792              		.global	dbg_trace_buffer
 793              		.global	dbg_panic_msg
 794              		.global	dbg_isr_cnt
 795              		.global	dbg_lock_cnt
 796 000c AFF30080 		.section	.bss.dbg_isr_cnt,"aw",%nobits
 797              		.align	2
 798              		.set	.LANCHOR0,. + 0
 799              		.type	dbg_isr_cnt, %object
 800              		.size	dbg_isr_cnt, 4
 801              	dbg_isr_cnt:
 802 0000 00000000 		.space	4
 803              		.section	.bss.dbg_trace_buffer,"aw",%nobits
 804              		.align	2
 805              		.set	.LANCHOR3,. + 0
 806              		.type	dbg_trace_buffer, %object
 807              		.size	dbg_trace_buffer, 1032
 808              	dbg_trace_buffer:
 809 0000 00000000 		.space	1032
 809      00000000 
 809      00000000 
 809      00000000 
 809      00000000 
 810              		.section	.rodata.str1.4,"aMS",%progbits,1
 811              		.align	2
 812              	.LC0:
 813 0000 53562331 		.ascii	"SV#1\000"
 813      00
 814 0005 000000   		.space	3
 815              	.LC1:
 816 0008 53562332 		.ascii	"SV#2\000"
 816      00
 817 000d 000000   		.space	3
 818              	.LC2:
 819 0010 53562333 		.ascii	"SV#3\000"
 819      00
 820 0015 000000   		.space	3
 821              	.LC3:
 822 0018 53562334 		.ascii	"SV#4\000"
 822      00
 823 001d 000000   		.space	3
 824              	.LC4:
 825 0020 53562335 		.ascii	"SV#5\000"
 825      00
 826 0025 000000   		.space	3
 827              	.LC5:
 828 0028 53562336 		.ascii	"SV#6\000"
 828      00
 829 002d 000000   		.space	3
ARM GAS  /tmp/ccRGHuOC.s 			page 16


 830              	.LC6:
 831 0030 53562337 		.ascii	"SV#7\000"
 831      00
 832 0035 000000   		.space	3
 833              	.LC7:
 834 0038 53562338 		.ascii	"SV#8\000"
 834      00
 835 003d 000000   		.space	3
 836              	.LC8:
 837 0040 53562339 		.ascii	"SV#9\000"
 837      00
 838 0045 000000   		.space	3
 839              	.LC9:
 840 0048 53562331 		.ascii	"SV#10\000"
 840      3000
 841 004e 0000     		.space	2
 842              	.LC10:
 843 0050 53562331 		.ascii	"SV#11\000"
 843      3100
 844 0056 0000     		.section	.bss.dbg_lock_cnt,"aw",%nobits
 845              		.align	2
 846              		.set	.LANCHOR1,. + 0
 847              		.type	dbg_lock_cnt, %object
 848              		.size	dbg_lock_cnt, 4
 849              	dbg_lock_cnt:
 850 0000 00000000 		.space	4
 851              		.section	.bss.dbg_panic_msg,"aw",%nobits
 852              		.align	2
 853              		.set	.LANCHOR2,. + 0
 854              		.type	dbg_panic_msg, %object
 855              		.size	dbg_panic_msg, 4
 856              	dbg_panic_msg:
 857 0000 00000000 		.space	4
 858              		.text
 859              	.Letext0: