ARM GAS  /tmp/ccAZCrX2.s 			page 1


   1              		.syntax unified
   2              		.cpu cortex-m3
   3              		.fpu softvfp
   4              		.eabi_attribute 20, 1
   5              		.eabi_attribute 21, 1
   6              		.eabi_attribute 23, 3
   7              		.eabi_attribute 24, 1
   8              		.eabi_attribute 25, 1
   9              		.eabi_attribute 26, 1
  10              		.eabi_attribute 30, 2
  11              		.eabi_attribute 18, 4
  12              		.thumb
  13              		.file	"chdynamic.c"
  14              		.section	.debug_abbrev,"",%progbits
  15              	.Ldebug_abbrev0:
  16              		.section	.debug_info,"",%progbits
  17              	.Ldebug_info0:
  18              		.section	.debug_line,"",%progbits
  19              	.Ldebug_line0:
  20 0000 87020000 		.text
  20      0200D801 
  20      00000201 
  20      FB0E0D00 
  20      01010101 
  21              	.Ltext0:
  22              		.cfi_sections	.debug_frame
  23              		.section	.text.chThdAddRef,"ax",%progbits
  24              		.align	2
  25              		.p2align 4,,15
  26              		.global	chThdAddRef
  27              		.thumb
  28              		.thumb_func
  29              		.type	chThdAddRef, %function
  30              	chThdAddRef:
  31              	.LFB0:
  32              		.file 1 "../chibios_2.4.x/os/kernel/src/chdynamic.c"
  33              		.loc 1 52 0
  34              		.cfi_startproc
  35              		@ args = 0, pretend = 0, frame = 0
  36              		@ frame_needed = 0, uses_anonymous_args = 0
  37              	.LVL0:
  38 0000 10B5     		push	{r4, lr}
  39              	.LCFI0:
  40              		.cfi_def_cfa_offset 8
  41              		.loc 1 52 0
  42 0002 0446     		mov	r4, r0
  43              		.cfi_offset 14, -4
  44              		.cfi_offset 4, -8
  45              		.loc 1 54 0
  46              	@ 54 "../chibios_2.4.x/os/kernel/src/chdynamic.c" 1
  47 0004 FFF7FEFF 		bl      _port_lock
  48              	@ 0 "" 2
  49              		.thumb
  50 0008 FFF7FEFF 		bl	dbg_check_lock
  51              	.LVL1:
  52              		.loc 1 55 0
  53 000c 94F82230 		ldrb	r3, [r4, #34]	@ zero_extendqisi2
ARM GAS  /tmp/ccAZCrX2.s 			page 2


  54 0010 FF2B     		cmp	r3, #255
  55 0012 08D0     		beq	.L4
  56              		.loc 1 56 0
  57 0014 0133     		adds	r3, r3, #1
  58 0016 84F82230 		strb	r3, [r4, #34]
  59              		.loc 1 57 0
  60 001a FFF7FEFF 		bl	dbg_check_unlock
  61              	@ 57 "../chibios_2.4.x/os/kernel/src/chdynamic.c" 1
  62 001e FFF7FEFF 		bl      _port_unlock
  63              	@ 0 "" 2
  64              		.loc 1 59 0
  65              		.thumb
  66 0022 2046     		mov	r0, r4
  67 0024 10BD     		pop	{r4, pc}
  68              	.L4:
  69              		.loc 1 55 0 discriminator 1
  70 0026 0748     		ldr	r0, .L5
  71 0028 FFF7FEFF 		bl	chDbgPanic
  72 002c 94F82230 		ldrb	r3, [r4, #34]	@ zero_extendqisi2
  73              		.loc 1 56 0 discriminator 1
  74 0030 0133     		adds	r3, r3, #1
  75 0032 84F82230 		strb	r3, [r4, #34]
  76              		.loc 1 57 0 discriminator 1
  77 0036 FFF7FEFF 		bl	dbg_check_unlock
  78              	@ 57 "../chibios_2.4.x/os/kernel/src/chdynamic.c" 1
  79 003a FFF7FEFF 		bl      _port_unlock
  80              	@ 0 "" 2
  81              		.loc 1 59 0 discriminator 1
  82              		.thumb
  83 003e 2046     		mov	r0, r4
  84 0040 10BD     		pop	{r4, pc}
  85              	.L6:
  86 0042 00BF     		.align	2
  87              	.L5:
  88 0044 00000000 		.word	.LC0
  89              		.cfi_endproc
  90              	.LFE0:
  91              		.size	chThdAddRef, .-chThdAddRef
  92 0048 AFF30080 		.section	.text.chThdRelease,"ax",%progbits
  92      AFF30080 
  93              		.align	2
  94              		.p2align 4,,15
  95              		.global	chThdRelease
  96              		.thumb
  97              		.thumb_func
  98              		.type	chThdRelease, %function
  99              	chThdRelease:
 100              	.LFB1:
 101              		.loc 1 74 0
 102              		.cfi_startproc
 103              		@ args = 0, pretend = 0, frame = 0
 104              		@ frame_needed = 0, uses_anonymous_args = 0
 105              	.LVL2:
 106 0000 70B5     		push	{r4, r5, r6, lr}
 107              	.LCFI1:
 108              		.cfi_def_cfa_offset 16
 109              		.loc 1 74 0
ARM GAS  /tmp/ccAZCrX2.s 			page 3


 110 0002 0446     		mov	r4, r0
 111              		.cfi_offset 14, -4
 112              		.cfi_offset 6, -8
 113              		.cfi_offset 5, -12
 114              		.cfi_offset 4, -16
 115              		.loc 1 77 0
 116              	@ 77 "../chibios_2.4.x/os/kernel/src/chdynamic.c" 1
 117 0004 FFF7FEFF 		bl      _port_lock
 118              	@ 0 "" 2
 119              		.thumb
 120 0008 FFF7FEFF 		bl	dbg_check_lock
 121              	.LVL3:
 122              		.loc 1 78 0
 123 000c 94F82250 		ldrb	r5, [r4, #34]	@ zero_extendqisi2
 124 0010 002D     		cmp	r5, #0
 125 0012 20D0     		beq	.L12
 126              	.L8:
 127              		.loc 1 79 0
 128 0014 013D     		subs	r5, r5, #1
 129 0016 EDB2     		uxtb	r5, r5
 130 0018 84F82250 		strb	r5, [r4, #34]
 131              	.LVL4:
 132              		.loc 1 80 0
 133 001c FFF7FEFF 		bl	dbg_check_unlock
 134              	@ 80 "../chibios_2.4.x/os/kernel/src/chdynamic.c" 1
 135 0020 FFF7FEFF 		bl      _port_unlock
 136              	@ 0 "" 2
 137              		.loc 1 85 0
 138              		.thumb
 139 0024 1DB9     		cbnz	r5, .L7
 140              		.loc 1 85 0 is_stmt 0 discriminator 1
 141 0026 94F82030 		ldrb	r3, [r4, #32]	@ zero_extendqisi2
 142 002a 0E2B     		cmp	r3, #14
 143 002c 00D0     		beq	.L13
 144              	.L7:
 145 002e 70BD     		pop	{r4, r5, r6, pc}
 146              	.L13:
 147              		.loc 1 86 0 is_stmt 1
 148 0030 94F82100 		ldrb	r0, [r4, #33]	@ zero_extendqisi2
 149 0034 00F00303 		and	r3, r0, #3
 150 0038 012B     		cmp	r3, #1
 151 003a 12D0     		beq	.L10
 152 003c 022B     		cmp	r3, #2
 153 003e F6D1     		bne	.L7
 154              		.loc 1 98 0
 155 0040 6369     		ldr	r3, [r4, #20]
 156 0042 2169     		ldr	r1, [r4, #16]
 157              		.loc 1 100 0
 158 0044 A06C     		ldr	r0, [r4, #72]
 159              		.loc 1 98 0
 160 0046 1961     		str	r1, [r3, #16]
 161 0048 2269     		ldr	r2, [r4, #16]
 162              		.loc 1 100 0
 163 004a 2146     		mov	r1, r4
 164              		.loc 1 98 0
 165 004c 5361     		str	r3, [r2, #20]
 166              		.loc 1 105 0
ARM GAS  /tmp/ccAZCrX2.s 			page 4


 167 004e BDE87040 		pop	{r4, r5, r6, lr}
 168              		.loc 1 100 0
 169 0052 FFF7FEBF 		b	chPoolFree
 170              	.LVL5:
 171              	.L12:
 172              		.loc 1 78 0 discriminator 1
 173 0056 0848     		ldr	r0, .L14
 174 0058 FFF7FEFF 		bl	chDbgPanic
 175 005c 94F82250 		ldrb	r5, [r4, #34]	@ zero_extendqisi2
 176 0060 D8E7     		b	.L8
 177              	.LVL6:
 178              	.L10:
 179              		.loc 1 90 0
 180 0062 6169     		ldr	r1, [r4, #20]
 181 0064 2369     		ldr	r3, [r4, #16]
 182              		.loc 1 92 0
 183 0066 2046     		mov	r0, r4
 184              		.loc 1 90 0
 185 0068 0B61     		str	r3, [r1, #16]
 186 006a 2269     		ldr	r2, [r4, #16]
 187 006c 5161     		str	r1, [r2, #20]
 188              		.loc 1 105 0
 189 006e BDE87040 		pop	{r4, r5, r6, lr}
 190              		.loc 1 92 0
 191 0072 FFF7FEBF 		b	chHeapFree
 192              	.L15:
 193 0076 00BF     		.align	2
 194              	.L14:
 195 0078 14000000 		.word	.LC1
 196              		.cfi_endproc
 197              	.LFE1:
 198              		.size	chThdRelease, .-chThdRelease
 199              		.section	.text.chThdCreateFromHeap,"ax",%progbits
 200              		.align	2
 201              		.p2align 4,,15
 202              		.global	chThdCreateFromHeap
 203              		.thumb
 204              		.thumb_func
 205              		.type	chThdCreateFromHeap, %function
 206              	chThdCreateFromHeap:
 207              	.LFB2:
 208              		.loc 1 131 0
 209              		.cfi_startproc
 210              		@ args = 4, pretend = 0, frame = 0
 211              		@ frame_needed = 0, uses_anonymous_args = 0
 212              	.LVL7:
 213 0000 2DE9F041 		push	{r4, r5, r6, r7, r8, lr}
 214              	.LCFI2:
 215              		.cfi_def_cfa_offset 24
 216 0004 82B0     		sub	sp, sp, #8
 217              	.LCFI3:
 218              		.cfi_def_cfa_offset 32
 219              		.loc 1 131 0
 220 0006 0D46     		mov	r5, r1
 221              		.cfi_offset 14, -4
 222              		.cfi_offset 8, -8
 223              		.cfi_offset 7, -12
ARM GAS  /tmp/ccAZCrX2.s 			page 5


 224              		.cfi_offset 6, -16
 225              		.cfi_offset 5, -20
 226              		.cfi_offset 4, -24
 227 0008 1746     		mov	r7, r2
 228 000a 1E46     		mov	r6, r3
 229              		.loc 1 135 0
 230 000c FFF7FEFF 		bl	chHeapAlloc
 231              	.LVL8:
 232              		.loc 1 136 0
 233 0010 0446     		mov	r4, r0
 234 0012 08B3     		cbz	r0, .L17
 235              		.loc 1 140 0
 236 0014 00F14C08 		add	r8, r0, #76
 237 0018 4146     		mov	r1, r8
 238 001a FF22     		movs	r2, #255
 239 001c FFF7FEFF 		bl	_thread_memfill
 240              	.LVL9:
 241              		.loc 1 143 0
 242 0020 4046     		mov	r0, r8
 243 0022 6119     		adds	r1, r4, r5
 244 0024 5522     		movs	r2, #85
 245 0026 FFF7FEFF 		bl	_thread_memfill
 246              		.loc 1 148 0
 247              	@ 148 "../chibios_2.4.x/os/kernel/src/chdynamic.c" 1
 248 002a FFF7FEFF 		bl      _port_lock
 249              	@ 0 "" 2
 250              		.thumb
 251 002e FFF7FEFF 		bl	dbg_check_lock
 252              		.loc 1 149 0
 253 0032 2046     		mov	r0, r4
 254 0034 089C     		ldr	r4, [sp, #32]
 255              	.LVL10:
 256 0036 3A46     		mov	r2, r7
 257 0038 3346     		mov	r3, r6
 258 003a 2946     		mov	r1, r5
 259 003c 0094     		str	r4, [sp, #0]
 260 003e FFF7FEFF 		bl	chThdCreateI
 261              	.LVL11:
 262              		.loc 1 150 0
 263 0042 0123     		movs	r3, #1
 264              		.loc 1 151 0
 265 0044 0021     		movs	r1, #0
 266              		.loc 1 150 0
 267 0046 80F82130 		strb	r3, [r0, #33]
 268              		.loc 1 149 0
 269 004a 0446     		mov	r4, r0
 270              	.LVL12:
 271              		.loc 1 151 0
 272 004c FFF7FEFF 		bl	chSchWakeupS
 273              	.LVL13:
 274              		.loc 1 152 0
 275 0050 FFF7FEFF 		bl	dbg_check_unlock
 276              	@ 152 "../chibios_2.4.x/os/kernel/src/chdynamic.c" 1
 277 0054 FFF7FEFF 		bl      _port_unlock
 278              	@ 0 "" 2
 279              	.LVL14:
 280              		.thumb
ARM GAS  /tmp/ccAZCrX2.s 			page 6


 281              	.L17:
 282              		.loc 1 154 0
 283 0058 2046     		mov	r0, r4
 284 005a 02B0     		add	sp, sp, #8
 285 005c BDE8F081 		pop	{r4, r5, r6, r7, r8, pc}
 286              		.cfi_endproc
 287              	.LFE2:
 288              		.size	chThdCreateFromHeap, .-chThdCreateFromHeap
 289              		.section	.text.chThdCreateFromMemoryPool,"ax",%progbits
 290              		.align	2
 291              		.p2align 4,,15
 292              		.global	chThdCreateFromMemoryPool
 293              		.thumb
 294              		.thumb_func
 295              		.type	chThdCreateFromMemoryPool, %function
 296              	chThdCreateFromMemoryPool:
 297              	.LFB3:
 298              		.loc 1 180 0
 299              		.cfi_startproc
 300              		@ args = 0, pretend = 0, frame = 0
 301              		@ frame_needed = 0, uses_anonymous_args = 0
 302              	.LVL15:
 303 0000 2DE9F043 		push	{r4, r5, r6, r7, r8, r9, lr}
 304              	.LCFI4:
 305              		.cfi_def_cfa_offset 28
 306              		.loc 1 184 0
 307 0004 0446     		mov	r4, r0
 308              		.cfi_offset 14, -4
 309              		.cfi_offset 9, -8
 310              		.cfi_offset 8, -12
 311              		.cfi_offset 7, -16
 312              		.cfi_offset 6, -20
 313              		.cfi_offset 5, -24
 314              		.cfi_offset 4, -28
 315              		.loc 1 180 0
 316 0006 83B0     		sub	sp, sp, #12
 317              	.LCFI5:
 318              		.cfi_def_cfa_offset 40
 319              		.loc 1 180 0
 320 0008 0F46     		mov	r7, r1
 321 000a 1646     		mov	r6, r2
 322 000c 9846     		mov	r8, r3
 323              		.loc 1 184 0
 324 000e 0028     		cmp	r0, #0
 325 0010 2CD0     		beq	.L23
 326              	.LVL16:
 327              	.L20:
 328              		.loc 1 186 0
 329 0012 2046     		mov	r0, r4
 330 0014 FFF7FEFF 		bl	chPoolAlloc
 331              	.LVL17:
 332              		.loc 1 187 0
 333 0018 0546     		mov	r5, r0
 334 001a 18B3     		cbz	r0, .L21
 335              		.loc 1 191 0
 336 001c 00F14C09 		add	r9, r0, #76
 337 0020 4946     		mov	r1, r9
ARM GAS  /tmp/ccAZCrX2.s 			page 7


 338 0022 FF22     		movs	r2, #255
 339 0024 FFF7FEFF 		bl	_thread_memfill
 340              	.LVL18:
 341              		.loc 1 194 0
 342 0028 6168     		ldr	r1, [r4, #4]
 343 002a 4846     		mov	r0, r9
 344 002c 6918     		adds	r1, r5, r1
 345 002e 5522     		movs	r2, #85
 346 0030 FFF7FEFF 		bl	_thread_memfill
 347              		.loc 1 199 0
 348              	@ 199 "../chibios_2.4.x/os/kernel/src/chdynamic.c" 1
 349 0034 FFF7FEFF 		bl      _port_lock
 350              	@ 0 "" 2
 351              		.thumb
 352 0038 FFF7FEFF 		bl	dbg_check_lock
 353              		.loc 1 200 0
 354 003c 6168     		ldr	r1, [r4, #4]
 355 003e 3A46     		mov	r2, r7
 356 0040 3346     		mov	r3, r6
 357 0042 2846     		mov	r0, r5
 358 0044 CDF80080 		str	r8, [sp, #0]
 359 0048 FFF7FEFF 		bl	chThdCreateI
 360              		.loc 1 201 0
 361 004c 0223     		movs	r3, #2
 362              		.loc 1 203 0
 363 004e 0021     		movs	r1, #0
 364              		.loc 1 201 0
 365 0050 80F82130 		strb	r3, [r0, #33]
 366              		.loc 1 202 0
 367 0054 8464     		str	r4, [r0, #72]
 368              		.loc 1 200 0
 369 0056 0546     		mov	r5, r0
 370              	.LVL19:
 371              		.loc 1 203 0
 372 0058 FFF7FEFF 		bl	chSchWakeupS
 373              	.LVL20:
 374              		.loc 1 204 0
 375 005c FFF7FEFF 		bl	dbg_check_unlock
 376              	@ 204 "../chibios_2.4.x/os/kernel/src/chdynamic.c" 1
 377 0060 FFF7FEFF 		bl      _port_unlock
 378              	@ 0 "" 2
 379              	.LVL21:
 380              		.thumb
 381              	.L21:
 382              		.loc 1 206 0
 383 0064 2846     		mov	r0, r5
 384 0066 03B0     		add	sp, sp, #12
 385 0068 BDE8F083 		pop	{r4, r5, r6, r7, r8, r9, pc}
 386              	.L23:
 387              		.loc 1 184 0 discriminator 1
 388 006c 0148     		ldr	r0, .L24
 389 006e FFF7FEFF 		bl	chDbgPanic
 390 0072 CEE7     		b	.L20
 391              	.L25:
 392              		.align	2
 393              	.L24:
 394 0074 28000000 		.word	.LC2
ARM GAS  /tmp/ccAZCrX2.s 			page 8


 395              		.cfi_endproc
 396              	.LFE3:
 397              		.size	chThdCreateFromMemoryPool, .-chThdCreateFromMemoryPool
 398 0078 AFF30080 		.section	.rodata.str1.4,"aMS",%progbits,1
 398      AFF30080 
 399              		.align	2
 400              	.LC0:
 401 0000 63685468 		.ascii	"chThdAddRef(), #1\000"
 401      64416464 
 401      52656628 
 401      292C2023 
 401      3100
 402 0012 0000     		.space	2
 403              	.LC1:
 404 0014 63685468 		.ascii	"chThdRelease(), #1\000"
 404      6452656C 
 404      65617365 
 404      28292C20 
 404      233100
 405 0027 00       		.space	1
 406              	.LC2:
 407 0028 22636854 		.ascii	"\"chThdCreateFromMemoryPool\"()\000"
 407      68644372 
 407      65617465 
 407      46726F6D 
 407      4D656D6F 
 408 0046 0000     		.text
 409              	.Letext0:
 410              		.section	.debug_loc,"",%progbits
 411              	.Ldebug_loc0:
 412              	.LLST0:
 413 0000 00000000 		.4byte	.LFB0
 414 0004 02000000 		.4byte	.LCFI0
 415 0008 0200     		.2byte	0x2
 416 000a 7D       		.byte	0x7d
 417 000b 00       		.sleb128 0
 418 000c 02000000 		.4byte	.LCFI0
 419 0010 48000000 		.4byte	.LFE0
 420 0014 0200     		.2byte	0x2
 421 0016 7D       		.byte	0x7d
 422 0017 08       		.sleb128 8
 423 0018 00000000 		.4byte	0x0
 424 001c 00000000 		.4byte	0x0
 425              	.LLST1:
 426 0020 00000000 		.4byte	.LVL0
 427 0024 0B000000 		.4byte	.LVL1-1
 428 0028 0100     		.2byte	0x1
 429 002a 50       		.byte	0x50
 430 002b 0B000000 		.4byte	.LVL1-1
 431 002f 48000000 		.4byte	.LFE0
 432 0033 0100     		.2byte	0x1
 433 0035 54       		.byte	0x54
 434 0036 00000000 		.4byte	0x0
 435 003a 00000000 		.4byte	0x0
 436              	.LLST2:
 437 003e 00000000 		.4byte	.LFB1
 438 0042 02000000 		.4byte	.LCFI1
ARM GAS  /tmp/ccAZCrX2.s 			page 9


 439 0046 0200     		.2byte	0x2
 440 0048 7D       		.byte	0x7d
 441 0049 00       		.sleb128 0
 442 004a 02000000 		.4byte	.LCFI1
 443 004e 7C000000 		.4byte	.LFE1
 444 0052 0200     		.2byte	0x2
 445 0054 7D       		.byte	0x7d
 446 0055 10       		.sleb128 16
 447 0056 00000000 		.4byte	0x0
 448 005a 00000000 		.4byte	0x0
 449              	.LLST3:
 450 005e 00000000 		.4byte	.LVL2
 451 0062 0B000000 		.4byte	.LVL3-1
 452 0066 0100     		.2byte	0x1
 453 0068 50       		.byte	0x50
 454 0069 0B000000 		.4byte	.LVL3-1
 455 006d 7C000000 		.4byte	.LFE1
 456 0071 0100     		.2byte	0x1
 457 0073 54       		.byte	0x54
 458 0074 00000000 		.4byte	0x0
 459 0078 00000000 		.4byte	0x0
 460              	.LLST4:
 461 007c 1C000000 		.4byte	.LVL4
 462 0080 56000000 		.4byte	.LVL5
 463 0084 0100     		.2byte	0x1
 464 0086 55       		.byte	0x55
 465 0087 62000000 		.4byte	.LVL6
 466 008b 7C000000 		.4byte	.LFE1
 467 008f 0100     		.2byte	0x1
 468 0091 55       		.byte	0x55
 469 0092 00000000 		.4byte	0x0
 470 0096 00000000 		.4byte	0x0
 471              	.LLST5:
 472 009a 00000000 		.4byte	.LFB2
 473 009e 04000000 		.4byte	.LCFI2
 474 00a2 0200     		.2byte	0x2
 475 00a4 7D       		.byte	0x7d
 476 00a5 00       		.sleb128 0
 477 00a6 04000000 		.4byte	.LCFI2
 478 00aa 06000000 		.4byte	.LCFI3
 479 00ae 0200     		.2byte	0x2
 480 00b0 7D       		.byte	0x7d
 481 00b1 18       		.sleb128 24
 482 00b2 06000000 		.4byte	.LCFI3
 483 00b6 60000000 		.4byte	.LFE2
 484 00ba 0200     		.2byte	0x2
 485 00bc 7D       		.byte	0x7d
 486 00bd 20       		.sleb128 32
 487 00be 00000000 		.4byte	0x0
 488 00c2 00000000 		.4byte	0x0
 489              	.LLST6:
 490 00c6 00000000 		.4byte	.LVL7
 491 00ca 0F000000 		.4byte	.LVL8-1
 492 00ce 0100     		.2byte	0x1
 493 00d0 50       		.byte	0x50
 494 00d1 00000000 		.4byte	0x0
 495 00d5 00000000 		.4byte	0x0
ARM GAS  /tmp/ccAZCrX2.s 			page 10


 496              	.LLST7:
 497 00d9 00000000 		.4byte	.LVL7
 498 00dd 0F000000 		.4byte	.LVL8-1
 499 00e1 0100     		.2byte	0x1
 500 00e3 51       		.byte	0x51
 501 00e4 0F000000 		.4byte	.LVL8-1
 502 00e8 60000000 		.4byte	.LFE2
 503 00ec 0100     		.2byte	0x1
 504 00ee 55       		.byte	0x55
 505 00ef 00000000 		.4byte	0x0
 506 00f3 00000000 		.4byte	0x0
 507              	.LLST8:
 508 00f7 00000000 		.4byte	.LVL7
 509 00fb 0F000000 		.4byte	.LVL8-1
 510 00ff 0100     		.2byte	0x1
 511 0101 52       		.byte	0x52
 512 0102 0F000000 		.4byte	.LVL8-1
 513 0106 60000000 		.4byte	.LFE2
 514 010a 0100     		.2byte	0x1
 515 010c 57       		.byte	0x57
 516 010d 00000000 		.4byte	0x0
 517 0111 00000000 		.4byte	0x0
 518              	.LLST9:
 519 0115 00000000 		.4byte	.LVL7
 520 0119 0F000000 		.4byte	.LVL8-1
 521 011d 0100     		.2byte	0x1
 522 011f 53       		.byte	0x53
 523 0120 0F000000 		.4byte	.LVL8-1
 524 0124 60000000 		.4byte	.LFE2
 525 0128 0100     		.2byte	0x1
 526 012a 56       		.byte	0x56
 527 012b 00000000 		.4byte	0x0
 528 012f 00000000 		.4byte	0x0
 529              	.LLST10:
 530 0133 10000000 		.4byte	.LVL8
 531 0137 1F000000 		.4byte	.LVL9-1
 532 013b 0100     		.2byte	0x1
 533 013d 50       		.byte	0x50
 534 013e 1F000000 		.4byte	.LVL9-1
 535 0142 36000000 		.4byte	.LVL10
 536 0146 0100     		.2byte	0x1
 537 0148 54       		.byte	0x54
 538 0149 36000000 		.4byte	.LVL10
 539 014d 41000000 		.4byte	.LVL11-1
 540 0151 0100     		.2byte	0x1
 541 0153 50       		.byte	0x50
 542 0154 41000000 		.4byte	.LVL11-1
 543 0158 58000000 		.4byte	.LVL14
 544 015c 0400     		.2byte	0x4
 545 015e 78       		.byte	0x78
 546 015f B47F     		.sleb128 -76
 547 0161 9F       		.byte	0x9f
 548 0162 00000000 		.4byte	0x0
 549 0166 00000000 		.4byte	0x0
 550              	.LLST11:
 551 016a 4C000000 		.4byte	.LVL12
 552 016e 4F000000 		.4byte	.LVL13-1
ARM GAS  /tmp/ccAZCrX2.s 			page 11


 553 0172 0100     		.2byte	0x1
 554 0174 50       		.byte	0x50
 555 0175 4F000000 		.4byte	.LVL13-1
 556 0179 58000000 		.4byte	.LVL14
 557 017d 0100     		.2byte	0x1
 558 017f 54       		.byte	0x54
 559 0180 00000000 		.4byte	0x0
 560 0184 00000000 		.4byte	0x0
 561              	.LLST12:
 562 0188 00000000 		.4byte	.LFB3
 563 018c 04000000 		.4byte	.LCFI4
 564 0190 0200     		.2byte	0x2
 565 0192 7D       		.byte	0x7d
 566 0193 00       		.sleb128 0
 567 0194 04000000 		.4byte	.LCFI4
 568 0198 08000000 		.4byte	.LCFI5
 569 019c 0200     		.2byte	0x2
 570 019e 7D       		.byte	0x7d
 571 019f 1C       		.sleb128 28
 572 01a0 08000000 		.4byte	.LCFI5
 573 01a4 78000000 		.4byte	.LFE3
 574 01a8 0200     		.2byte	0x2
 575 01aa 7D       		.byte	0x7d
 576 01ab 28       		.sleb128 40
 577 01ac 00000000 		.4byte	0x0
 578 01b0 00000000 		.4byte	0x0
 579              	.LLST13:
 580 01b4 00000000 		.4byte	.LVL15
 581 01b8 12000000 		.4byte	.LVL16
 582 01bc 0100     		.2byte	0x1
 583 01be 50       		.byte	0x50
 584 01bf 12000000 		.4byte	.LVL16
 585 01c3 78000000 		.4byte	.LFE3
 586 01c7 0100     		.2byte	0x1
 587 01c9 54       		.byte	0x54
 588 01ca 00000000 		.4byte	0x0
 589 01ce 00000000 		.4byte	0x0
 590              	.LLST14:
 591 01d2 00000000 		.4byte	.LVL15
 592 01d6 12000000 		.4byte	.LVL16
 593 01da 0100     		.2byte	0x1
 594 01dc 51       		.byte	0x51
 595 01dd 12000000 		.4byte	.LVL16
 596 01e1 78000000 		.4byte	.LFE3
 597 01e5 0100     		.2byte	0x1
 598 01e7 57       		.byte	0x57
 599 01e8 00000000 		.4byte	0x0
 600 01ec 00000000 		.4byte	0x0
 601              	.LLST15:
 602 01f0 00000000 		.4byte	.LVL15
 603 01f4 12000000 		.4byte	.LVL16
 604 01f8 0100     		.2byte	0x1
 605 01fa 52       		.byte	0x52
 606 01fb 12000000 		.4byte	.LVL16
 607 01ff 78000000 		.4byte	.LFE3
 608 0203 0100     		.2byte	0x1
 609 0205 56       		.byte	0x56
ARM GAS  /tmp/ccAZCrX2.s 			page 12


 610 0206 00000000 		.4byte	0x0
 611 020a 00000000 		.4byte	0x0
 612              	.LLST16:
 613 020e 00000000 		.4byte	.LVL15
 614 0212 12000000 		.4byte	.LVL16
 615 0216 0100     		.2byte	0x1
 616 0218 53       		.byte	0x53
 617 0219 12000000 		.4byte	.LVL16
 618 021d 78000000 		.4byte	.LFE3
 619 0221 0100     		.2byte	0x1
 620 0223 58       		.byte	0x58
 621 0224 00000000 		.4byte	0x0
 622 0228 00000000 		.4byte	0x0
 623              	.LLST17:
 624 022c 18000000 		.4byte	.LVL17
 625 0230 27000000 		.4byte	.LVL18-1
 626 0234 0100     		.2byte	0x1
 627 0236 50       		.byte	0x50
 628 0237 27000000 		.4byte	.LVL18-1
 629 023b 58000000 		.4byte	.LVL19
 630 023f 0100     		.2byte	0x1
 631 0241 55       		.byte	0x55
 632 0242 58000000 		.4byte	.LVL19
 633 0246 64000000 		.4byte	.LVL21
 634 024a 0400     		.2byte	0x4
 635 024c 79       		.byte	0x79
 636 024d B47F     		.sleb128 -76
 637 024f 9F       		.byte	0x9f
 638 0250 00000000 		.4byte	0x0
 639 0254 00000000 		.4byte	0x0
 640              	.LLST18:
 641 0258 58000000 		.4byte	.LVL19
 642 025c 5B000000 		.4byte	.LVL20-1
 643 0260 0100     		.2byte	0x1
 644 0262 50       		.byte	0x50
 645 0263 5B000000 		.4byte	.LVL20-1
 646 0267 64000000 		.4byte	.LVL21
 647 026b 0100     		.2byte	0x1
 648 026d 55       		.byte	0x55
 649 026e 00000000 		.4byte	0x0
 650 0272 00000000 		.4byte	0x0
 651              		.file 2 "/home/z80/programs/code-sourcery/2011.03-42/bin/../lib/gcc/arm-none-eabi/4.5.2/include/st
 652              		.file 3 "/home/z80/programs/code-sourcery/2011.03-42/bin/../lib/gcc/arm-none-eabi/4.5.2/../../../.
 653              		.file 4 "../chibios_2.4.x/os/ports/GCC/ARMCMx/chtypes.h"
 654              		.file 5 "../chibios_2.4.x/os/kernel/include/chlists.h"
 655              		.file 6 "../chibios_2.4.x/os/kernel/include/chthreads.h"
 656              		.file 7 "../chibios_2.4.x/os/ports/GCC/ARMCMx/chcore_v7m.h"
 657              		.file 8 "../chibios_2.4.x/os/kernel/include/chmtx.h"
 658              		.file 9 "../chibios_2.4.x/os/kernel/include/chmemcore.h"
 659              		.file 10 "../chibios_2.4.x/os/kernel/include/chheap.h"
 660              		.file 11 "../chibios_2.4.x/os/kernel/include/chmempools.h"
 661              		.section	.debug_info
 662 0000 94060000 		.4byte	0x694
 663 0004 0200     		.2byte	0x2
 664 0006 00000000 		.4byte	.Ldebug_abbrev0
 665 000a 04       		.byte	0x4
 666 000b 01       		.uleb128 0x1
ARM GAS  /tmp/ccAZCrX2.s 			page 13


 667 000c 34030000 		.4byte	.LASF79
 668 0010 01       		.byte	0x1
 669 0011 0E000000 		.4byte	.LASF80
 670 0015 54010000 		.4byte	.LASF81
 671 0019 00000000 		.4byte	0x0
 672 001d 00000000 		.4byte	0x0
 673 0021 00000000 		.4byte	.Ldebug_ranges0+0x0
 674 0025 00000000 		.4byte	.Ldebug_line0
 675 0029 02       		.uleb128 0x2
 676 002a 04       		.byte	0x4
 677 002b 05       		.byte	0x5
 678 002c 696E7400 		.ascii	"int\000"
 679 0030 03       		.uleb128 0x3
 680 0031 39000000 		.4byte	.LASF2
 681 0035 02       		.byte	0x2
 682 0036 D3       		.byte	0xd3
 683 0037 3B000000 		.4byte	0x3b
 684 003b 04       		.uleb128 0x4
 685 003c 04       		.byte	0x4
 686 003d 07       		.byte	0x7
 687 003e 47010000 		.4byte	.LASF0
 688 0042 04       		.uleb128 0x4
 689 0043 01       		.byte	0x1
 690 0044 06       		.byte	0x6
 691 0045 AF000000 		.4byte	.LASF1
 692 0049 03       		.uleb128 0x3
 693 004a 25030000 		.4byte	.LASF3
 694 004e 03       		.byte	0x3
 695 004f 2A       		.byte	0x2a
 696 0050 54000000 		.4byte	0x54
 697 0054 04       		.uleb128 0x4
 698 0055 01       		.byte	0x1
 699 0056 08       		.byte	0x8
 700 0057 54020000 		.4byte	.LASF4
 701 005b 04       		.uleb128 0x4
 702 005c 02       		.byte	0x2
 703 005d 05       		.byte	0x5
 704 005e 77020000 		.4byte	.LASF5
 705 0062 04       		.uleb128 0x4
 706 0063 02       		.byte	0x2
 707 0064 07       		.byte	0x7
 708 0065 9E010000 		.4byte	.LASF6
 709 0069 03       		.uleb128 0x3
 710 006a 4C020000 		.4byte	.LASF7
 711 006e 03       		.byte	0x3
 712 006f 4F       		.byte	0x4f
 713 0070 74000000 		.4byte	0x74
 714 0074 04       		.uleb128 0x4
 715 0075 04       		.byte	0x4
 716 0076 05       		.byte	0x5
 717 0077 D1000000 		.4byte	.LASF8
 718 007b 03       		.uleb128 0x3
 719 007c CA020000 		.4byte	.LASF9
 720 0080 03       		.byte	0x3
 721 0081 50       		.byte	0x50
 722 0082 86000000 		.4byte	0x86
 723 0086 04       		.uleb128 0x4
ARM GAS  /tmp/ccAZCrX2.s 			page 14


 724 0087 04       		.byte	0x4
 725 0088 07       		.byte	0x7
 726 0089 7F010000 		.4byte	.LASF10
 727 008d 04       		.uleb128 0x4
 728 008e 08       		.byte	0x8
 729 008f 05       		.byte	0x5
 730 0090 A1000000 		.4byte	.LASF11
 731 0094 03       		.uleb128 0x3
 732 0095 47000000 		.4byte	.LASF12
 733 0099 03       		.byte	0x3
 734 009a 78       		.byte	0x78
 735 009b 9F000000 		.4byte	0x9f
 736 009f 04       		.uleb128 0x4
 737 00a0 08       		.byte	0x8
 738 00a1 07       		.byte	0x7
 739 00a2 68000000 		.4byte	.LASF13
 740 00a6 03       		.uleb128 0x3
 741 00a7 B7010000 		.4byte	.LASF14
 742 00ab 04       		.byte	0x4
 743 00ac 2F       		.byte	0x2f
 744 00ad 49000000 		.4byte	0x49
 745 00b1 03       		.uleb128 0x3
 746 00b2 EE000000 		.4byte	.LASF15
 747 00b6 04       		.byte	0x4
 748 00b7 30       		.byte	0x30
 749 00b8 49000000 		.4byte	0x49
 750 00bc 03       		.uleb128 0x3
 751 00bd 30020000 		.4byte	.LASF16
 752 00c1 04       		.byte	0x4
 753 00c2 31       		.byte	0x31
 754 00c3 49000000 		.4byte	0x49
 755 00c7 03       		.uleb128 0x3
 756 00c8 44020000 		.4byte	.LASF17
 757 00cc 04       		.byte	0x4
 758 00cd 32       		.byte	0x32
 759 00ce 7B000000 		.4byte	0x7b
 760 00d2 03       		.uleb128 0x3
 761 00d3 B1010000 		.4byte	.LASF18
 762 00d7 04       		.byte	0x4
 763 00d8 33       		.byte	0x33
 764 00d9 69000000 		.4byte	0x69
 765 00dd 03       		.uleb128 0x3
 766 00de CB010000 		.4byte	.LASF19
 767 00e2 04       		.byte	0x4
 768 00e3 35       		.byte	0x35
 769 00e4 7B000000 		.4byte	0x7b
 770 00e8 03       		.uleb128 0x3
 771 00e9 E4020000 		.4byte	.LASF20
 772 00ed 04       		.byte	0x4
 773 00ee 36       		.byte	0x36
 774 00ef 7B000000 		.4byte	0x7b
 775 00f3 03       		.uleb128 0x3
 776 00f4 B8020000 		.4byte	.LASF21
 777 00f8 05       		.byte	0x5
 778 00f9 2A       		.byte	0x2a
 779 00fa FE000000 		.4byte	0xfe
 780 00fe 05       		.uleb128 0x5
ARM GAS  /tmp/ccAZCrX2.s 			page 15


 781 00ff B8020000 		.4byte	.LASF21
 782 0103 4C       		.byte	0x4c
 783 0104 06       		.byte	0x6
 784 0105 5E       		.byte	0x5e
 785 0106 23020000 		.4byte	0x223
 786 010a 06       		.uleb128 0x6
 787 010b 9C020000 		.4byte	.LASF22
 788 010f 06       		.byte	0x6
 789 0110 5F       		.byte	0x5f
 790 0111 48020000 		.4byte	0x248
 791 0115 02       		.byte	0x2
 792 0116 23       		.byte	0x23
 793 0117 00       		.uleb128 0x0
 794 0118 06       		.uleb128 0x6
 795 0119 3D020000 		.4byte	.LASF23
 796 011d 06       		.byte	0x6
 797 011e 61       		.byte	0x61
 798 011f 48020000 		.4byte	0x248
 799 0123 02       		.byte	0x2
 800 0124 23       		.byte	0x23
 801 0125 04       		.uleb128 0x4
 802 0126 06       		.uleb128 0x6
 803 0127 9A000000 		.4byte	.LASF24
 804 012b 06       		.byte	0x6
 805 012c 63       		.byte	0x63
 806 012d C7000000 		.4byte	0xc7
 807 0131 02       		.byte	0x2
 808 0132 23       		.byte	0x23
 809 0133 08       		.uleb128 0x8
 810 0134 06       		.uleb128 0x6
 811 0135 4F030000 		.4byte	.LASF25
 812 0139 06       		.byte	0x6
 813 013a 64       		.byte	0x64
 814 013b 20030000 		.4byte	0x320
 815 013f 02       		.byte	0x2
 816 0140 23       		.byte	0x23
 817 0141 0C       		.uleb128 0xc
 818 0142 06       		.uleb128 0x6
 819 0143 FF000000 		.4byte	.LASF26
 820 0147 06       		.byte	0x6
 821 0148 66       		.byte	0x66
 822 0149 48020000 		.4byte	0x248
 823 014d 02       		.byte	0x2
 824 014e 23       		.byte	0x23
 825 014f 10       		.uleb128 0x10
 826 0150 06       		.uleb128 0x6
 827 0151 F4010000 		.4byte	.LASF27
 828 0155 06       		.byte	0x6
 829 0156 67       		.byte	0x67
 830 0157 48020000 		.4byte	0x248
 831 015b 02       		.byte	0x2
 832 015c 23       		.byte	0x23
 833 015d 14       		.uleb128 0x14
 834 015e 06       		.uleb128 0x6
 835 015f 40030000 		.4byte	.LASF28
 836 0163 06       		.byte	0x6
 837 0164 6E       		.byte	0x6e
ARM GAS  /tmp/ccAZCrX2.s 			page 16


 838 0165 F6040000 		.4byte	0x4f6
 839 0169 02       		.byte	0x2
 840 016a 23       		.byte	0x23
 841 016b 18       		.uleb128 0x18
 842 016c 06       		.uleb128 0x6
 843 016d 3C010000 		.4byte	.LASF29
 844 0171 06       		.byte	0x6
 845 0172 74       		.byte	0x74
 846 0173 08050000 		.4byte	0x508
 847 0177 02       		.byte	0x2
 848 0178 23       		.byte	0x23
 849 0179 1C       		.uleb128 0x1c
 850 017a 06       		.uleb128 0x6
 851 017b 81020000 		.4byte	.LASF30
 852 017f 06       		.byte	0x6
 853 0180 79       		.byte	0x79
 854 0181 B1000000 		.4byte	0xb1
 855 0185 02       		.byte	0x2
 856 0186 23       		.byte	0x23
 857 0187 20       		.uleb128 0x20
 858 0188 06       		.uleb128 0x6
 859 0189 A3020000 		.4byte	.LASF31
 860 018d 06       		.byte	0x6
 861 018e 7D       		.byte	0x7d
 862 018f A6000000 		.4byte	0xa6
 863 0193 02       		.byte	0x2
 864 0194 23       		.byte	0x23
 865 0195 21       		.uleb128 0x21
 866 0196 06       		.uleb128 0x6
 867 0197 1E030000 		.4byte	.LASF32
 868 019b 06       		.byte	0x6
 869 019c 82       		.byte	0x82
 870 019d BC000000 		.4byte	0xbc
 871 01a1 02       		.byte	0x2
 872 01a2 23       		.byte	0x23
 873 01a3 22       		.uleb128 0x22
 874 01a4 06       		.uleb128 0x6
 875 01a5 F9020000 		.4byte	.LASF33
 876 01a9 06       		.byte	0x6
 877 01aa 89       		.byte	0x89
 878 01ab 43030000 		.4byte	0x343
 879 01af 02       		.byte	0x2
 880 01b0 23       		.byte	0x23
 881 01b1 24       		.uleb128 0x24
 882 01b2 07       		.uleb128 0x7
 883 01b3 705F7500 		.ascii	"p_u\000"
 884 01b7 06       		.byte	0x6
 885 01b8 AE       		.byte	0xae
 886 01b9 C1040000 		.4byte	0x4c1
 887 01bd 02       		.byte	0x2
 888 01be 23       		.byte	0x23
 889 01bf 28       		.uleb128 0x28
 890 01c0 06       		.uleb128 0x6
 891 01c1 55030000 		.4byte	.LASF34
 892 01c5 06       		.byte	0x6
 893 01c6 B3       		.byte	0xb3
 894 01c7 70020000 		.4byte	0x270
ARM GAS  /tmp/ccAZCrX2.s 			page 17


 895 01cb 02       		.byte	0x2
 896 01cc 23       		.byte	0x23
 897 01cd 2C       		.uleb128 0x2c
 898 01ce 06       		.uleb128 0x6
 899 01cf 07030000 		.4byte	.LASF35
 900 01d3 06       		.byte	0x6
 901 01d4 B9       		.byte	0xb9
 902 01d5 4E020000 		.4byte	0x24e
 903 01d9 02       		.byte	0x2
 904 01da 23       		.byte	0x23
 905 01db 30       		.uleb128 0x30
 906 01dc 06       		.uleb128 0x6
 907 01dd 08000000 		.4byte	.LASF36
 908 01e1 06       		.byte	0x6
 909 01e2 BD       		.byte	0xbd
 910 01e3 D2000000 		.4byte	0xd2
 911 01e7 02       		.byte	0x2
 912 01e8 23       		.byte	0x23
 913 01e9 38       		.uleb128 0x38
 914 01ea 06       		.uleb128 0x6
 915 01eb BF020000 		.4byte	.LASF37
 916 01ef 06       		.byte	0x6
 917 01f0 C3       		.byte	0xc3
 918 01f1 DD000000 		.4byte	0xdd
 919 01f5 02       		.byte	0x2
 920 01f6 23       		.byte	0x23
 921 01f7 3C       		.uleb128 0x3c
 922 01f8 06       		.uleb128 0x6
 923 01f9 6D020000 		.4byte	.LASF38
 924 01fd 06       		.byte	0x6
 925 01fe CA       		.byte	0xca
 926 01ff 0E050000 		.4byte	0x50e
 927 0203 02       		.byte	0x2
 928 0204 23       		.byte	0x23
 929 0205 40       		.uleb128 0x40
 930 0206 06       		.uleb128 0x6
 931 0207 EE020000 		.4byte	.LASF39
 932 020b 06       		.byte	0x6
 933 020c CE       		.byte	0xce
 934 020d C7000000 		.4byte	0xc7
 935 0211 02       		.byte	0x2
 936 0212 23       		.byte	0x23
 937 0213 44       		.uleb128 0x44
 938 0214 06       		.uleb128 0x6
 939 0215 C1000000 		.4byte	.LASF40
 940 0219 06       		.byte	0x6
 941 021a D4       		.byte	0xd4
 942 021b 86020000 		.4byte	0x286
 943 021f 02       		.byte	0x2
 944 0220 23       		.byte	0x23
 945 0221 48       		.uleb128 0x48
 946 0222 00       		.byte	0x0
 947 0223 08       		.uleb128 0x8
 948 0224 08       		.byte	0x8
 949 0225 05       		.byte	0x5
 950 0226 61       		.byte	0x61
 951 0227 48020000 		.4byte	0x248
ARM GAS  /tmp/ccAZCrX2.s 			page 18


 952 022b 06       		.uleb128 0x6
 953 022c 9C020000 		.4byte	.LASF22
 954 0230 05       		.byte	0x5
 955 0231 62       		.byte	0x62
 956 0232 48020000 		.4byte	0x248
 957 0236 02       		.byte	0x2
 958 0237 23       		.byte	0x23
 959 0238 00       		.uleb128 0x0
 960 0239 06       		.uleb128 0x6
 961 023a 3D020000 		.4byte	.LASF23
 962 023e 05       		.byte	0x5
 963 023f 64       		.byte	0x64
 964 0240 48020000 		.4byte	0x248
 965 0244 02       		.byte	0x2
 966 0245 23       		.byte	0x23
 967 0246 04       		.uleb128 0x4
 968 0247 00       		.byte	0x0
 969 0248 09       		.uleb128 0x9
 970 0249 04       		.byte	0x4
 971 024a F3000000 		.4byte	0xf3
 972 024e 03       		.uleb128 0x3
 973 024f FC010000 		.4byte	.LASF41
 974 0253 05       		.byte	0x5
 975 0254 66       		.byte	0x66
 976 0255 23020000 		.4byte	0x223
 977 0259 08       		.uleb128 0x8
 978 025a 04       		.byte	0x4
 979 025b 05       		.byte	0x5
 980 025c 6B       		.byte	0x6b
 981 025d 70020000 		.4byte	0x270
 982 0261 06       		.uleb128 0x6
 983 0262 9C020000 		.4byte	.LASF22
 984 0266 05       		.byte	0x5
 985 0267 6D       		.byte	0x6d
 986 0268 48020000 		.4byte	0x248
 987 026c 02       		.byte	0x2
 988 026d 23       		.byte	0x23
 989 026e 00       		.uleb128 0x0
 990 026f 00       		.byte	0x0
 991 0270 03       		.uleb128 0x3
 992 0271 BF010000 		.4byte	.LASF42
 993 0275 05       		.byte	0x5
 994 0276 70       		.byte	0x70
 995 0277 59020000 		.4byte	0x259
 996 027b 03       		.uleb128 0x3
 997 027c 2D010000 		.4byte	.LASF43
 998 0280 07       		.byte	0x7
 999 0281 D7       		.byte	0xd7
 1000 0282 86020000 		.4byte	0x286
 1001 0286 0A       		.uleb128 0xa
 1002 0287 04       		.byte	0x4
 1003 0288 03       		.uleb128 0x3
 1004 0289 E9010000 		.4byte	.LASF44
 1005 028d 07       		.byte	0x7
 1006 028e DD       		.byte	0xdd
 1007 028f 94000000 		.4byte	0x94
 1008 0293 05       		.uleb128 0x5
ARM GAS  /tmp/ccAZCrX2.s 			page 19


 1009 0294 00030000 		.4byte	.LASF45
 1010 0298 24       		.byte	0x24
 1011 0299 07       		.byte	0x7
 1012 029a FE       		.byte	0xfe
 1013 029b 20030000 		.4byte	0x320
 1014 029f 0B       		.uleb128 0xb
 1015 02a0 723400   		.ascii	"r4\000"
 1016 02a3 07       		.byte	0x7
 1017 02a4 1101     		.2byte	0x111
 1018 02a6 7B020000 		.4byte	0x27b
 1019 02aa 02       		.byte	0x2
 1020 02ab 23       		.byte	0x23
 1021 02ac 00       		.uleb128 0x0
 1022 02ad 0B       		.uleb128 0xb
 1023 02ae 723500   		.ascii	"r5\000"
 1024 02b1 07       		.byte	0x7
 1025 02b2 1201     		.2byte	0x112
 1026 02b4 7B020000 		.4byte	0x27b
 1027 02b8 02       		.byte	0x2
 1028 02b9 23       		.byte	0x23
 1029 02ba 04       		.uleb128 0x4
 1030 02bb 0B       		.uleb128 0xb
 1031 02bc 723600   		.ascii	"r6\000"
 1032 02bf 07       		.byte	0x7
 1033 02c0 1301     		.2byte	0x113
 1034 02c2 7B020000 		.4byte	0x27b
 1035 02c6 02       		.byte	0x2
 1036 02c7 23       		.byte	0x23
 1037 02c8 08       		.uleb128 0x8
 1038 02c9 0B       		.uleb128 0xb
 1039 02ca 723700   		.ascii	"r7\000"
 1040 02cd 07       		.byte	0x7
 1041 02ce 1401     		.2byte	0x114
 1042 02d0 7B020000 		.4byte	0x27b
 1043 02d4 02       		.byte	0x2
 1044 02d5 23       		.byte	0x23
 1045 02d6 0C       		.uleb128 0xc
 1046 02d7 0B       		.uleb128 0xb
 1047 02d8 723800   		.ascii	"r8\000"
 1048 02db 07       		.byte	0x7
 1049 02dc 1501     		.2byte	0x115
 1050 02de 7B020000 		.4byte	0x27b
 1051 02e2 02       		.byte	0x2
 1052 02e3 23       		.byte	0x23
 1053 02e4 10       		.uleb128 0x10
 1054 02e5 0B       		.uleb128 0xb
 1055 02e6 723900   		.ascii	"r9\000"
 1056 02e9 07       		.byte	0x7
 1057 02ea 1601     		.2byte	0x116
 1058 02ec 7B020000 		.4byte	0x27b
 1059 02f0 02       		.byte	0x2
 1060 02f1 23       		.byte	0x23
 1061 02f2 14       		.uleb128 0x14
 1062 02f3 0B       		.uleb128 0xb
 1063 02f4 72313000 		.ascii	"r10\000"
 1064 02f8 07       		.byte	0x7
 1065 02f9 1701     		.2byte	0x117
ARM GAS  /tmp/ccAZCrX2.s 			page 20


 1066 02fb 7B020000 		.4byte	0x27b
 1067 02ff 02       		.byte	0x2
 1068 0300 23       		.byte	0x23
 1069 0301 18       		.uleb128 0x18
 1070 0302 0B       		.uleb128 0xb
 1071 0303 72313100 		.ascii	"r11\000"
 1072 0307 07       		.byte	0x7
 1073 0308 1801     		.2byte	0x118
 1074 030a 7B020000 		.4byte	0x27b
 1075 030e 02       		.byte	0x2
 1076 030f 23       		.byte	0x23
 1077 0310 1C       		.uleb128 0x1c
 1078 0311 0B       		.uleb128 0xb
 1079 0312 6C7200   		.ascii	"lr\000"
 1080 0315 07       		.byte	0x7
 1081 0316 1901     		.2byte	0x119
 1082 0318 7B020000 		.4byte	0x27b
 1083 031c 02       		.byte	0x2
 1084 031d 23       		.byte	0x23
 1085 031e 20       		.uleb128 0x20
 1086 031f 00       		.byte	0x0
 1087 0320 0C       		.uleb128 0xc
 1088 0321 91010000 		.4byte	.LASF46
 1089 0325 04       		.byte	0x4
 1090 0326 07       		.byte	0x7
 1091 0327 2301     		.2byte	0x123
 1092 0329 3D030000 		.4byte	0x33d
 1093 032d 0B       		.uleb128 0xb
 1094 032e 72313300 		.ascii	"r13\000"
 1095 0332 07       		.byte	0x7
 1096 0333 2401     		.2byte	0x124
 1097 0335 3D030000 		.4byte	0x33d
 1098 0339 02       		.byte	0x2
 1099 033a 23       		.byte	0x23
 1100 033b 00       		.uleb128 0x0
 1101 033c 00       		.byte	0x0
 1102 033d 09       		.uleb128 0x9
 1103 033e 04       		.byte	0x4
 1104 033f 93020000 		.4byte	0x293
 1105 0343 0D       		.uleb128 0xd
 1106 0344 E8000000 		.4byte	0xe8
 1107 0348 05       		.uleb128 0x5
 1108 0349 D7010000 		.4byte	.LASF47
 1109 034d 10       		.byte	0x10
 1110 034e 08       		.byte	0x8
 1111 034f 2C       		.byte	0x2c
 1112 0350 7F030000 		.4byte	0x37f
 1113 0354 06       		.uleb128 0x6
 1114 0355 C9000000 		.4byte	.LASF48
 1115 0359 08       		.byte	0x8
 1116 035a 2D       		.byte	0x2d
 1117 035b 4E020000 		.4byte	0x24e
 1118 035f 02       		.byte	0x2
 1119 0360 23       		.byte	0x23
 1120 0361 00       		.uleb128 0x0
 1121 0362 06       		.uleb128 0x6
 1122 0363 47030000 		.4byte	.LASF49
ARM GAS  /tmp/ccAZCrX2.s 			page 21


 1123 0367 08       		.byte	0x8
 1124 0368 2F       		.byte	0x2f
 1125 0369 48020000 		.4byte	0x248
 1126 036d 02       		.byte	0x2
 1127 036e 23       		.byte	0x23
 1128 036f 08       		.uleb128 0x8
 1129 0370 06       		.uleb128 0x6
 1130 0371 DD020000 		.4byte	.LASF50
 1131 0375 08       		.byte	0x8
 1132 0376 31       		.byte	0x31
 1133 0377 7F030000 		.4byte	0x37f
 1134 037b 02       		.byte	0x2
 1135 037c 23       		.byte	0x23
 1136 037d 0C       		.uleb128 0xc
 1137 037e 00       		.byte	0x0
 1138 037f 09       		.uleb128 0x9
 1139 0380 04       		.byte	0x4
 1140 0381 48030000 		.4byte	0x348
 1141 0385 03       		.uleb128 0x3
 1142 0386 D7010000 		.4byte	.LASF47
 1143 038a 08       		.byte	0x8
 1144 038b 33       		.byte	0x33
 1145 038c 48030000 		.4byte	0x348
 1146 0390 03       		.uleb128 0x3
 1147 0391 5B000000 		.4byte	.LASF51
 1148 0395 09       		.byte	0x9
 1149 0396 2C       		.byte	0x2c
 1150 0397 9B030000 		.4byte	0x39b
 1151 039b 09       		.uleb128 0x9
 1152 039c 04       		.byte	0x4
 1153 039d A1030000 		.4byte	0x3a1
 1154 03a1 0E       		.uleb128 0xe
 1155 03a2 01       		.byte	0x1
 1156 03a3 86020000 		.4byte	0x286
 1157 03a7 B1030000 		.4byte	0x3b1
 1158 03ab 0F       		.uleb128 0xf
 1159 03ac 30000000 		.4byte	0x30
 1160 03b0 00       		.byte	0x0
 1161 03b1 03       		.uleb128 0x3
 1162 03b2 1D020000 		.4byte	.LASF52
 1163 03b6 0A       		.byte	0xa
 1164 03b7 34       		.byte	0x34
 1165 03b8 BC030000 		.4byte	0x3bc
 1166 03bc 05       		.uleb128 0x5
 1167 03bd 5F030000 		.4byte	.LASF53
 1168 03c1 20       		.byte	0x20
 1169 03c2 0A       		.byte	0xa
 1170 03c3 47       		.byte	0x47
 1171 03c4 F3030000 		.4byte	0x3f3
 1172 03c8 06       		.uleb128 0x6
 1173 03c9 62020000 		.4byte	.LASF54
 1174 03cd 0A       		.byte	0xa
 1175 03ce 48       		.byte	0x48
 1176 03cf 90030000 		.4byte	0x390
 1177 03d3 02       		.byte	0x2
 1178 03d4 23       		.byte	0x23
 1179 03d5 00       		.uleb128 0x0
ARM GAS  /tmp/ccAZCrX2.s 			page 22


 1180 03d6 06       		.uleb128 0x6
 1181 03d7 88000000 		.4byte	.LASF55
 1182 03db 0A       		.byte	0xa
 1183 03dc 4A       		.byte	0x4a
 1184 03dd 12040000 		.4byte	0x412
 1185 03e1 02       		.byte	0x2
 1186 03e2 23       		.byte	0x23
 1187 03e3 08       		.uleb128 0x8
 1188 03e4 06       		.uleb128 0x6
 1189 03e5 BB000000 		.4byte	.LASF56
 1190 03e9 0A       		.byte	0xa
 1191 03ea 4C       		.byte	0x4c
 1192 03eb 85030000 		.4byte	0x385
 1193 03ef 02       		.byte	0x2
 1194 03f0 23       		.byte	0x23
 1195 03f1 10       		.uleb128 0x10
 1196 03f2 00       		.byte	0x0
 1197 03f3 10       		.uleb128 0x10
 1198 03f4 04       		.byte	0x4
 1199 03f5 0A       		.byte	0xa
 1200 03f6 3C       		.byte	0x3c
 1201 03f7 12040000 		.4byte	0x412
 1202 03fb 11       		.uleb128 0x11
 1203 03fc 95000000 		.4byte	.LASF57
 1204 0400 0A       		.byte	0xa
 1205 0401 3D       		.byte	0x3d
 1206 0402 33040000 		.4byte	0x433
 1207 0406 11       		.uleb128 0x11
 1208 0407 D3020000 		.4byte	.LASF58
 1209 040b 0A       		.byte	0xa
 1210 040c 3E       		.byte	0x3e
 1211 040d 39040000 		.4byte	0x439
 1212 0411 00       		.byte	0x0
 1213 0412 12       		.uleb128 0x12
 1214 0413 89020000 		.4byte	.LASF82
 1215 0417 08       		.byte	0x8
 1216 0418 0A       		.byte	0xa
 1217 0419 39       		.byte	0x39
 1218 041a 33040000 		.4byte	0x433
 1219 041e 11       		.uleb128 0x11
 1220 041f 36010000 		.4byte	.LASF59
 1221 0423 0A       		.byte	0xa
 1222 0424 3A       		.byte	0x3a
 1223 0425 88020000 		.4byte	0x288
 1224 0429 13       		.uleb128 0x13
 1225 042a 6800     		.ascii	"h\000"
 1226 042c 0A       		.byte	0xa
 1227 042d 41       		.byte	0x41
 1228 042e 3F040000 		.4byte	0x43f
 1229 0432 00       		.byte	0x0
 1230 0433 09       		.uleb128 0x9
 1231 0434 04       		.byte	0x4
 1232 0435 12040000 		.4byte	0x412
 1233 0439 09       		.uleb128 0x9
 1234 043a 04       		.byte	0x4
 1235 043b B1030000 		.4byte	0x3b1
 1236 043f 08       		.uleb128 0x8
ARM GAS  /tmp/ccAZCrX2.s 			page 23


 1237 0440 08       		.byte	0x8
 1238 0441 0A       		.byte	0xa
 1239 0442 3B       		.byte	0x3b
 1240 0443 62040000 		.4byte	0x462
 1241 0447 07       		.uleb128 0x7
 1242 0448 7500     		.ascii	"u\000"
 1243 044a 0A       		.byte	0xa
 1244 044b 3F       		.byte	0x3f
 1245 044c F3030000 		.4byte	0x3f3
 1246 0450 02       		.byte	0x2
 1247 0451 23       		.byte	0x23
 1248 0452 00       		.uleb128 0x0
 1249 0453 06       		.uleb128 0x6
 1250 0454 99010000 		.4byte	.LASF60
 1251 0458 0A       		.byte	0xa
 1252 0459 40       		.byte	0x40
 1253 045a 30000000 		.4byte	0x30
 1254 045e 02       		.byte	0x2
 1255 045f 23       		.byte	0x23
 1256 0460 04       		.uleb128 0x4
 1257 0461 00       		.byte	0x0
 1258 0462 05       		.uleb128 0x5
 1259 0463 12030000 		.4byte	.LASF61
 1260 0467 04       		.byte	0x4
 1261 0468 0B       		.byte	0xb
 1262 0469 2C       		.byte	0x2c
 1263 046a 7D040000 		.4byte	0x47d
 1264 046e 06       		.uleb128 0x6
 1265 046f 28020000 		.4byte	.LASF62
 1266 0473 0B       		.byte	0xb
 1267 0474 2D       		.byte	0x2d
 1268 0475 7D040000 		.4byte	0x47d
 1269 0479 02       		.byte	0x2
 1270 047a 23       		.byte	0x23
 1271 047b 00       		.uleb128 0x0
 1272 047c 00       		.byte	0x0
 1273 047d 09       		.uleb128 0x9
 1274 047e 04       		.byte	0x4
 1275 047f 62040000 		.4byte	0x462
 1276 0483 08       		.uleb128 0x8
 1277 0484 0C       		.byte	0xc
 1278 0485 0B       		.byte	0xb
 1279 0486 34       		.byte	0x34
 1280 0487 B6040000 		.4byte	0x4b6
 1281 048b 06       		.uleb128 0x6
 1282 048c F7000000 		.4byte	.LASF63
 1283 0490 0B       		.byte	0xb
 1284 0491 35       		.byte	0x35
 1285 0492 7D040000 		.4byte	0x47d
 1286 0496 02       		.byte	0x2
 1287 0497 23       		.byte	0x23
 1288 0498 00       		.uleb128 0x0
 1289 0499 06       		.uleb128 0x6
 1290 049a 09020000 		.4byte	.LASF64
 1291 049e 0B       		.byte	0xb
 1292 049f 36       		.byte	0x36
 1293 04a0 30000000 		.4byte	0x30
ARM GAS  /tmp/ccAZCrX2.s 			page 24


 1294 04a4 02       		.byte	0x2
 1295 04a5 23       		.byte	0x23
 1296 04a6 04       		.uleb128 0x4
 1297 04a7 06       		.uleb128 0x6
 1298 04a8 21010000 		.4byte	.LASF65
 1299 04ac 0B       		.byte	0xb
 1300 04ad 38       		.byte	0x38
 1301 04ae 90030000 		.4byte	0x390
 1302 04b2 02       		.byte	0x2
 1303 04b3 23       		.byte	0x23
 1304 04b4 08       		.uleb128 0x8
 1305 04b5 00       		.byte	0x0
 1306 04b6 03       		.uleb128 0x3
 1307 04b7 50000000 		.4byte	.LASF66
 1308 04bb 0B       		.byte	0xb
 1309 04bc 3A       		.byte	0x3a
 1310 04bd 83040000 		.4byte	0x483
 1311 04c1 10       		.uleb128 0x10
 1312 04c2 04       		.byte	0x4
 1313 04c3 06       		.byte	0x6
 1314 04c4 90       		.byte	0x90
 1315 04c5 F6040000 		.4byte	0x4f6
 1316 04c9 11       		.uleb128 0x11
 1317 04ca 40000000 		.4byte	.LASF67
 1318 04ce 06       		.byte	0x6
 1319 04cf 97       		.byte	0x97
 1320 04d0 D2000000 		.4byte	0xd2
 1321 04d4 11       		.uleb128 0x11
 1322 04d5 7F000000 		.4byte	.LASF68
 1323 04d9 06       		.byte	0x6
 1324 04da 9E       		.byte	0x9e
 1325 04db D2000000 		.4byte	0xd2
 1326 04df 11       		.uleb128 0x11
 1327 04e0 2D030000 		.4byte	.LASF69
 1328 04e4 06       		.byte	0x6
 1329 04e5 A5       		.byte	0xa5
 1330 04e6 86020000 		.4byte	0x286
 1331 04ea 11       		.uleb128 0x11
 1332 04eb 95020000 		.4byte	.LASF70
 1333 04ef 06       		.byte	0x6
 1334 04f0 AC       		.byte	0xac
 1335 04f1 DD000000 		.4byte	0xdd
 1336 04f5 00       		.byte	0x0
 1337 04f6 09       		.uleb128 0x9
 1338 04f7 04       		.byte	0x4
 1339 04f8 FC040000 		.4byte	0x4fc
 1340 04fc 14       		.uleb128 0x14
 1341 04fd 01050000 		.4byte	0x501
 1342 0501 04       		.uleb128 0x4
 1343 0502 01       		.byte	0x1
 1344 0503 08       		.byte	0x8
 1345 0504 D8020000 		.4byte	.LASF71
 1346 0508 09       		.uleb128 0x9
 1347 0509 04       		.byte	0x4
 1348 050a 88020000 		.4byte	0x288
 1349 050e 09       		.uleb128 0x9
 1350 050f 04       		.byte	0x4
ARM GAS  /tmp/ccAZCrX2.s 			page 25


 1351 0510 85030000 		.4byte	0x385
 1352 0514 03       		.uleb128 0x3
 1353 0515 00000000 		.4byte	.LASF72
 1354 0519 06       		.byte	0x6
 1355 051a DF       		.byte	0xdf
 1356 051b 1F050000 		.4byte	0x51f
 1357 051f 09       		.uleb128 0x9
 1358 0520 04       		.byte	0x4
 1359 0521 25050000 		.4byte	0x525
 1360 0525 0E       		.uleb128 0xe
 1361 0526 01       		.byte	0x1
 1362 0527 D2000000 		.4byte	0xd2
 1363 052b 35050000 		.4byte	0x535
 1364 052f 0F       		.uleb128 0xf
 1365 0530 86020000 		.4byte	0x286
 1366 0534 00       		.byte	0x0
 1367 0535 15       		.uleb128 0x15
 1368 0536 01       		.byte	0x1
 1369 0537 DD010000 		.4byte	.LASF73
 1370 053b 01       		.byte	0x1
 1371 053c 34       		.byte	0x34
 1372 053d 01       		.byte	0x1
 1373 053e 48020000 		.4byte	0x248
 1374 0542 00000000 		.4byte	.LFB0
 1375 0546 48000000 		.4byte	.LFE0
 1376 054a 00000000 		.4byte	.LLST0
 1377 054e 61050000 		.4byte	0x561
 1378 0552 16       		.uleb128 0x16
 1379 0553 747000   		.ascii	"tp\000"
 1380 0556 01       		.byte	0x1
 1381 0557 34       		.byte	0x34
 1382 0558 48020000 		.4byte	0x248
 1383 055c 20000000 		.4byte	.LLST1
 1384 0560 00       		.byte	0x0
 1385 0561 17       		.uleb128 0x17
 1386 0562 01       		.byte	0x1
 1387 0563 AB020000 		.4byte	.LASF83
 1388 0567 01       		.byte	0x1
 1389 0568 4A       		.byte	0x4a
 1390 0569 01       		.byte	0x1
 1391 056a 00000000 		.4byte	.LFB1
 1392 056e 7C000000 		.4byte	.LFE1
 1393 0572 3E000000 		.4byte	.LLST2
 1394 0576 98050000 		.4byte	0x598
 1395 057a 16       		.uleb128 0x16
 1396 057b 747000   		.ascii	"tp\000"
 1397 057e 01       		.byte	0x1
 1398 057f 4A       		.byte	0x4a
 1399 0580 48020000 		.4byte	0x248
 1400 0584 5E000000 		.4byte	.LLST3
 1401 0588 18       		.uleb128 0x18
 1402 0589 38020000 		.4byte	.LASF77
 1403 058d 01       		.byte	0x1
 1404 058e 4B       		.byte	0x4b
 1405 058f BC000000 		.4byte	0xbc
 1406 0593 7C000000 		.4byte	.LLST4
 1407 0597 00       		.byte	0x0
ARM GAS  /tmp/ccAZCrX2.s 			page 26


 1408 0598 15       		.uleb128 0x15
 1409 0599 01       		.byte	0x1
 1410 059a DA000000 		.4byte	.LASF74
 1411 059e 01       		.byte	0x1
 1412 059f 82       		.byte	0x82
 1413 05a0 01       		.byte	0x1
 1414 05a1 48020000 		.4byte	0x248
 1415 05a5 00000000 		.4byte	.LFB2
 1416 05a9 60000000 		.4byte	.LFE2
 1417 05ad 9A000000 		.4byte	.LLST5
 1418 05b1 1C060000 		.4byte	0x61c
 1419 05b5 19       		.uleb128 0x19
 1420 05b6 8F000000 		.4byte	.LASF75
 1421 05ba 01       		.byte	0x1
 1422 05bb 82       		.byte	0x82
 1423 05bc 39040000 		.4byte	0x439
 1424 05c0 C6000000 		.4byte	.LLST6
 1425 05c4 19       		.uleb128 0x19
 1426 05c5 99010000 		.4byte	.LASF60
 1427 05c9 01       		.byte	0x1
 1428 05ca 82       		.byte	0x82
 1429 05cb 30000000 		.4byte	0x30
 1430 05cf D9000000 		.4byte	.LLST7
 1431 05d3 19       		.uleb128 0x19
 1432 05d4 18020000 		.4byte	.LASF76
 1433 05d8 01       		.byte	0x1
 1434 05d9 83       		.byte	0x83
 1435 05da C7000000 		.4byte	0xc7
 1436 05de F7000000 		.4byte	.LLST8
 1437 05e2 16       		.uleb128 0x16
 1438 05e3 706600   		.ascii	"pf\000"
 1439 05e6 01       		.byte	0x1
 1440 05e7 83       		.byte	0x83
 1441 05e8 14050000 		.4byte	0x514
 1442 05ec 15010000 		.4byte	.LLST9
 1443 05f0 1A       		.uleb128 0x1a
 1444 05f1 61726700 		.ascii	"arg\000"
 1445 05f5 01       		.byte	0x1
 1446 05f6 83       		.byte	0x83
 1447 05f7 86020000 		.4byte	0x286
 1448 05fb 02       		.byte	0x2
 1449 05fc 91       		.byte	0x91
 1450 05fd 00       		.sleb128 0
 1451 05fe 1B       		.uleb128 0x1b
 1452 05ff 77737000 		.ascii	"wsp\000"
 1453 0603 01       		.byte	0x1
 1454 0604 84       		.byte	0x84
 1455 0605 86020000 		.4byte	0x286
 1456 0609 33010000 		.4byte	.LLST10
 1457 060d 1B       		.uleb128 0x1b
 1458 060e 747000   		.ascii	"tp\000"
 1459 0611 01       		.byte	0x1
 1460 0612 85       		.byte	0x85
 1461 0613 48020000 		.4byte	0x248
 1462 0617 6A010000 		.4byte	.LLST11
 1463 061b 00       		.byte	0x0
 1464 061c 15       		.uleb128 0x15
ARM GAS  /tmp/ccAZCrX2.s 			page 27


 1465 061d 01       		.byte	0x1
 1466 061e 07010000 		.4byte	.LASF78
 1467 0622 01       		.byte	0x1
 1468 0623 B3       		.byte	0xb3
 1469 0624 01       		.byte	0x1
 1470 0625 48020000 		.4byte	0x248
 1471 0629 00000000 		.4byte	.LFB3
 1472 062d 78000000 		.4byte	.LFE3
 1473 0631 88010000 		.4byte	.LLST12
 1474 0635 91060000 		.4byte	0x691
 1475 0639 16       		.uleb128 0x16
 1476 063a 6D7000   		.ascii	"mp\000"
 1477 063d 01       		.byte	0x1
 1478 063e B3       		.byte	0xb3
 1479 063f 91060000 		.4byte	0x691
 1480 0643 B4010000 		.4byte	.LLST13
 1481 0647 19       		.uleb128 0x19
 1482 0648 18020000 		.4byte	.LASF76
 1483 064c 01       		.byte	0x1
 1484 064d B3       		.byte	0xb3
 1485 064e C7000000 		.4byte	0xc7
 1486 0652 D2010000 		.4byte	.LLST14
 1487 0656 16       		.uleb128 0x16
 1488 0657 706600   		.ascii	"pf\000"
 1489 065a 01       		.byte	0x1
 1490 065b B4       		.byte	0xb4
 1491 065c 14050000 		.4byte	0x514
 1492 0660 F0010000 		.4byte	.LLST15
 1493 0664 16       		.uleb128 0x16
 1494 0665 61726700 		.ascii	"arg\000"
 1495 0669 01       		.byte	0x1
 1496 066a B4       		.byte	0xb4
 1497 066b 86020000 		.4byte	0x286
 1498 066f 0E020000 		.4byte	.LLST16
 1499 0673 1B       		.uleb128 0x1b
 1500 0674 77737000 		.ascii	"wsp\000"
 1501 0678 01       		.byte	0x1
 1502 0679 B5       		.byte	0xb5
 1503 067a 86020000 		.4byte	0x286
 1504 067e 2C020000 		.4byte	.LLST17
 1505 0682 1B       		.uleb128 0x1b
 1506 0683 747000   		.ascii	"tp\000"
 1507 0686 01       		.byte	0x1
 1508 0687 B6       		.byte	0xb6
 1509 0688 48020000 		.4byte	0x248
 1510 068c 58020000 		.4byte	.LLST18
 1511 0690 00       		.byte	0x0
 1512 0691 09       		.uleb128 0x9
 1513 0692 04       		.byte	0x4
 1514 0693 B6040000 		.4byte	0x4b6
 1515 0697 00       		.byte	0x0
 1516              		.section	.debug_abbrev
 1517 0000 01       		.uleb128 0x1
 1518 0001 11       		.uleb128 0x11
 1519 0002 01       		.byte	0x1
 1520 0003 25       		.uleb128 0x25
 1521 0004 0E       		.uleb128 0xe
ARM GAS  /tmp/ccAZCrX2.s 			page 28


 1522 0005 13       		.uleb128 0x13
 1523 0006 0B       		.uleb128 0xb
 1524 0007 03       		.uleb128 0x3
 1525 0008 0E       		.uleb128 0xe
 1526 0009 1B       		.uleb128 0x1b
 1527 000a 0E       		.uleb128 0xe
 1528 000b 11       		.uleb128 0x11
 1529 000c 01       		.uleb128 0x1
 1530 000d 52       		.uleb128 0x52
 1531 000e 01       		.uleb128 0x1
 1532 000f 55       		.uleb128 0x55
 1533 0010 06       		.uleb128 0x6
 1534 0011 10       		.uleb128 0x10
 1535 0012 06       		.uleb128 0x6
 1536 0013 00       		.byte	0x0
 1537 0014 00       		.byte	0x0
 1538 0015 02       		.uleb128 0x2
 1539 0016 24       		.uleb128 0x24
 1540 0017 00       		.byte	0x0
 1541 0018 0B       		.uleb128 0xb
 1542 0019 0B       		.uleb128 0xb
 1543 001a 3E       		.uleb128 0x3e
 1544 001b 0B       		.uleb128 0xb
 1545 001c 03       		.uleb128 0x3
 1546 001d 08       		.uleb128 0x8
 1547 001e 00       		.byte	0x0
 1548 001f 00       		.byte	0x0
 1549 0020 03       		.uleb128 0x3
 1550 0021 16       		.uleb128 0x16
 1551 0022 00       		.byte	0x0
 1552 0023 03       		.uleb128 0x3
 1553 0024 0E       		.uleb128 0xe
 1554 0025 3A       		.uleb128 0x3a
 1555 0026 0B       		.uleb128 0xb
 1556 0027 3B       		.uleb128 0x3b
 1557 0028 0B       		.uleb128 0xb
 1558 0029 49       		.uleb128 0x49
 1559 002a 13       		.uleb128 0x13
 1560 002b 00       		.byte	0x0
 1561 002c 00       		.byte	0x0
 1562 002d 04       		.uleb128 0x4
 1563 002e 24       		.uleb128 0x24
 1564 002f 00       		.byte	0x0
 1565 0030 0B       		.uleb128 0xb
 1566 0031 0B       		.uleb128 0xb
 1567 0032 3E       		.uleb128 0x3e
 1568 0033 0B       		.uleb128 0xb
 1569 0034 03       		.uleb128 0x3
 1570 0035 0E       		.uleb128 0xe
 1571 0036 00       		.byte	0x0
 1572 0037 00       		.byte	0x0
 1573 0038 05       		.uleb128 0x5
 1574 0039 13       		.uleb128 0x13
 1575 003a 01       		.byte	0x1
 1576 003b 03       		.uleb128 0x3
 1577 003c 0E       		.uleb128 0xe
 1578 003d 0B       		.uleb128 0xb
ARM GAS  /tmp/ccAZCrX2.s 			page 29


 1579 003e 0B       		.uleb128 0xb
 1580 003f 3A       		.uleb128 0x3a
 1581 0040 0B       		.uleb128 0xb
 1582 0041 3B       		.uleb128 0x3b
 1583 0042 0B       		.uleb128 0xb
 1584 0043 01       		.uleb128 0x1
 1585 0044 13       		.uleb128 0x13
 1586 0045 00       		.byte	0x0
 1587 0046 00       		.byte	0x0
 1588 0047 06       		.uleb128 0x6
 1589 0048 0D       		.uleb128 0xd
 1590 0049 00       		.byte	0x0
 1591 004a 03       		.uleb128 0x3
 1592 004b 0E       		.uleb128 0xe
 1593 004c 3A       		.uleb128 0x3a
 1594 004d 0B       		.uleb128 0xb
 1595 004e 3B       		.uleb128 0x3b
 1596 004f 0B       		.uleb128 0xb
 1597 0050 49       		.uleb128 0x49
 1598 0051 13       		.uleb128 0x13
 1599 0052 38       		.uleb128 0x38
 1600 0053 0A       		.uleb128 0xa
 1601 0054 00       		.byte	0x0
 1602 0055 00       		.byte	0x0
 1603 0056 07       		.uleb128 0x7
 1604 0057 0D       		.uleb128 0xd
 1605 0058 00       		.byte	0x0
 1606 0059 03       		.uleb128 0x3
 1607 005a 08       		.uleb128 0x8
 1608 005b 3A       		.uleb128 0x3a
 1609 005c 0B       		.uleb128 0xb
 1610 005d 3B       		.uleb128 0x3b
 1611 005e 0B       		.uleb128 0xb
 1612 005f 49       		.uleb128 0x49
 1613 0060 13       		.uleb128 0x13
 1614 0061 38       		.uleb128 0x38
 1615 0062 0A       		.uleb128 0xa
 1616 0063 00       		.byte	0x0
 1617 0064 00       		.byte	0x0
 1618 0065 08       		.uleb128 0x8
 1619 0066 13       		.uleb128 0x13
 1620 0067 01       		.byte	0x1
 1621 0068 0B       		.uleb128 0xb
 1622 0069 0B       		.uleb128 0xb
 1623 006a 3A       		.uleb128 0x3a
 1624 006b 0B       		.uleb128 0xb
 1625 006c 3B       		.uleb128 0x3b
 1626 006d 0B       		.uleb128 0xb
 1627 006e 01       		.uleb128 0x1
 1628 006f 13       		.uleb128 0x13
 1629 0070 00       		.byte	0x0
 1630 0071 00       		.byte	0x0
 1631 0072 09       		.uleb128 0x9
 1632 0073 0F       		.uleb128 0xf
 1633 0074 00       		.byte	0x0
 1634 0075 0B       		.uleb128 0xb
 1635 0076 0B       		.uleb128 0xb
ARM GAS  /tmp/ccAZCrX2.s 			page 30


 1636 0077 49       		.uleb128 0x49
 1637 0078 13       		.uleb128 0x13
 1638 0079 00       		.byte	0x0
 1639 007a 00       		.byte	0x0
 1640 007b 0A       		.uleb128 0xa
 1641 007c 0F       		.uleb128 0xf
 1642 007d 00       		.byte	0x0
 1643 007e 0B       		.uleb128 0xb
 1644 007f 0B       		.uleb128 0xb
 1645 0080 00       		.byte	0x0
 1646 0081 00       		.byte	0x0
 1647 0082 0B       		.uleb128 0xb
 1648 0083 0D       		.uleb128 0xd
 1649 0084 00       		.byte	0x0
 1650 0085 03       		.uleb128 0x3
 1651 0086 08       		.uleb128 0x8
 1652 0087 3A       		.uleb128 0x3a
 1653 0088 0B       		.uleb128 0xb
 1654 0089 3B       		.uleb128 0x3b
 1655 008a 05       		.uleb128 0x5
 1656 008b 49       		.uleb128 0x49
 1657 008c 13       		.uleb128 0x13
 1658 008d 38       		.uleb128 0x38
 1659 008e 0A       		.uleb128 0xa
 1660 008f 00       		.byte	0x0
 1661 0090 00       		.byte	0x0
 1662 0091 0C       		.uleb128 0xc
 1663 0092 13       		.uleb128 0x13
 1664 0093 01       		.byte	0x1
 1665 0094 03       		.uleb128 0x3
 1666 0095 0E       		.uleb128 0xe
 1667 0096 0B       		.uleb128 0xb
 1668 0097 0B       		.uleb128 0xb
 1669 0098 3A       		.uleb128 0x3a
 1670 0099 0B       		.uleb128 0xb
 1671 009a 3B       		.uleb128 0x3b
 1672 009b 05       		.uleb128 0x5
 1673 009c 01       		.uleb128 0x1
 1674 009d 13       		.uleb128 0x13
 1675 009e 00       		.byte	0x0
 1676 009f 00       		.byte	0x0
 1677 00a0 0D       		.uleb128 0xd
 1678 00a1 35       		.uleb128 0x35
 1679 00a2 00       		.byte	0x0
 1680 00a3 49       		.uleb128 0x49
 1681 00a4 13       		.uleb128 0x13
 1682 00a5 00       		.byte	0x0
 1683 00a6 00       		.byte	0x0
 1684 00a7 0E       		.uleb128 0xe
 1685 00a8 15       		.uleb128 0x15
 1686 00a9 01       		.byte	0x1
 1687 00aa 27       		.uleb128 0x27
 1688 00ab 0C       		.uleb128 0xc
 1689 00ac 49       		.uleb128 0x49
 1690 00ad 13       		.uleb128 0x13
 1691 00ae 01       		.uleb128 0x1
 1692 00af 13       		.uleb128 0x13
ARM GAS  /tmp/ccAZCrX2.s 			page 31


 1693 00b0 00       		.byte	0x0
 1694 00b1 00       		.byte	0x0
 1695 00b2 0F       		.uleb128 0xf
 1696 00b3 05       		.uleb128 0x5
 1697 00b4 00       		.byte	0x0
 1698 00b5 49       		.uleb128 0x49
 1699 00b6 13       		.uleb128 0x13
 1700 00b7 00       		.byte	0x0
 1701 00b8 00       		.byte	0x0
 1702 00b9 10       		.uleb128 0x10
 1703 00ba 17       		.uleb128 0x17
 1704 00bb 01       		.byte	0x1
 1705 00bc 0B       		.uleb128 0xb
 1706 00bd 0B       		.uleb128 0xb
 1707 00be 3A       		.uleb128 0x3a
 1708 00bf 0B       		.uleb128 0xb
 1709 00c0 3B       		.uleb128 0x3b
 1710 00c1 0B       		.uleb128 0xb
 1711 00c2 01       		.uleb128 0x1
 1712 00c3 13       		.uleb128 0x13
 1713 00c4 00       		.byte	0x0
 1714 00c5 00       		.byte	0x0
 1715 00c6 11       		.uleb128 0x11
 1716 00c7 0D       		.uleb128 0xd
 1717 00c8 00       		.byte	0x0
 1718 00c9 03       		.uleb128 0x3
 1719 00ca 0E       		.uleb128 0xe
 1720 00cb 3A       		.uleb128 0x3a
 1721 00cc 0B       		.uleb128 0xb
 1722 00cd 3B       		.uleb128 0x3b
 1723 00ce 0B       		.uleb128 0xb
 1724 00cf 49       		.uleb128 0x49
 1725 00d0 13       		.uleb128 0x13
 1726 00d1 00       		.byte	0x0
 1727 00d2 00       		.byte	0x0
 1728 00d3 12       		.uleb128 0x12
 1729 00d4 17       		.uleb128 0x17
 1730 00d5 01       		.byte	0x1
 1731 00d6 03       		.uleb128 0x3
 1732 00d7 0E       		.uleb128 0xe
 1733 00d8 0B       		.uleb128 0xb
 1734 00d9 0B       		.uleb128 0xb
 1735 00da 3A       		.uleb128 0x3a
 1736 00db 0B       		.uleb128 0xb
 1737 00dc 3B       		.uleb128 0x3b
 1738 00dd 0B       		.uleb128 0xb
 1739 00de 01       		.uleb128 0x1
 1740 00df 13       		.uleb128 0x13
 1741 00e0 00       		.byte	0x0
 1742 00e1 00       		.byte	0x0
 1743 00e2 13       		.uleb128 0x13
 1744 00e3 0D       		.uleb128 0xd
 1745 00e4 00       		.byte	0x0
 1746 00e5 03       		.uleb128 0x3
 1747 00e6 08       		.uleb128 0x8
 1748 00e7 3A       		.uleb128 0x3a
 1749 00e8 0B       		.uleb128 0xb
ARM GAS  /tmp/ccAZCrX2.s 			page 32


 1750 00e9 3B       		.uleb128 0x3b
 1751 00ea 0B       		.uleb128 0xb
 1752 00eb 49       		.uleb128 0x49
 1753 00ec 13       		.uleb128 0x13
 1754 00ed 00       		.byte	0x0
 1755 00ee 00       		.byte	0x0
 1756 00ef 14       		.uleb128 0x14
 1757 00f0 26       		.uleb128 0x26
 1758 00f1 00       		.byte	0x0
 1759 00f2 49       		.uleb128 0x49
 1760 00f3 13       		.uleb128 0x13
 1761 00f4 00       		.byte	0x0
 1762 00f5 00       		.byte	0x0
 1763 00f6 15       		.uleb128 0x15
 1764 00f7 2E       		.uleb128 0x2e
 1765 00f8 01       		.byte	0x1
 1766 00f9 3F       		.uleb128 0x3f
 1767 00fa 0C       		.uleb128 0xc
 1768 00fb 03       		.uleb128 0x3
 1769 00fc 0E       		.uleb128 0xe
 1770 00fd 3A       		.uleb128 0x3a
 1771 00fe 0B       		.uleb128 0xb
 1772 00ff 3B       		.uleb128 0x3b
 1773 0100 0B       		.uleb128 0xb
 1774 0101 27       		.uleb128 0x27
 1775 0102 0C       		.uleb128 0xc
 1776 0103 49       		.uleb128 0x49
 1777 0104 13       		.uleb128 0x13
 1778 0105 11       		.uleb128 0x11
 1779 0106 01       		.uleb128 0x1
 1780 0107 12       		.uleb128 0x12
 1781 0108 01       		.uleb128 0x1
 1782 0109 40       		.uleb128 0x40
 1783 010a 06       		.uleb128 0x6
 1784 010b 01       		.uleb128 0x1
 1785 010c 13       		.uleb128 0x13
 1786 010d 00       		.byte	0x0
 1787 010e 00       		.byte	0x0
 1788 010f 16       		.uleb128 0x16
 1789 0110 05       		.uleb128 0x5
 1790 0111 00       		.byte	0x0
 1791 0112 03       		.uleb128 0x3
 1792 0113 08       		.uleb128 0x8
 1793 0114 3A       		.uleb128 0x3a
 1794 0115 0B       		.uleb128 0xb
 1795 0116 3B       		.uleb128 0x3b
 1796 0117 0B       		.uleb128 0xb
 1797 0118 49       		.uleb128 0x49
 1798 0119 13       		.uleb128 0x13
 1799 011a 02       		.uleb128 0x2
 1800 011b 06       		.uleb128 0x6
 1801 011c 00       		.byte	0x0
 1802 011d 00       		.byte	0x0
 1803 011e 17       		.uleb128 0x17
 1804 011f 2E       		.uleb128 0x2e
 1805 0120 01       		.byte	0x1
 1806 0121 3F       		.uleb128 0x3f
ARM GAS  /tmp/ccAZCrX2.s 			page 33


 1807 0122 0C       		.uleb128 0xc
 1808 0123 03       		.uleb128 0x3
 1809 0124 0E       		.uleb128 0xe
 1810 0125 3A       		.uleb128 0x3a
 1811 0126 0B       		.uleb128 0xb
 1812 0127 3B       		.uleb128 0x3b
 1813 0128 0B       		.uleb128 0xb
 1814 0129 27       		.uleb128 0x27
 1815 012a 0C       		.uleb128 0xc
 1816 012b 11       		.uleb128 0x11
 1817 012c 01       		.uleb128 0x1
 1818 012d 12       		.uleb128 0x12
 1819 012e 01       		.uleb128 0x1
 1820 012f 40       		.uleb128 0x40
 1821 0130 06       		.uleb128 0x6
 1822 0131 01       		.uleb128 0x1
 1823 0132 13       		.uleb128 0x13
 1824 0133 00       		.byte	0x0
 1825 0134 00       		.byte	0x0
 1826 0135 18       		.uleb128 0x18
 1827 0136 34       		.uleb128 0x34
 1828 0137 00       		.byte	0x0
 1829 0138 03       		.uleb128 0x3
 1830 0139 0E       		.uleb128 0xe
 1831 013a 3A       		.uleb128 0x3a
 1832 013b 0B       		.uleb128 0xb
 1833 013c 3B       		.uleb128 0x3b
 1834 013d 0B       		.uleb128 0xb
 1835 013e 49       		.uleb128 0x49
 1836 013f 13       		.uleb128 0x13
 1837 0140 02       		.uleb128 0x2
 1838 0141 06       		.uleb128 0x6
 1839 0142 00       		.byte	0x0
 1840 0143 00       		.byte	0x0
 1841 0144 19       		.uleb128 0x19
 1842 0145 05       		.uleb128 0x5
 1843 0146 00       		.byte	0x0
 1844 0147 03       		.uleb128 0x3
 1845 0148 0E       		.uleb128 0xe
 1846 0149 3A       		.uleb128 0x3a
 1847 014a 0B       		.uleb128 0xb
 1848 014b 3B       		.uleb128 0x3b
 1849 014c 0B       		.uleb128 0xb
 1850 014d 49       		.uleb128 0x49
 1851 014e 13       		.uleb128 0x13
 1852 014f 02       		.uleb128 0x2
 1853 0150 06       		.uleb128 0x6
 1854 0151 00       		.byte	0x0
 1855 0152 00       		.byte	0x0
 1856 0153 1A       		.uleb128 0x1a
 1857 0154 05       		.uleb128 0x5
 1858 0155 00       		.byte	0x0
 1859 0156 03       		.uleb128 0x3
 1860 0157 08       		.uleb128 0x8
 1861 0158 3A       		.uleb128 0x3a
 1862 0159 0B       		.uleb128 0xb
 1863 015a 3B       		.uleb128 0x3b
ARM GAS  /tmp/ccAZCrX2.s 			page 34


 1864 015b 0B       		.uleb128 0xb
 1865 015c 49       		.uleb128 0x49
 1866 015d 13       		.uleb128 0x13
 1867 015e 02       		.uleb128 0x2
 1868 015f 0A       		.uleb128 0xa
 1869 0160 00       		.byte	0x0
 1870 0161 00       		.byte	0x0
 1871 0162 1B       		.uleb128 0x1b
 1872 0163 34       		.uleb128 0x34
 1873 0164 00       		.byte	0x0
 1874 0165 03       		.uleb128 0x3
 1875 0166 08       		.uleb128 0x8
 1876 0167 3A       		.uleb128 0x3a
 1877 0168 0B       		.uleb128 0xb
 1878 0169 3B       		.uleb128 0x3b
 1879 016a 0B       		.uleb128 0xb
 1880 016b 49       		.uleb128 0x49
 1881 016c 13       		.uleb128 0x13
 1882 016d 02       		.uleb128 0x2
 1883 016e 06       		.uleb128 0x6
 1884 016f 00       		.byte	0x0
 1885 0170 00       		.byte	0x0
 1886 0171 00       		.byte	0x0
 1887              		.section	.debug_pubnames,"",%progbits
 1888 0000 65000000 		.4byte	0x65
 1889 0004 0200     		.2byte	0x2
 1890 0006 00000000 		.4byte	.Ldebug_info0
 1891 000a 98060000 		.4byte	0x698
 1892 000e 35050000 		.4byte	0x535
 1893 0012 63685468 		.ascii	"chThdAddRef\000"
 1893      64416464 
 1893      52656600 
 1894 001e 61050000 		.4byte	0x561
 1895 0022 63685468 		.ascii	"chThdRelease\000"
 1895      6452656C 
 1895      65617365 
 1895      00
 1896 002f 98050000 		.4byte	0x598
 1897 0033 63685468 		.ascii	"chThdCreateFromHeap\000"
 1897      64437265 
 1897      61746546 
 1897      726F6D48 
 1897      65617000 
 1898 0047 1C060000 		.4byte	0x61c
 1899 004b 63685468 		.ascii	"chThdCreateFromMemoryPool\000"
 1899      64437265 
 1899      61746546 
 1899      726F6D4D 
 1899      656D6F72 
 1900 0065 00000000 		.4byte	0x0
 1901              		.section	.debug_pubtypes,"",%progbits
 1902 0000 8D010000 		.4byte	0x18d
 1903 0004 0200     		.2byte	0x2
 1904 0006 00000000 		.4byte	.Ldebug_info0
 1905 000a 98060000 		.4byte	0x698
 1906 000e 30000000 		.4byte	0x30
 1907 0012 73697A65 		.ascii	"size_t\000"
ARM GAS  /tmp/ccAZCrX2.s 			page 35


 1907      5F7400
 1908 0019 49000000 		.4byte	0x49
 1909 001d 75696E74 		.ascii	"uint8_t\000"
 1909      385F7400 
 1910 0025 69000000 		.4byte	0x69
 1911 0029 696E7433 		.ascii	"int32_t\000"
 1911      325F7400 
 1912 0031 7B000000 		.4byte	0x7b
 1913 0035 75696E74 		.ascii	"uint32_t\000"
 1913      33325F74 
 1913      00
 1914 003e 94000000 		.4byte	0x94
 1915 0042 75696E74 		.ascii	"uint64_t\000"
 1915      36345F74 
 1915      00
 1916 004b A6000000 		.4byte	0xa6
 1917 004f 746D6F64 		.ascii	"tmode_t\000"
 1917      655F7400 
 1918 0057 B1000000 		.4byte	0xb1
 1919 005b 74737461 		.ascii	"tstate_t\000"
 1919      74655F74 
 1919      00
 1920 0064 BC000000 		.4byte	0xbc
 1921 0068 74726566 		.ascii	"trefs_t\000"
 1921      735F7400 
 1922 0070 C7000000 		.4byte	0xc7
 1923 0074 74707269 		.ascii	"tprio_t\000"
 1923      6F5F7400 
 1924 007c D2000000 		.4byte	0xd2
 1925 0080 6D73675F 		.ascii	"msg_t\000"
 1925      7400
 1926 0086 DD000000 		.4byte	0xdd
 1927 008a 6576656E 		.ascii	"eventmask_t\000"
 1927      746D6173 
 1927      6B5F7400 
 1928 0096 E8000000 		.4byte	0xe8
 1929 009a 73797374 		.ascii	"systime_t\000"
 1929      696D655F 
 1929      7400
 1930 00a4 F3000000 		.4byte	0xf3
 1931 00a8 54687265 		.ascii	"Thread\000"
 1931      616400
 1932 00af 4E020000 		.4byte	0x24e
 1933 00b3 54687265 		.ascii	"ThreadsQueue\000"
 1933      61647351 
 1933      75657565 
 1933      00
 1934 00c0 70020000 		.4byte	0x270
 1935 00c4 54687265 		.ascii	"ThreadsList\000"
 1935      6164734C 
 1935      69737400 
 1936 00d0 7B020000 		.4byte	0x27b
 1937 00d4 72656761 		.ascii	"regarm_t\000"
 1937      726D5F74 
 1937      00
 1938 00dd 88020000 		.4byte	0x288
 1939 00e1 73746B61 		.ascii	"stkalign_t\000"
ARM GAS  /tmp/ccAZCrX2.s 			page 36


 1939      6C69676E 
 1939      5F7400
 1940 00ec 93020000 		.4byte	0x293
 1941 00f0 696E7463 		.ascii	"intctx\000"
 1941      747800
 1942 00f7 20030000 		.4byte	0x320
 1943 00fb 636F6E74 		.ascii	"context\000"
 1943      65787400 
 1944 0103 48030000 		.4byte	0x348
 1945 0107 4D757465 		.ascii	"Mutex\000"
 1945      7800
 1946 010d 85030000 		.4byte	0x385
 1947 0111 4D757465 		.ascii	"Mutex\000"
 1947      7800
 1948 0117 90030000 		.4byte	0x390
 1949 011b 6D656D67 		.ascii	"memgetfunc_t\000"
 1949      65746675 
 1949      6E635F74 
 1949      00
 1950 0128 B1030000 		.4byte	0x3b1
 1951 012c 4D656D6F 		.ascii	"MemoryHeap\000"
 1951      72794865 
 1951      617000
 1952 0137 12040000 		.4byte	0x412
 1953 013b 68656170 		.ascii	"heap_header\000"
 1953      5F686561 
 1953      64657200 
 1954 0147 BC030000 		.4byte	0x3bc
 1955 014b 6D656D6F 		.ascii	"memory_heap\000"
 1955      72795F68 
 1955      65617000 
 1956 0157 62040000 		.4byte	0x462
 1957 015b 706F6F6C 		.ascii	"pool_header\000"
 1957      5F686561 
 1957      64657200 
 1958 0167 B6040000 		.4byte	0x4b6
 1959 016b 4D656D6F 		.ascii	"MemoryPool\000"
 1959      7279506F 
 1959      6F6C00
 1960 0176 FE000000 		.4byte	0xfe
 1961 017a 54687265 		.ascii	"Thread\000"
 1961      616400
 1962 0181 14050000 		.4byte	0x514
 1963 0185 7466756E 		.ascii	"tfunc_t\000"
 1963      635F7400 
 1964 018d 00000000 		.4byte	0x0
 1965              		.section	.debug_aranges,"",%progbits
 1966 0000 34000000 		.4byte	0x34
 1967 0004 0200     		.2byte	0x2
 1968 0006 00000000 		.4byte	.Ldebug_info0
 1969 000a 04       		.byte	0x4
 1970 000b 00       		.byte	0x0
 1971 000c 0000     		.2byte	0x0
 1972 000e 0000     		.2byte	0x0
 1973 0010 00000000 		.4byte	.LFB0
 1974 0014 48000000 		.4byte	.LFE0-.LFB0
 1975 0018 00000000 		.4byte	.LFB1
ARM GAS  /tmp/ccAZCrX2.s 			page 37


 1976 001c 7C000000 		.4byte	.LFE1-.LFB1
 1977 0020 00000000 		.4byte	.LFB2
 1978 0024 60000000 		.4byte	.LFE2-.LFB2
 1979 0028 00000000 		.4byte	.LFB3
 1980 002c 78000000 		.4byte	.LFE3-.LFB3
 1981 0030 00000000 		.4byte	0x0
 1982 0034 00000000 		.4byte	0x0
 1983              		.section	.debug_ranges,"",%progbits
 1984              	.Ldebug_ranges0:
 1985 0000 00000000 		.4byte	.LFB0
 1986 0004 48000000 		.4byte	.LFE0
 1987 0008 00000000 		.4byte	.LFB1
 1988 000c 7C000000 		.4byte	.LFE1
 1989 0010 00000000 		.4byte	.LFB2
 1990 0014 60000000 		.4byte	.LFE2
 1991 0018 00000000 		.4byte	.LFB3
 1992 001c 78000000 		.4byte	.LFE3
 1993 0020 00000000 		.4byte	0x0
 1994 0024 00000000 		.4byte	0x0
 1995              		.section	.debug_str,"MS",%progbits,1
 1996              	.LASF72:
 1997 0000 7466756E 		.ascii	"tfunc_t\000"
 1997      635F7400 
 1998              	.LASF36:
 1999 0008 705F6D73 		.ascii	"p_msg\000"
 1999      6700
 2000              	.LASF80:
 2001 000e 2E2E2F63 		.ascii	"../chibios_2.4.x/os/kernel/src/chdynamic.c\000"
 2001      68696269 
 2001      6F735F32 
 2001      2E342E78 
 2001      2F6F732F 
 2002              	.LASF2:
 2003 0039 73697A65 		.ascii	"size_t\000"
 2003      5F7400
 2004              	.LASF67:
 2005 0040 7264796D 		.ascii	"rdymsg\000"
 2005      736700
 2006              	.LASF12:
 2007 0047 75696E74 		.ascii	"uint64_t\000"
 2007      36345F74 
 2007      00
 2008              	.LASF66:
 2009 0050 4D656D6F 		.ascii	"MemoryPool\000"
 2009      7279506F 
 2009      6F6C00
 2010              	.LASF51:
 2011 005b 6D656D67 		.ascii	"memgetfunc_t\000"
 2011      65746675 
 2011      6E635F74 
 2011      00
 2012              	.LASF13:
 2013 0068 6C6F6E67 		.ascii	"long long unsigned int\000"
 2013      206C6F6E 
 2013      6720756E 
 2013      7369676E 
 2013      65642069 
ARM GAS  /tmp/ccAZCrX2.s 			page 38


 2014              	.LASF68:
 2015 007f 65786974 		.ascii	"exitcode\000"
 2015      636F6465 
 2015      00
 2016              	.LASF55:
 2017 0088 685F6672 		.ascii	"h_free\000"
 2017      656500
 2018              	.LASF75:
 2019 008f 68656170 		.ascii	"heapp\000"
 2019      7000
 2020              	.LASF57:
 2021 0095 6E657874 		.ascii	"next\000"
 2021      00
 2022              	.LASF24:
 2023 009a 705F7072 		.ascii	"p_prio\000"
 2023      696F00
 2024              	.LASF11:
 2025 00a1 6C6F6E67 		.ascii	"long long int\000"
 2025      206C6F6E 
 2025      6720696E 
 2025      7400
 2026              	.LASF1:
 2027 00af 7369676E 		.ascii	"signed char\000"
 2027      65642063 
 2027      68617200 
 2028              	.LASF56:
 2029 00bb 685F6D74 		.ascii	"h_mtx\000"
 2029      7800
 2030              	.LASF40:
 2031 00c1 705F6D70 		.ascii	"p_mpool\000"
 2031      6F6F6C00 
 2032              	.LASF48:
 2033 00c9 6D5F7175 		.ascii	"m_queue\000"
 2033      65756500 
 2034              	.LASF8:
 2035 00d1 6C6F6E67 		.ascii	"long int\000"
 2035      20696E74 
 2035      00
 2036              	.LASF74:
 2037 00da 63685468 		.ascii	"chThdCreateFromHeap\000"
 2037      64437265 
 2037      61746546 
 2037      726F6D48 
 2037      65617000 
 2038              	.LASF15:
 2039 00ee 74737461 		.ascii	"tstate_t\000"
 2039      74655F74 
 2039      00
 2040              	.LASF63:
 2041 00f7 6D705F6E 		.ascii	"mp_next\000"
 2041      65787400 
 2042              	.LASF26:
 2043 00ff 705F6E65 		.ascii	"p_newer\000"
 2043      77657200 
 2044              	.LASF78:
 2045 0107 63685468 		.ascii	"chThdCreateFromMemoryPool\000"
 2045      64437265 
ARM GAS  /tmp/ccAZCrX2.s 			page 39


 2045      61746546 
 2045      726F6D4D 
 2045      656D6F72 
 2046              	.LASF65:
 2047 0121 6D705F70 		.ascii	"mp_provider\000"
 2047      726F7669 
 2047      64657200 
 2048              	.LASF43:
 2049 012d 72656761 		.ascii	"regarm_t\000"
 2049      726D5F74 
 2049      00
 2050              	.LASF59:
 2051 0136 616C6967 		.ascii	"align\000"
 2051      6E00
 2052              	.LASF29:
 2053 013c 705F7374 		.ascii	"p_stklimit\000"
 2053      6B6C696D 
 2053      697400
 2054              	.LASF0:
 2055 0147 756E7369 		.ascii	"unsigned int\000"
 2055      676E6564 
 2055      20696E74 
 2055      00
 2056              	.LASF81:
 2057 0154 2F686F6D 		.ascii	"/home/z80/projects/ipm/soft/firmware/valve\000"
 2057      652F7A38 
 2057      302F7072 
 2057      6F6A6563 
 2057      74732F69 
 2058              	.LASF10:
 2059 017f 6C6F6E67 		.ascii	"long unsigned int\000"
 2059      20756E73 
 2059      69676E65 
 2059      6420696E 
 2059      7400
 2060              	.LASF46:
 2061 0191 636F6E74 		.ascii	"context\000"
 2061      65787400 
 2062              	.LASF60:
 2063 0199 73697A65 		.ascii	"size\000"
 2063      00
 2064              	.LASF6:
 2065 019e 73686F72 		.ascii	"short unsigned int\000"
 2065      7420756E 
 2065      7369676E 
 2065      65642069 
 2065      6E7400
 2066              	.LASF18:
 2067 01b1 6D73675F 		.ascii	"msg_t\000"
 2067      7400
 2068              	.LASF14:
 2069 01b7 746D6F64 		.ascii	"tmode_t\000"
 2069      655F7400 
 2070              	.LASF42:
 2071 01bf 54687265 		.ascii	"ThreadsList\000"
 2071      6164734C 
 2071      69737400 
ARM GAS  /tmp/ccAZCrX2.s 			page 40


 2072              	.LASF19:
 2073 01cb 6576656E 		.ascii	"eventmask_t\000"
 2073      746D6173 
 2073      6B5F7400 
 2074              	.LASF47:
 2075 01d7 4D757465 		.ascii	"Mutex\000"
 2075      7800
 2076              	.LASF73:
 2077 01dd 63685468 		.ascii	"chThdAddRef\000"
 2077      64416464 
 2077      52656600 
 2078              	.LASF44:
 2079 01e9 73746B61 		.ascii	"stkalign_t\000"
 2079      6C69676E 
 2079      5F7400
 2080              	.LASF27:
 2081 01f4 705F6F6C 		.ascii	"p_older\000"
 2081      64657200 
 2082              	.LASF41:
 2083 01fc 54687265 		.ascii	"ThreadsQueue\000"
 2083      61647351 
 2083      75657565 
 2083      00
 2084              	.LASF64:
 2085 0209 6D705F6F 		.ascii	"mp_object_size\000"
 2085      626A6563 
 2085      745F7369 
 2085      7A6500
 2086              	.LASF76:
 2087 0218 7072696F 		.ascii	"prio\000"
 2087      00
 2088              	.LASF52:
 2089 021d 4D656D6F 		.ascii	"MemoryHeap\000"
 2089      72794865 
 2089      617000
 2090              	.LASF62:
 2091 0228 70685F6E 		.ascii	"ph_next\000"
 2091      65787400 
 2092              	.LASF16:
 2093 0230 74726566 		.ascii	"trefs_t\000"
 2093      735F7400 
 2094              	.LASF77:
 2095 0238 72656673 		.ascii	"refs\000"
 2095      00
 2096              	.LASF23:
 2097 023d 705F7072 		.ascii	"p_prev\000"
 2097      657600
 2098              	.LASF17:
 2099 0244 74707269 		.ascii	"tprio_t\000"
 2099      6F5F7400 
 2100              	.LASF7:
 2101 024c 696E7433 		.ascii	"int32_t\000"
 2101      325F7400 
 2102              	.LASF4:
 2103 0254 756E7369 		.ascii	"unsigned char\000"
 2103      676E6564 
 2103      20636861 
ARM GAS  /tmp/ccAZCrX2.s 			page 41


 2103      7200
 2104              	.LASF54:
 2105 0262 685F7072 		.ascii	"h_provider\000"
 2105      6F766964 
 2105      657200
 2106              	.LASF38:
 2107 026d 705F6D74 		.ascii	"p_mtxlist\000"
 2107      786C6973 
 2107      7400
 2108              	.LASF5:
 2109 0277 73686F72 		.ascii	"short int\000"
 2109      7420696E 
 2109      7400
 2110              	.LASF30:
 2111 0281 705F7374 		.ascii	"p_state\000"
 2111      61746500 
 2112              	.LASF82:
 2113 0289 68656170 		.ascii	"heap_header\000"
 2113      5F686561 
 2113      64657200 
 2114              	.LASF70:
 2115 0295 65776D61 		.ascii	"ewmask\000"
 2115      736B00
 2116              	.LASF22:
 2117 029c 705F6E65 		.ascii	"p_next\000"
 2117      787400
 2118              	.LASF31:
 2119 02a3 705F666C 		.ascii	"p_flags\000"
 2119      61677300 
 2120              	.LASF83:
 2121 02ab 63685468 		.ascii	"chThdRelease\000"
 2121      6452656C 
 2121      65617365 
 2121      00
 2122              	.LASF21:
 2123 02b8 54687265 		.ascii	"Thread\000"
 2123      616400
 2124              	.LASF37:
 2125 02bf 705F6570 		.ascii	"p_epending\000"
 2125      656E6469 
 2125      6E6700
 2126              	.LASF9:
 2127 02ca 75696E74 		.ascii	"uint32_t\000"
 2127      33325F74 
 2127      00
 2128              	.LASF58:
 2129 02d3 68656170 		.ascii	"heap\000"
 2129      00
 2130              	.LASF71:
 2131 02d8 63686172 		.ascii	"char\000"
 2131      00
 2132              	.LASF50:
 2133 02dd 6D5F6E65 		.ascii	"m_next\000"
 2133      787400
 2134              	.LASF20:
 2135 02e4 73797374 		.ascii	"systime_t\000"
 2135      696D655F 
ARM GAS  /tmp/ccAZCrX2.s 			page 42


 2135      7400
 2136              	.LASF39:
 2137 02ee 705F7265 		.ascii	"p_realprio\000"
 2137      616C7072 
 2137      696F00
 2138              	.LASF33:
 2139 02f9 705F7469 		.ascii	"p_time\000"
 2139      6D6500
 2140              	.LASF45:
 2141 0300 696E7463 		.ascii	"intctx\000"
 2141      747800
 2142              	.LASF35:
 2143 0307 705F6D73 		.ascii	"p_msgqueue\000"
 2143      67717565 
 2143      756500
 2144              	.LASF61:
 2145 0312 706F6F6C 		.ascii	"pool_header\000"
 2145      5F686561 
 2145      64657200 
 2146              	.LASF32:
 2147 031e 705F7265 		.ascii	"p_refs\000"
 2147      667300
 2148              	.LASF3:
 2149 0325 75696E74 		.ascii	"uint8_t\000"
 2149      385F7400 
 2150              	.LASF69:
 2151 032d 77746F62 		.ascii	"wtobjp\000"
 2151      6A7000
 2152              	.LASF79:
 2153 0334 474E5520 		.ascii	"GNU C 4.5.2\000"
 2153      4320342E 
 2153      352E3200 
 2154              	.LASF28:
 2155 0340 705F6E61 		.ascii	"p_name\000"
 2155      6D6500
 2156              	.LASF49:
 2157 0347 6D5F6F77 		.ascii	"m_owner\000"
 2157      6E657200 
 2158              	.LASF25:
 2159 034f 705F6374 		.ascii	"p_ctx\000"
 2159      7800
 2160              	.LASF34:
 2161 0355 705F7761 		.ascii	"p_waiting\000"
 2161      6974696E 
 2161      6700
 2162              	.LASF53:
 2163 035f 6D656D6F 		.ascii	"memory_heap\000"
 2163      72795F68 
 2163      65617000 
 2164              		.ident	"GCC: (Sourcery G++ Lite 2011.03-42) 4.5.2"
ARM GAS  /tmp/ccAZCrX2.s 			page 43


DEFINED SYMBOLS
                            *ABS*:00000000 chdynamic.c
     /tmp/ccAZCrX2.s:24     .text.chThdAddRef:00000000 $t
     /tmp/ccAZCrX2.s:30     .text.chThdAddRef:00000000 chThdAddRef
     /tmp/ccAZCrX2.s:88     .text.chThdAddRef:00000044 $d
     /tmp/ccAZCrX2.s:93     .text.chThdRelease:00000000 $t
     /tmp/ccAZCrX2.s:99     .text.chThdRelease:00000000 chThdRelease
     /tmp/ccAZCrX2.s:195    .text.chThdRelease:00000078 $d
     /tmp/ccAZCrX2.s:200    .text.chThdCreateFromHeap:00000000 $t
     /tmp/ccAZCrX2.s:206    .text.chThdCreateFromHeap:00000000 chThdCreateFromHeap
     /tmp/ccAZCrX2.s:290    .text.chThdCreateFromMemoryPool:00000000 $t
     /tmp/ccAZCrX2.s:296    .text.chThdCreateFromMemoryPool:00000000 chThdCreateFromMemoryPool
     /tmp/ccAZCrX2.s:394    .text.chThdCreateFromMemoryPool:00000074 $d
     /tmp/ccAZCrX2.s:399    .rodata.str1.4:00000000 $d
                     .debug_frame:00000010 $d
     /tmp/ccAZCrX2.s:92     .text.chThdAddRef:00000048 $t
     /tmp/ccAZCrX2.s:2164   .text.chThdRelease:0000007c $t
     /tmp/ccAZCrX2.s:398    .text.chThdCreateFromMemoryPool:00000078 $t

UNDEFINED SYMBOLS
_port_lock
dbg_check_lock
dbg_check_unlock
_port_unlock
chDbgPanic
chPoolFree
chHeapFree
chHeapAlloc
_thread_memfill
chThdCreateI
chSchWakeupS
chPoolAlloc
