ARM GAS  /tmp/ccAZCrX2.s 			page 1


   1              		.syntax unified
   2              		.cpu cortex-m3
   3              		.fpu softvfp
   4              		.eabi_attribute 20, 1
   5              		.eabi_attribute 21, 1
   6              		.eabi_attribute 23, 3
   7              		.eabi_attribute 24, 1
   8              		.eabi_attribute 25, 1
   9              		.eabi_attribute 26, 1
  10              		.eabi_attribute 30, 2
  11              		.eabi_attribute 18, 4
  12              		.thumb
  13              		.file	"chdynamic.c"
  20 0000 87020000 		.text
  20      0200D801 
  20      00000201 
  20      FB0E0D00 
  20      01010101 
  21              	.Ltext0:
  22              		.cfi_sections	.debug_frame
  23              		.section	.text.chThdAddRef,"ax",%progbits
  24              		.align	2
  25              		.p2align 4,,15
  26              		.global	chThdAddRef
  27              		.thumb
  28              		.thumb_func
  29              		.type	chThdAddRef, %function
  30              	chThdAddRef:
  31              	.LFB0:
  32              		.file 1 "../chibios_2.4.x/os/kernel/src/chdynamic.c"
  33              		.loc 1 52 0
  34              		.cfi_startproc
  35              		@ args = 0, pretend = 0, frame = 0
  36              		@ frame_needed = 0, uses_anonymous_args = 0
  37              	.LVL0:
  38 0000 10B5     		push	{r4, lr}
  39              	.LCFI0:
  40              		.cfi_def_cfa_offset 8
  41              		.loc 1 52 0
  42 0002 0446     		mov	r4, r0
  43              		.cfi_offset 14, -4
  44              		.cfi_offset 4, -8
  45              		.loc 1 54 0
  46              	@ 54 "../chibios_2.4.x/os/kernel/src/chdynamic.c" 1
  47 0004 FFF7FEFF 		bl      _port_lock
  48              	@ 0 "" 2
  49              		.thumb
  50 0008 FFF7FEFF 		bl	dbg_check_lock
  51              	.LVL1:
  52              		.loc 1 55 0
  53 000c 94F82230 		ldrb	r3, [r4, #34]	@ zero_extendqisi2
ARM GAS  /tmp/ccAZCrX2.s 			page 2


  54 0010 FF2B     		cmp	r3, #255
  55 0012 08D0     		beq	.L4
  56              		.loc 1 56 0
  57 0014 0133     		adds	r3, r3, #1
  58 0016 84F82230 		strb	r3, [r4, #34]
  59              		.loc 1 57 0
  60 001a FFF7FEFF 		bl	dbg_check_unlock
  61              	@ 57 "../chibios_2.4.x/os/kernel/src/chdynamic.c" 1
  62 001e FFF7FEFF 		bl      _port_unlock
  63              	@ 0 "" 2
  64              		.loc 1 59 0
  65              		.thumb
  66 0022 2046     		mov	r0, r4
  67 0024 10BD     		pop	{r4, pc}
  68              	.L4:
  69              		.loc 1 55 0 discriminator 1
  70 0026 0748     		ldr	r0, .L5
  71 0028 FFF7FEFF 		bl	chDbgPanic
  72 002c 94F82230 		ldrb	r3, [r4, #34]	@ zero_extendqisi2
  73              		.loc 1 56 0 discriminator 1
  74 0030 0133     		adds	r3, r3, #1
  75 0032 84F82230 		strb	r3, [r4, #34]
  76              		.loc 1 57 0 discriminator 1
  77 0036 FFF7FEFF 		bl	dbg_check_unlock
  78              	@ 57 "../chibios_2.4.x/os/kernel/src/chdynamic.c" 1
  79 003a FFF7FEFF 		bl      _port_unlock
  80              	@ 0 "" 2
  81              		.loc 1 59 0 discriminator 1
  82              		.thumb
  83 003e 2046     		mov	r0, r4
  84 0040 10BD     		pop	{r4, pc}
  85              	.L6:
  86 0042 00BF     		.align	2
  87              	.L5:
  88 0044 00000000 		.word	.LC0
  89              		.cfi_endproc
  90              	.LFE0:
  91              		.size	chThdAddRef, .-chThdAddRef
  92 0048 AFF30080 		.section	.text.chThdRelease,"ax",%progbits
  92      AFF30080 
  93              		.align	2
  94              		.p2align 4,,15
  95              		.global	chThdRelease
  96              		.thumb
  97              		.thumb_func
  98              		.type	chThdRelease, %function
  99              	chThdRelease:
 100              	.LFB1:
 101              		.loc 1 74 0
 102              		.cfi_startproc
 103              		@ args = 0, pretend = 0, frame = 0
 104              		@ frame_needed = 0, uses_anonymous_args = 0
 105              	.LVL2:
 106 0000 70B5     		push	{r4, r5, r6, lr}
 107              	.LCFI1:
 108              		.cfi_def_cfa_offset 16
 109              		.loc 1 74 0
ARM GAS  /tmp/ccAZCrX2.s 			page 3


 110 0002 0446     		mov	r4, r0
 111              		.cfi_offset 14, -4
 112              		.cfi_offset 6, -8
 113              		.cfi_offset 5, -12
 114              		.cfi_offset 4, -16
 115              		.loc 1 77 0
 116              	@ 77 "../chibios_2.4.x/os/kernel/src/chdynamic.c" 1
 117 0004 FFF7FEFF 		bl      _port_lock
 118              	@ 0 "" 2
 119              		.thumb
 120 0008 FFF7FEFF 		bl	dbg_check_lock
 121              	.LVL3:
 122              		.loc 1 78 0
 123 000c 94F82250 		ldrb	r5, [r4, #34]	@ zero_extendqisi2
 124 0010 002D     		cmp	r5, #0
 125 0012 20D0     		beq	.L12
 126              	.L8:
 127              		.loc 1 79 0
 128 0014 013D     		subs	r5, r5, #1
 129 0016 EDB2     		uxtb	r5, r5
 130 0018 84F82250 		strb	r5, [r4, #34]
 131              	.LVL4:
 132              		.loc 1 80 0
 133 001c FFF7FEFF 		bl	dbg_check_unlock
 134              	@ 80 "../chibios_2.4.x/os/kernel/src/chdynamic.c" 1
 135 0020 FFF7FEFF 		bl      _port_unlock
 136              	@ 0 "" 2
 137              		.loc 1 85 0
 138              		.thumb
 139 0024 1DB9     		cbnz	r5, .L7
 140              		.loc 1 85 0 is_stmt 0 discriminator 1
 141 0026 94F82030 		ldrb	r3, [r4, #32]	@ zero_extendqisi2
 142 002a 0E2B     		cmp	r3, #14
 143 002c 00D0     		beq	.L13
 144              	.L7:
 145 002e 70BD     		pop	{r4, r5, r6, pc}
 146              	.L13:
 147              		.loc 1 86 0 is_stmt 1
 148 0030 94F82100 		ldrb	r0, [r4, #33]	@ zero_extendqisi2
 149 0034 00F00303 		and	r3, r0, #3
 150 0038 012B     		cmp	r3, #1
 151 003a 12D0     		beq	.L10
 152 003c 022B     		cmp	r3, #2
 153 003e F6D1     		bne	.L7
 154              		.loc 1 98 0
 155 0040 6369     		ldr	r3, [r4, #20]
 156 0042 2169     		ldr	r1, [r4, #16]
 157              		.loc 1 100 0
 158 0044 A06C     		ldr	r0, [r4, #72]
 159              		.loc 1 98 0
 160 0046 1961     		str	r1, [r3, #16]
 161 0048 2269     		ldr	r2, [r4, #16]
 162              		.loc 1 100 0
 163 004a 2146     		mov	r1, r4
 164              		.loc 1 98 0
 165 004c 5361     		str	r3, [r2, #20]
 166              		.loc 1 105 0
ARM GAS  /tmp/ccAZCrX2.s 			page 4


 167 004e BDE87040 		pop	{r4, r5, r6, lr}
 168              		.loc 1 100 0
 169 0052 FFF7FEBF 		b	chPoolFree
 170              	.LVL5:
 171              	.L12:
 172              		.loc 1 78 0 discriminator 1
 173 0056 0848     		ldr	r0, .L14
 174 0058 FFF7FEFF 		bl	chDbgPanic
 175 005c 94F82250 		ldrb	r5, [r4, #34]	@ zero_extendqisi2
 176 0060 D8E7     		b	.L8
 177              	.LVL6:
 178              	.L10:
 179              		.loc 1 90 0
 180 0062 6169     		ldr	r1, [r4, #20]
 181 0064 2369     		ldr	r3, [r4, #16]
 182              		.loc 1 92 0
 183 0066 2046     		mov	r0, r4
 184              		.loc 1 90 0
 185 0068 0B61     		str	r3, [r1, #16]
 186 006a 2269     		ldr	r2, [r4, #16]
 187 006c 5161     		str	r1, [r2, #20]
 188              		.loc 1 105 0
 189 006e BDE87040 		pop	{r4, r5, r6, lr}
 190              		.loc 1 92 0
 191 0072 FFF7FEBF 		b	chHeapFree
 192              	.L15:
 193 0076 00BF     		.align	2
 194              	.L14:
 195 0078 14000000 		.word	.LC1
 196              		.cfi_endproc
 197              	.LFE1:
 198              		.size	chThdRelease, .-chThdRelease
 199              		.section	.text.chThdCreateFromHeap,"ax",%progbits
 200              		.align	2
 201              		.p2align 4,,15
 202              		.global	chThdCreateFromHeap
 203              		.thumb
 204              		.thumb_func
 205              		.type	chThdCreateFromHeap, %function
 206              	chThdCreateFromHeap:
 207              	.LFB2:
 208              		.loc 1 131 0
 209              		.cfi_startproc
 210              		@ args = 4, pretend = 0, frame = 0
 211              		@ frame_needed = 0, uses_anonymous_args = 0
 212              	.LVL7:
 213 0000 2DE9F041 		push	{r4, r5, r6, r7, r8, lr}
 214              	.LCFI2:
 215              		.cfi_def_cfa_offset 24
 216 0004 82B0     		sub	sp, sp, #8
 217              	.LCFI3:
 218              		.cfi_def_cfa_offset 32
 219              		.loc 1 131 0
 220 0006 0D46     		mov	r5, r1
 221              		.cfi_offset 14, -4
 222              		.cfi_offset 8, -8
 223              		.cfi_offset 7, -12
ARM GAS  /tmp/ccAZCrX2.s 			page 5


 224              		.cfi_offset 6, -16
 225              		.cfi_offset 5, -20
 226              		.cfi_offset 4, -24
 227 0008 1746     		mov	r7, r2
 228 000a 1E46     		mov	r6, r3
 229              		.loc 1 135 0
 230 000c FFF7FEFF 		bl	chHeapAlloc
 231              	.LVL8:
 232              		.loc 1 136 0
 233 0010 0446     		mov	r4, r0
 234 0012 08B3     		cbz	r0, .L17
 235              		.loc 1 140 0
 236 0014 00F14C08 		add	r8, r0, #76
 237 0018 4146     		mov	r1, r8
 238 001a FF22     		movs	r2, #255
 239 001c FFF7FEFF 		bl	_thread_memfill
 240              	.LVL9:
 241              		.loc 1 143 0
 242 0020 4046     		mov	r0, r8
 243 0022 6119     		adds	r1, r4, r5
 244 0024 5522     		movs	r2, #85
 245 0026 FFF7FEFF 		bl	_thread_memfill
 246              		.loc 1 148 0
 247              	@ 148 "../chibios_2.4.x/os/kernel/src/chdynamic.c" 1
 248 002a FFF7FEFF 		bl      _port_lock
 249              	@ 0 "" 2
 250              		.thumb
 251 002e FFF7FEFF 		bl	dbg_check_lock
 252              		.loc 1 149 0
 253 0032 2046     		mov	r0, r4
 254 0034 089C     		ldr	r4, [sp, #32]
 255              	.LVL10:
 256 0036 3A46     		mov	r2, r7
 257 0038 3346     		mov	r3, r6
 258 003a 2946     		mov	r1, r5
 259 003c 0094     		str	r4, [sp, #0]
 260 003e FFF7FEFF 		bl	chThdCreateI
 261              	.LVL11:
 262              		.loc 1 150 0
 263 0042 0123     		movs	r3, #1
 264              		.loc 1 151 0
 265 0044 0021     		movs	r1, #0
 266              		.loc 1 150 0
 267 0046 80F82130 		strb	r3, [r0, #33]
 268              		.loc 1 149 0
 269 004a 0446     		mov	r4, r0
 270              	.LVL12:
 271              		.loc 1 151 0
 272 004c FFF7FEFF 		bl	chSchWakeupS
 273              	.LVL13:
 274              		.loc 1 152 0
 275 0050 FFF7FEFF 		bl	dbg_check_unlock
 276              	@ 152 "../chibios_2.4.x/os/kernel/src/chdynamic.c" 1
 277 0054 FFF7FEFF 		bl      _port_unlock
 278              	@ 0 "" 2
 279              	.LVL14:
 280              		.thumb
ARM GAS  /tmp/ccAZCrX2.s 			page 6


 281              	.L17:
 282              		.loc 1 154 0
 283 0058 2046     		mov	r0, r4
 284 005a 02B0     		add	sp, sp, #8
 285 005c BDE8F081 		pop	{r4, r5, r6, r7, r8, pc}
 286              		.cfi_endproc
 287              	.LFE2:
 288              		.size	chThdCreateFromHeap, .-chThdCreateFromHeap
 289              		.section	.text.chThdCreateFromMemoryPool,"ax",%progbits
 290              		.align	2
 291              		.p2align 4,,15
 292              		.global	chThdCreateFromMemoryPool
 293              		.thumb
 294              		.thumb_func
 295              		.type	chThdCreateFromMemoryPool, %function
 296              	chThdCreateFromMemoryPool:
 297              	.LFB3:
 298              		.loc 1 180 0
 299              		.cfi_startproc
 300              		@ args = 0, pretend = 0, frame = 0
 301              		@ frame_needed = 0, uses_anonymous_args = 0
 302              	.LVL15:
 303 0000 2DE9F043 		push	{r4, r5, r6, r7, r8, r9, lr}
 304              	.LCFI4:
 305              		.cfi_def_cfa_offset 28
 306              		.loc 1 184 0
 307 0004 0446     		mov	r4, r0
 308              		.cfi_offset 14, -4
 309              		.cfi_offset 9, -8
 310              		.cfi_offset 8, -12
 311              		.cfi_offset 7, -16
 312              		.cfi_offset 6, -20
 313              		.cfi_offset 5, -24
 314              		.cfi_offset 4, -28
 315              		.loc 1 180 0
 316 0006 83B0     		sub	sp, sp, #12
 317              	.LCFI5:
 318              		.cfi_def_cfa_offset 40
 319              		.loc 1 180 0
 320 0008 0F46     		mov	r7, r1
 321 000a 1646     		mov	r6, r2
 322 000c 9846     		mov	r8, r3
 323              		.loc 1 184 0
 324 000e 0028     		cmp	r0, #0
 325 0010 2CD0     		beq	.L23
 326              	.LVL16:
 327              	.L20:
 328              		.loc 1 186 0
 329 0012 2046     		mov	r0, r4
 330 0014 FFF7FEFF 		bl	chPoolAlloc
 331              	.LVL17:
 332              		.loc 1 187 0
 333 0018 0546     		mov	r5, r0
 334 001a 18B3     		cbz	r0, .L21
 335              		.loc 1 191 0
 336 001c 00F14C09 		add	r9, r0, #76
 337 0020 4946     		mov	r1, r9
ARM GAS  /tmp/ccAZCrX2.s 			page 7


 338 0022 FF22     		movs	r2, #255
 339 0024 FFF7FEFF 		bl	_thread_memfill
 340              	.LVL18:
 341              		.loc 1 194 0
 342 0028 6168     		ldr	r1, [r4, #4]
 343 002a 4846     		mov	r0, r9
 344 002c 6918     		adds	r1, r5, r1
 345 002e 5522     		movs	r2, #85
 346 0030 FFF7FEFF 		bl	_thread_memfill
 347              		.loc 1 199 0
 348              	@ 199 "../chibios_2.4.x/os/kernel/src/chdynamic.c" 1
 349 0034 FFF7FEFF 		bl      _port_lock
 350              	@ 0 "" 2
 351              		.thumb
 352 0038 FFF7FEFF 		bl	dbg_check_lock
 353              		.loc 1 200 0
 354 003c 6168     		ldr	r1, [r4, #4]
 355 003e 3A46     		mov	r2, r7
 356 0040 3346     		mov	r3, r6
 357 0042 2846     		mov	r0, r5
 358 0044 CDF80080 		str	r8, [sp, #0]
 359 0048 FFF7FEFF 		bl	chThdCreateI
 360              		.loc 1 201 0
 361 004c 0223     		movs	r3, #2
 362              		.loc 1 203 0
 363 004e 0021     		movs	r1, #0
 364              		.loc 1 201 0
 365 0050 80F82130 		strb	r3, [r0, #33]
 366              		.loc 1 202 0
 367 0054 8464     		str	r4, [r0, #72]
 368              		.loc 1 200 0
 369 0056 0546     		mov	r5, r0
 370              	.LVL19:
 371              		.loc 1 203 0
 372 0058 FFF7FEFF 		bl	chSchWakeupS
 373              	.LVL20:
 374              		.loc 1 204 0
 375 005c FFF7FEFF 		bl	dbg_check_unlock
 376              	@ 204 "../chibios_2.4.x/os/kernel/src/chdynamic.c" 1
 377 0060 FFF7FEFF 		bl      _port_unlock
 378              	@ 0 "" 2
 379              	.LVL21:
 380              		.thumb
 381              	.L21:
 382              		.loc 1 206 0
 383 0064 2846     		mov	r0, r5
 384 0066 03B0     		add	sp, sp, #12
 385 0068 BDE8F083 		pop	{r4, r5, r6, r7, r8, r9, pc}
 386              	.L23:
 387              		.loc 1 184 0 discriminator 1
 388 006c 0148     		ldr	r0, .L24
 389 006e FFF7FEFF 		bl	chDbgPanic
 390 0072 CEE7     		b	.L20
 391              	.L25:
 392              		.align	2
 393              	.L24:
 394 0074 28000000 		.word	.LC2
ARM GAS  /tmp/ccAZCrX2.s 			page 8


 395              		.cfi_endproc
 396              	.LFE3:
 397              		.size	chThdCreateFromMemoryPool, .-chThdCreateFromMemoryPool
 398 0078 AFF30080 		.section	.rodata.str1.4,"aMS",%progbits,1
 398      AFF30080 
 399              		.align	2
 400              	.LC0:
 401 0000 63685468 		.ascii	"chThdAddRef(), #1\000"
 401      64416464 
 401      52656628 
 401      292C2023 
 401      3100
 402 0012 0000     		.space	2
 403              	.LC1:
 404 0014 63685468 		.ascii	"chThdRelease(), #1\000"
 404      6452656C 
 404      65617365 
 404      28292C20 
 404      233100
 405 0027 00       		.space	1
 406              	.LC2:
 407 0028 22636854 		.ascii	"\"chThdCreateFromMemoryPool\"()\000"
 407      68644372 
 407      65617465 
 407      46726F6D 
 407      4D656D6F 
 408 0046 0000     		.text
 409              	.Letext0: