ARM GAS  /tmp/cc1UQ5Yf.s 			page 1


   1              		.syntax unified
   2              		.cpu cortex-m3
   3              		.fpu softvfp
   4              		.eabi_attribute 20, 1
   5              		.eabi_attribute 21, 1
   6              		.eabi_attribute 23, 3
   7              		.eabi_attribute 24, 1
   8              		.eabi_attribute 25, 1
   9              		.eabi_attribute 26, 1
  10              		.eabi_attribute 30, 2
  11              		.eabi_attribute 18, 4
  12              		.thumb
  13              		.file	"chevents.c"
  20 0000 16030000 		.text
  20      02006301 
  20      00000201 
  20      FB0E0D00 
  20      01010101 
  21              	.Ltext0:
  22              		.cfi_sections	.debug_frame
  23              		.section	.text.chEvtRegisterMask,"ax",%progbits
  24              		.align	2
  25              		.p2align 4,,15
  26              		.global	chEvtRegisterMask
  27              		.thumb
  28              		.thumb_func
  29              		.type	chEvtRegisterMask, %function
  30              	chEvtRegisterMask:
  31              	.LFB0:
  32              		.file 1 "../chibios_2.4.x/os/kernel/src/chevents.c"
  33              		.loc 1 82 0
  34              		.cfi_startproc
  35              		@ args = 0, pretend = 0, frame = 0
  36              		@ frame_needed = 0, uses_anonymous_args = 0
  37              	.LVL0:
  38 0000 70B5     		push	{r4, r5, r6, lr}
  39              	.LCFI0:
  40              		.cfi_def_cfa_offset 16
  41              		.loc 1 84 0
  42 0002 0446     		mov	r4, r0
  43              		.cfi_offset 14, -4
  44              		.cfi_offset 6, -8
  45              		.cfi_offset 5, -12
  46              		.cfi_offset 4, -16
  47              		.loc 1 82 0
  48 0004 0D46     		mov	r5, r1
  49 0006 1646     		mov	r6, r2
  50              		.loc 1 84 0
  51 0008 80B1     		cbz	r0, .L2
  52              		.loc 1 84 0 is_stmt 0 discriminator 2
  53 000a 79B1     		cbz	r1, .L2
ARM GAS  /tmp/cc1UQ5Yf.s 			page 2


  54              	.LVL1:
  55              	.L3:
  56              		.loc 1 86 0 is_stmt 1
  57              	@ 86 "../chibios_2.4.x/os/kernel/src/chevents.c" 1
  58 000c FFF7FEFF 		bl      _port_lock
  59              	@ 0 "" 2
  60              		.thumb
  61 0010 FFF7FEFF 		bl	dbg_check_lock
  62              		.loc 1 89 0
  63 0014 0748     		ldr	r0, .L5
  64              		.loc 1 87 0
  65 0016 2268     		ldr	r2, [r4, #0]
  66              		.loc 1 89 0
  67 0018 C369     		ldr	r3, [r0, #28]
  68              		.loc 1 87 0
  69 001a 2A60     		str	r2, [r5, #0]
  70              		.loc 1 88 0
  71 001c 2560     		str	r5, [r4, #0]
  72              		.loc 1 89 0
  73 001e 6B60     		str	r3, [r5, #4]
  74              		.loc 1 90 0
  75 0020 AE60     		str	r6, [r5, #8]
  76              		.loc 1 91 0
  77 0022 FFF7FEFF 		bl	dbg_check_unlock
  78              	@ 91 "../chibios_2.4.x/os/kernel/src/chevents.c" 1
  79 0026 FFF7FEFF 		bl      _port_unlock
  80              	@ 0 "" 2
  81              		.loc 1 92 0
  82              		.thumb
  83 002a 70BD     		pop	{r4, r5, r6, pc}
  84              	.L2:
  85              		.loc 1 84 0 discriminator 1
  86 002c 0248     		ldr	r0, .L5+4
  87 002e FFF7FEFF 		bl	chDbgPanic
  88 0032 EBE7     		b	.L3
  89              	.L6:
  90              		.align	2
  91              	.L5:
  92 0034 00000000 		.word	rlist
  93 0038 00000000 		.word	.LC0
  94              		.cfi_endproc
  95              	.LFE0:
  96              		.size	chEvtRegisterMask, .-chEvtRegisterMask
  97 003c AFF30080 		.section	.text.chEvtUnregister,"ax",%progbits
  98              		.align	2
  99              		.p2align 4,,15
 100              		.global	chEvtUnregister
 101              		.thumb
 102              		.thumb_func
 103              		.type	chEvtUnregister, %function
 104              	chEvtUnregister:
 105              	.LFB1:
 106              		.loc 1 107 0
 107              		.cfi_startproc
 108              		@ args = 0, pretend = 0, frame = 0
 109              		@ frame_needed = 0, uses_anonymous_args = 0
 110              	.LVL2:
ARM GAS  /tmp/cc1UQ5Yf.s 			page 3


 111 0000 38B5     		push	{r3, r4, r5, lr}
 112              	.LCFI1:
 113              		.cfi_def_cfa_offset 16
 114              		.loc 1 110 0
 115 0002 0446     		mov	r4, r0
 116              		.cfi_offset 14, -4
 117              		.cfi_offset 5, -8
 118              		.cfi_offset 4, -12
 119              		.cfi_offset 3, -16
 120              		.loc 1 107 0
 121 0004 0D46     		mov	r5, r1
 122              		.loc 1 110 0
 123 0006 C0B1     		cbz	r0, .L8
 124              		.loc 1 110 0 is_stmt 0 discriminator 2
 125 0008 B9B1     		cbz	r1, .L8
 126              	.LVL3:
 127              	.L9:
 128              		.loc 1 113 0 is_stmt 1
 129              	@ 113 "../chibios_2.4.x/os/kernel/src/chevents.c" 1
 130 000a FFF7FEFF 		bl      _port_lock
 131              	@ 0 "" 2
 132              		.thumb
 133 000e FFF7FEFF 		bl	dbg_check_lock
 134              		.loc 1 112 0
 135 0012 2246     		mov	r2, r4
 136              		.loc 1 114 0
 137 0014 02E0     		b	.L10
 138              	.LVL4:
 139              	.L12:
 140              		.loc 1 115 0
 141 0016 9D42     		cmp	r5, r3
 142 0018 08D0     		beq	.L14
 143 001a 1A46     		mov	r2, r3
 144              	.LVL5:
 145              	.L10:
 146              		.loc 1 114 0 discriminator 1
 147 001c 1368     		ldr	r3, [r2, #0]
 148 001e 9C42     		cmp	r4, r3
 149 0020 F9D1     		bne	.L12
 150              		.loc 1 121 0
 151 0022 FFF7FEFF 		bl	dbg_check_unlock
 152              	.LVL6:
 153              	@ 121 "../chibios_2.4.x/os/kernel/src/chevents.c" 1
 154 0026 FFF7FEFF 		bl      _port_unlock
 155              	@ 0 "" 2
 156              		.loc 1 122 0
 157              		.thumb
 158 002a 38BD     		pop	{r3, r4, r5, pc}
 159              	.LVL7:
 160              	.L14:
 161              		.loc 1 116 0
 162 002c 2B68     		ldr	r3, [r5, #0]
 163 002e 1360     		str	r3, [r2, #0]
 164              		.loc 1 121 0
 165 0030 FFF7FEFF 		bl	dbg_check_unlock
 166              	.LVL8:
 167              	@ 121 "../chibios_2.4.x/os/kernel/src/chevents.c" 1
ARM GAS  /tmp/cc1UQ5Yf.s 			page 4


 168 0034 FFF7FEFF 		bl      _port_unlock
 169              	@ 0 "" 2
 170              		.loc 1 122 0
 171              		.thumb
 172 0038 38BD     		pop	{r3, r4, r5, pc}
 173              	.L8:
 174              		.loc 1 110 0 discriminator 1
 175 003a 0248     		ldr	r0, .L15
 176 003c FFF7FEFF 		bl	chDbgPanic
 177 0040 E3E7     		b	.L9
 178              	.L16:
 179 0042 00BF     		.align	2
 180              	.L15:
 181 0044 18000000 		.word	.LC1
 182              		.cfi_endproc
 183              	.LFE1:
 184              		.size	chEvtUnregister, .-chEvtUnregister
 185 0048 AFF30080 		.section	.text.chEvtClearFlags,"ax",%progbits
 185      AFF30080 
 186              		.align	2
 187              		.p2align 4,,15
 188              		.global	chEvtClearFlags
 189              		.thumb
 190              		.thumb_func
 191              		.type	chEvtClearFlags, %function
 192              	chEvtClearFlags:
 193              	.LFB2:
 194              		.loc 1 132 0
 195              		.cfi_startproc
 196              		@ args = 0, pretend = 0, frame = 0
 197              		@ frame_needed = 0, uses_anonymous_args = 0
 198              	.LVL9:
 199 0000 38B5     		push	{r3, r4, r5, lr}
 200              	.LCFI2:
 201              		.cfi_def_cfa_offset 16
 202              		.loc 1 132 0
 203 0002 0546     		mov	r5, r0
 204              		.cfi_offset 14, -4
 205              		.cfi_offset 5, -8
 206              		.cfi_offset 4, -12
 207              		.cfi_offset 3, -16
 208              		.loc 1 135 0
 209              	@ 135 "../chibios_2.4.x/os/kernel/src/chevents.c" 1
 210 0004 FFF7FEFF 		bl      _port_lock
 211              	@ 0 "" 2
 212              		.thumb
 213 0008 FFF7FEFF 		bl	dbg_check_lock
 214              	.LVL10:
 215              		.loc 1 137 0
 216 000c 0648     		ldr	r0, .L18
 217 000e C369     		ldr	r3, [r0, #28]
 218 0010 DC6B     		ldr	r4, [r3, #60]
 219              		.loc 1 138 0
 220 0012 24EA0502 		bic	r2, r4, r5
 221 0016 DA63     		str	r2, [r3, #60]
 222              		.loc 1 140 0
 223 0018 FFF7FEFF 		bl	dbg_check_unlock
ARM GAS  /tmp/cc1UQ5Yf.s 			page 5


 224              	.LVL11:
 225              	@ 140 "../chibios_2.4.x/os/kernel/src/chevents.c" 1
 226 001c FFF7FEFF 		bl      _port_unlock
 227              	@ 0 "" 2
 228              		.loc 1 142 0
 229              		.thumb
 230 0020 05EA0400 		and	r0, r5, r4
 231 0024 38BD     		pop	{r3, r4, r5, pc}
 232              	.L19:
 233 0026 00BF     		.align	2
 234              	.L18:
 235 0028 00000000 		.word	rlist
 236              		.cfi_endproc
 237              	.LFE2:
 238              		.size	chEvtClearFlags, .-chEvtClearFlags
 239 002c AFF30080 		.section	.text.chEvtAddFlags,"ax",%progbits
 240              		.align	2
 241              		.p2align 4,,15
 242              		.global	chEvtAddFlags
 243              		.thumb
 244              		.thumb_func
 245              		.type	chEvtAddFlags, %function
 246              	chEvtAddFlags:
 247              	.LFB3:
 248              		.loc 1 153 0
 249              		.cfi_startproc
 250              		@ args = 0, pretend = 0, frame = 0
 251              		@ frame_needed = 0, uses_anonymous_args = 0
 252              	.LVL12:
 253 0000 10B5     		push	{r4, lr}
 254              	.LCFI3:
 255              		.cfi_def_cfa_offset 8
 256              		.loc 1 153 0
 257 0002 0446     		mov	r4, r0
 258              		.cfi_offset 14, -4
 259              		.cfi_offset 4, -8
 260              		.loc 1 155 0
 261              	@ 155 "../chibios_2.4.x/os/kernel/src/chevents.c" 1
 262 0004 FFF7FEFF 		bl      _port_lock
 263              	@ 0 "" 2
 264              		.thumb
 265 0008 FFF7FEFF 		bl	dbg_check_lock
 266              	.LVL13:
 267              		.loc 1 157 0
 268 000c 0548     		ldr	r0, .L21
 269 000e C369     		ldr	r3, [r0, #28]
 270 0010 DA6B     		ldr	r2, [r3, #60]
 271 0012 1443     		orrs	r4, r4, r2
 272              	.LVL14:
 273 0014 DC63     		str	r4, [r3, #60]
 274              	.LVL15:
 275              		.loc 1 159 0
 276 0016 FFF7FEFF 		bl	dbg_check_unlock
 277              	@ 159 "../chibios_2.4.x/os/kernel/src/chevents.c" 1
 278 001a FFF7FEFF 		bl      _port_unlock
 279              	@ 0 "" 2
 280              		.loc 1 161 0
ARM GAS  /tmp/cc1UQ5Yf.s 			page 6


 281              		.thumb
 282 001e 2046     		mov	r0, r4
 283 0020 10BD     		pop	{r4, pc}
 284              	.L22:
 285 0022 00BF     		.align	2
 286              	.L21:
 287 0024 00000000 		.word	rlist
 288              		.cfi_endproc
 289              	.LFE3:
 290              		.size	chEvtAddFlags, .-chEvtAddFlags
 291 0028 AFF30080 		.section	.text.chEvtSignalFlagsI,"ax",%progbits
 291      AFF30080 
 292              		.align	2
 293              		.p2align 4,,15
 294              		.global	chEvtSignalFlagsI
 295              		.thumb
 296              		.thumb_func
 297              		.type	chEvtSignalFlagsI, %function
 298              	chEvtSignalFlagsI:
 299              	.LFB5:
 300              		.loc 1 193 0
 301              		.cfi_startproc
 302              		@ args = 0, pretend = 0, frame = 0
 303              		@ frame_needed = 0, uses_anonymous_args = 0
 304              	.LVL16:
 305 0000 38B5     		push	{r3, r4, r5, lr}
 306              	.LCFI4:
 307              		.cfi_def_cfa_offset 16
 308              		.loc 1 193 0
 309 0002 0446     		mov	r4, r0
 310              		.cfi_offset 14, -4
 311              		.cfi_offset 5, -8
 312              		.cfi_offset 4, -12
 313              		.cfi_offset 3, -16
 314 0004 0D46     		mov	r5, r1
 315              		.loc 1 195 0
 316 0006 FFF7FEFF 		bl	chDbgCheckClassI
 317              	.LVL17:
 318              		.loc 1 196 0
 319 000a BCB1     		cbz	r4, .L28
 320              	.L24:
 321              		.loc 1 198 0
 322 000c E26B     		ldr	r2, [r4, #60]
 323              		.loc 1 200 0
 324 000e 94F82030 		ldrb	r3, [r4, #32]	@ zero_extendqisi2
 325              		.loc 1 198 0
 326 0012 1543     		orrs	r5, r5, r2
 327              	.LVL18:
 328              		.loc 1 200 0
 329 0014 082B     		cmp	r3, #8
 330              		.loc 1 198 0
 331 0016 E563     		str	r5, [r4, #60]
 332              		.loc 1 200 0
 333 0018 0CD0     		beq	.L29
 334              		.loc 1 201 0
 335 001a 092B     		cmp	r3, #9
 336 001c 00D0     		beq	.L30
ARM GAS  /tmp/cc1UQ5Yf.s 			page 7


 337              	.L23:
 338 001e 38BD     		pop	{r3, r4, r5, pc}
 339              	.L30:
 340              		.loc 1 203 0
 341 0020 A06A     		ldr	r0, [r4, #40]
 342 0022 0540     		ands	r5, r5, r0
 343              		.loc 1 202 0
 344 0024 A842     		cmp	r0, r5
 345 0026 FAD1     		bne	.L23
 346              	.L26:
 347              		.loc 1 204 0
 348 0028 2046     		mov	r0, r4
 349 002a FFF7FEFF 		bl	chSchReadyI
 350 002e 0021     		movs	r1, #0
 351 0030 8162     		str	r1, [r0, #40]
 352 0032 38BD     		pop	{r3, r4, r5, pc}
 353              	.L29:
 354              		.loc 1 201 0 discriminator 1
 355 0034 A36A     		ldr	r3, [r4, #40]
 356              		.loc 1 200 0 discriminator 1
 357 0036 1D42     		tst	r5, r3
 358 0038 F6D1     		bne	.L26
 359 003a 38BD     		pop	{r3, r4, r5, pc}
 360              	.LVL19:
 361              	.L28:
 362              		.loc 1 196 0 discriminator 1
 363 003c 0148     		ldr	r0, .L31
 364 003e FFF7FEFF 		bl	chDbgPanic
 365 0042 E3E7     		b	.L24
 366              	.L32:
 367              		.align	2
 368              	.L31:
 369 0044 2C000000 		.word	.LC2
 370              		.cfi_endproc
 371              	.LFE5:
 372              		.size	chEvtSignalFlagsI, .-chEvtSignalFlagsI
 373 0048 AFF30080 		.section	.text.chEvtSignalFlags,"ax",%progbits
 373      AFF30080 
 374              		.align	2
 375              		.p2align 4,,15
 376              		.global	chEvtSignalFlags
 377              		.thumb
 378              		.thumb_func
 379              		.type	chEvtSignalFlags, %function
 380              	chEvtSignalFlags:
 381              	.LFB4:
 382              		.loc 1 171 0
 383              		.cfi_startproc
 384              		@ args = 0, pretend = 0, frame = 0
 385              		@ frame_needed = 0, uses_anonymous_args = 0
 386              	.LVL20:
 387 0000 38B5     		push	{r3, r4, r5, lr}
 388              	.LCFI5:
 389              		.cfi_def_cfa_offset 16
 390              		.loc 1 173 0
 391 0002 0446     		mov	r4, r0
 392              		.cfi_offset 14, -4
ARM GAS  /tmp/cc1UQ5Yf.s 			page 8


 393              		.cfi_offset 5, -8
 394              		.cfi_offset 4, -12
 395              		.cfi_offset 3, -16
 396              		.loc 1 171 0
 397 0004 0D46     		mov	r5, r1
 398              		.loc 1 173 0
 399 0006 70B1     		cbz	r0, .L35
 400              	.LVL21:
 401              	.L34:
 402              		.loc 1 175 0
 403              	@ 175 "../chibios_2.4.x/os/kernel/src/chevents.c" 1
 404 0008 FFF7FEFF 		bl      _port_lock
 405              	@ 0 "" 2
 406              		.thumb
 407 000c FFF7FEFF 		bl	dbg_check_lock
 408              		.loc 1 176 0
 409 0010 2046     		mov	r0, r4
 410 0012 2946     		mov	r1, r5
 411 0014 FFF7FEFF 		bl	chEvtSignalFlagsI
 412              		.loc 1 177 0
 413 0018 FFF7FEFF 		bl	chSchRescheduleS
 414              		.loc 1 178 0
 415 001c FFF7FEFF 		bl	dbg_check_unlock
 416              	@ 178 "../chibios_2.4.x/os/kernel/src/chevents.c" 1
 417 0020 FFF7FEFF 		bl      _port_unlock
 418              	@ 0 "" 2
 419              		.loc 1 179 0
 420              		.thumb
 421 0024 38BD     		pop	{r3, r4, r5, pc}
 422              	.L35:
 423              		.loc 1 173 0 discriminator 1
 424 0026 0248     		ldr	r0, .L36
 425 0028 FFF7FEFF 		bl	chDbgPanic
 426 002c ECE7     		b	.L34
 427              	.L37:
 428 002e 00BF     		.align	2
 429              	.L36:
 430 0030 40000000 		.word	.LC3
 431              		.cfi_endproc
 432              	.LFE4:
 433              		.size	chEvtSignalFlags, .-chEvtSignalFlags
 434 0034 AFF30080 		.section	.text.chEvtBroadcastFlagsI,"ax",%progbits
 434      AFF30080 
 434      AFF30080 
 435              		.align	2
 436              		.p2align 4,,15
 437              		.global	chEvtBroadcastFlagsI
 438              		.thumb
 439              		.thumb_func
 440              		.type	chEvtBroadcastFlagsI, %function
 441              	chEvtBroadcastFlagsI:
 442              	.LFB7:
 443              		.loc 1 245 0
 444              		.cfi_startproc
 445              		@ args = 0, pretend = 0, frame = 0
 446              		@ frame_needed = 0, uses_anonymous_args = 0
 447              	.LVL22:
ARM GAS  /tmp/cc1UQ5Yf.s 			page 9


 448 0000 70B5     		push	{r4, r5, r6, lr}
 449              	.LCFI6:
 450              		.cfi_def_cfa_offset 16
 451              		.loc 1 245 0
 452 0002 0546     		mov	r5, r0
 453              		.cfi_offset 14, -4
 454              		.cfi_offset 6, -8
 455              		.cfi_offset 5, -12
 456              		.cfi_offset 4, -16
 457 0004 0E46     		mov	r6, r1
 458              		.loc 1 248 0
 459 0006 FFF7FEFF 		bl	chDbgCheckClassI
 460              	.LVL23:
 461              		.loc 1 249 0
 462 000a 65B1     		cbz	r5, .L44
 463              	.L39:
 464              		.loc 1 251 0
 465 000c 2C68     		ldr	r4, [r5, #0]
 466              	.LVL24:
 467              		.loc 1 252 0
 468 000e AC42     		cmp	r4, r5
 469 0010 08D0     		beq	.L38
 470              	.LVL25:
 471              	.L42:
 472              		.loc 1 253 0
 473 0012 A168     		ldr	r1, [r4, #8]
 474 0014 6068     		ldr	r0, [r4, #4]
 475 0016 46EA0101 		orr	r1, r6, r1
 476 001a FFF7FEFF 		bl	chEvtSignalFlagsI
 477              		.loc 1 254 0
 478 001e 2468     		ldr	r4, [r4, #0]
 479              	.LVL26:
 480              		.loc 1 252 0
 481 0020 AC42     		cmp	r4, r5
 482 0022 F6D1     		bne	.L42
 483              	.L38:
 484 0024 70BD     		pop	{r4, r5, r6, pc}
 485              	.LVL27:
 486              	.L44:
 487              		.loc 1 249 0 discriminator 1
 488 0026 0248     		ldr	r0, .L45
 489 0028 FFF7FEFF 		bl	chDbgPanic
 490 002c EEE7     		b	.L39
 491              	.L46:
 492 002e 00BF     		.align	2
 493              	.L45:
 494 0030 50000000 		.word	.LC4
 495              		.cfi_endproc
 496              	.LFE7:
 497              		.size	chEvtBroadcastFlagsI, .-chEvtBroadcastFlagsI
 498 0034 AFF30080 		.section	.text.chEvtBroadcastFlags,"ax",%progbits
 498      AFF30080 
 498      AFF30080 
 499              		.align	2
 500              		.p2align 4,,15
 501              		.global	chEvtBroadcastFlags
 502              		.thumb
ARM GAS  /tmp/cc1UQ5Yf.s 			page 10


 503              		.thumb_func
 504              		.type	chEvtBroadcastFlags, %function
 505              	chEvtBroadcastFlags:
 506              	.LFB6:
 507              		.loc 1 220 0
 508              		.cfi_startproc
 509              		@ args = 0, pretend = 0, frame = 0
 510              		@ frame_needed = 0, uses_anonymous_args = 0
 511              	.LVL28:
 512 0000 38B5     		push	{r3, r4, r5, lr}
 513              	.LCFI7:
 514              		.cfi_def_cfa_offset 16
 515              		.loc 1 220 0
 516 0002 0546     		mov	r5, r0
 517              		.cfi_offset 14, -4
 518              		.cfi_offset 5, -8
 519              		.cfi_offset 4, -12
 520              		.cfi_offset 3, -16
 521 0004 0C46     		mov	r4, r1
 522              		.loc 1 222 0
 523              	@ 222 "../chibios_2.4.x/os/kernel/src/chevents.c" 1
 524 0006 FFF7FEFF 		bl      _port_lock
 525              	@ 0 "" 2
 526              		.thumb
 527 000a FFF7FEFF 		bl	dbg_check_lock
 528              	.LVL29:
 529              		.loc 1 223 0
 530 000e 2846     		mov	r0, r5
 531 0010 2146     		mov	r1, r4
 532 0012 FFF7FEFF 		bl	chEvtBroadcastFlagsI
 533              		.loc 1 224 0
 534 0016 FFF7FEFF 		bl	chSchRescheduleS
 535              		.loc 1 225 0
 536 001a FFF7FEFF 		bl	dbg_check_unlock
 537              	@ 225 "../chibios_2.4.x/os/kernel/src/chevents.c" 1
 538 001e FFF7FEFF 		bl      _port_unlock
 539              	@ 0 "" 2
 540              		.loc 1 226 0
 541              		.thumb
 542 0022 38BD     		pop	{r3, r4, r5, pc}
 543              		.cfi_endproc
 544              	.LFE6:
 545              		.size	chEvtBroadcastFlags, .-chEvtBroadcastFlags
 546 0024 AFF30080 		.section	.text.chEvtDispatch,"ax",%progbits
 546      AFF30080 
 546      AFF30080 
 547              		.align	2
 548              		.p2align 4,,15
 549              		.global	chEvtDispatch
 550              		.thumb
 551              		.thumb_func
 552              		.type	chEvtDispatch, %function
 553              	chEvtDispatch:
 554              	.LFB8:
 555              		.loc 1 267 0
 556              		.cfi_startproc
 557              		@ args = 0, pretend = 0, frame = 0
ARM GAS  /tmp/cc1UQ5Yf.s 			page 11


 558              		@ frame_needed = 0, uses_anonymous_args = 0
 559              	.LVL30:
 560 0000 2DE9F041 		push	{r4, r5, r6, r7, r8, lr}
 561              	.LCFI8:
 562              		.cfi_def_cfa_offset 24
 563              		.loc 1 270 0
 564 0004 0446     		mov	r4, r0
 565              		.cfi_offset 14, -4
 566              		.cfi_offset 8, -8
 567              		.cfi_offset 7, -12
 568              		.cfi_offset 6, -16
 569              		.cfi_offset 5, -20
 570              		.cfi_offset 4, -24
 571              		.loc 1 267 0
 572 0006 0E46     		mov	r6, r1
 573              		.loc 1 270 0
 574 0008 C8B1     		cbz	r0, .L54
 575              	.LVL31:
 576              	.L49:
 577              		.loc 1 273 0 discriminator 1
 578 000a 8EB1     		cbz	r6, .L48
 579              		.loc 1 273 0 is_stmt 0
 580 000c 0027     		movs	r7, #0
 581 000e 3D46     		mov	r5, r7
 582              		.loc 1 274 0 is_stmt 1
 583 0010 4FF00108 		mov	r8, #1
 584              	.LVL32:
 585              	.L53:
 586 0014 08FA05F3 		lsl	r3, r8, r5
 587 0018 3342     		tst	r3, r6
 588 001a 05D0     		beq	.L51
 589              		.loc 1 278 0
 590 001c 26EA0306 		bic	r6, r6, r3
 591              	.LVL33:
 592              		.loc 1 275 0
 593 0020 E359     		ldr	r3, [r4, r7]
 594 0022 3BB1     		cbz	r3, .L55
 595              	.L52:
 596              	.LVL34:
 597              		.loc 1 279 0
 598 0024 2846     		mov	r0, r5
 599 0026 9847     		blx	r3
 600              	.L51:
 601              	.LVL35:
 602 0028 0437     		adds	r7, r7, #4
 603              		.loc 1 273 0
 604 002a 0EB1     		cbz	r6, .L48
 605              		.loc 1 281 0
 606 002c 0135     		adds	r5, r5, #1
 607              	.LVL36:
 608 002e F1E7     		b	.L53
 609              	.LVL37:
 610              	.L48:
 611 0030 BDE8F081 		pop	{r4, r5, r6, r7, r8, pc}
 612              	.LVL38:
 613              	.L55:
 614              		.loc 1 275 0 discriminator 1
ARM GAS  /tmp/cc1UQ5Yf.s 			page 12


 615 0034 0448     		ldr	r0, .L56
 616 0036 FFF7FEFF 		bl	chDbgPanic
 617 003a E359     		ldr	r3, [r4, r7]
 618 003c F2E7     		b	.L52
 619              	.LVL39:
 620              	.L54:
 621              		.loc 1 270 0 discriminator 1
 622 003e 0348     		ldr	r0, .L56+4
 623 0040 FFF7FEFF 		bl	chDbgPanic
 624              	.LVL40:
 625 0044 E1E7     		b	.L49
 626              	.L57:
 627 0046 00BF     		.align	2
 628              	.L56:
 629 0048 7C000000 		.word	.LC6
 630 004c 68000000 		.word	.LC5
 631              		.cfi_endproc
 632              	.LFE8:
 633              		.size	chEvtDispatch, .-chEvtDispatch
 634              		.section	.text.chEvtWaitOneTimeout,"ax",%progbits
 635              		.align	2
 636              		.p2align 4,,15
 637              		.global	chEvtWaitOneTimeout
 638              		.thumb
 639              		.thumb_func
 640              		.type	chEvtWaitOneTimeout, %function
 641              	chEvtWaitOneTimeout:
 642              	.LFB9:
 643              		.loc 1 398 0
 644              		.cfi_startproc
 645              		@ args = 0, pretend = 0, frame = 0
 646              		@ frame_needed = 0, uses_anonymous_args = 0
 647              	.LVL41:
 648 0000 F8B5     		push	{r3, r4, r5, r6, r7, lr}
 649              	.LCFI9:
 650              		.cfi_def_cfa_offset 24
 651              		.loc 1 399 0
 652 0002 164B     		ldr	r3, .L65
 653              		.cfi_offset 14, -4
 654              		.cfi_offset 7, -8
 655              		.cfi_offset 6, -12
 656              		.cfi_offset 5, -16
 657              		.cfi_offset 4, -20
 658              		.cfi_offset 3, -24
 659              		.loc 1 398 0
 660 0004 0546     		mov	r5, r0
 661              		.loc 1 399 0
 662 0006 DE69     		ldr	r6, [r3, #28]
 663              	.LVL42:
 664              		.loc 1 398 0
 665 0008 0F46     		mov	r7, r1
 666              		.loc 1 402 0
 667              	@ 402 "../chibios_2.4.x/os/kernel/src/chevents.c" 1
 668 000a FFF7FEFF 		bl      _port_lock
 669              	@ 0 "" 2
 670              	.LVL43:
 671              		.thumb
ARM GAS  /tmp/cc1UQ5Yf.s 			page 13


 672 000e FFF7FEFF 		bl	dbg_check_lock
 673              	.LVL44:
 674              		.loc 1 404 0
 675 0012 F36B     		ldr	r3, [r6, #60]
 676              	.LVL45:
 677 0014 15EA0304 		ands	r4, r5, r3
 678 0018 0AD1     		bne	.L59
 679              		.loc 1 405 0
 680 001a A7B1     		cbz	r7, .L63
 681              		.loc 1 410 0
 682 001c 0820     		movs	r0, #8
 683              		.loc 1 409 0
 684 001e B562     		str	r5, [r6, #40]
 685              		.loc 1 410 0
 686 0020 3946     		mov	r1, r7
 687 0022 FFF7FEFF 		bl	chSchGoSleepTimeoutS
 688              	.LVL46:
 689 0026 0028     		cmp	r0, #0
 690 0028 13DB     		blt	.L64
 691              		.loc 1 414 0
 692 002a F36B     		ldr	r3, [r6, #60]
 693 002c 05EA0304 		and	r4, r5, r3
 694              	.LVL47:
 695              	.L59:
 696              		.loc 1 416 0
 697 0030 6242     		negs	r2, r4
 698 0032 1440     		ands	r4, r4, r2
 699              	.LVL48:
 700              		.loc 1 417 0
 701 0034 23EA0400 		bic	r0, r3, r4
 702 0038 F063     		str	r0, [r6, #60]
 703              		.loc 1 419 0
 704 003a FFF7FEFF 		bl	dbg_check_unlock
 705              	@ 419 "../chibios_2.4.x/os/kernel/src/chevents.c" 1
 706 003e FFF7FEFF 		bl      _port_unlock
 707              	@ 0 "" 2
 708              		.thumb
 709              	.L61:
 710              		.loc 1 421 0
 711 0042 2046     		mov	r0, r4
 712 0044 F8BD     		pop	{r3, r4, r5, r6, r7, pc}
 713              	.L63:
 714              		.loc 1 406 0
 715 0046 FFF7FEFF 		bl	dbg_check_unlock
 716              	@ 406 "../chibios_2.4.x/os/kernel/src/chevents.c" 1
 717 004a FFF7FEFF 		bl      _port_unlock
 718              	@ 0 "" 2
 719              		.loc 1 421 0
 720              		.thumb
 721 004e 2046     		mov	r0, r4
 722 0050 F8BD     		pop	{r3, r4, r5, r6, r7, pc}
 723              	.L64:
 724              		.loc 1 411 0
 725 0052 FFF7FEFF 		bl	dbg_check_unlock
 726              	@ 411 "../chibios_2.4.x/os/kernel/src/chevents.c" 1
 727 0056 FFF7FEFF 		bl      _port_unlock
 728              	@ 0 "" 2
ARM GAS  /tmp/cc1UQ5Yf.s 			page 14


 729              		.loc 1 412 0
 730              		.thumb
 731 005a F2E7     		b	.L61
 732              	.L66:
 733              		.align	2
 734              	.L65:
 735 005c 00000000 		.word	rlist
 736              		.cfi_endproc
 737              	.LFE9:
 738              		.size	chEvtWaitOneTimeout, .-chEvtWaitOneTimeout
 739              		.section	.text.chEvtWaitAnyTimeout,"ax",%progbits
 740              		.align	2
 741              		.p2align 4,,15
 742              		.global	chEvtWaitAnyTimeout
 743              		.thumb
 744              		.thumb_func
 745              		.type	chEvtWaitAnyTimeout, %function
 746              	chEvtWaitAnyTimeout:
 747              	.LFB10:
 748              		.loc 1 441 0
 749              		.cfi_startproc
 750              		@ args = 0, pretend = 0, frame = 0
 751              		@ frame_needed = 0, uses_anonymous_args = 0
 752              	.LVL49:
 753 0000 F8B5     		push	{r3, r4, r5, r6, r7, lr}
 754              	.LCFI10:
 755              		.cfi_def_cfa_offset 24
 756              		.loc 1 442 0
 757 0002 154B     		ldr	r3, .L74
 758              		.cfi_offset 14, -4
 759              		.cfi_offset 7, -8
 760              		.cfi_offset 6, -12
 761              		.cfi_offset 5, -16
 762              		.cfi_offset 4, -20
 763              		.cfi_offset 3, -24
 764              		.loc 1 441 0
 765 0004 0446     		mov	r4, r0
 766              		.loc 1 442 0
 767 0006 DD69     		ldr	r5, [r3, #28]
 768              	.LVL50:
 769              		.loc 1 441 0
 770 0008 0F46     		mov	r7, r1
 771              		.loc 1 445 0
 772              	@ 445 "../chibios_2.4.x/os/kernel/src/chevents.c" 1
 773 000a FFF7FEFF 		bl      _port_lock
 774              	@ 0 "" 2
 775              	.LVL51:
 776              		.thumb
 777 000e FFF7FEFF 		bl	dbg_check_lock
 778              	.LVL52:
 779              		.loc 1 447 0
 780 0012 EB6B     		ldr	r3, [r5, #60]
 781              	.LVL53:
 782 0014 14EA0306 		ands	r6, r4, r3
 783 0018 0AD1     		bne	.L68
 784              		.loc 1 448 0
 785 001a 97B1     		cbz	r7, .L72
ARM GAS  /tmp/cc1UQ5Yf.s 			page 15


 786              		.loc 1 453 0
 787 001c 0820     		movs	r0, #8
 788              		.loc 1 452 0
 789 001e AC62     		str	r4, [r5, #40]
 790              		.loc 1 453 0
 791 0020 3946     		mov	r1, r7
 792 0022 FFF7FEFF 		bl	chSchGoSleepTimeoutS
 793              	.LVL54:
 794 0026 0028     		cmp	r0, #0
 795 0028 11DB     		blt	.L73
 796              		.loc 1 457 0
 797 002a EB6B     		ldr	r3, [r5, #60]
 798 002c 04EA0306 		and	r6, r4, r3
 799              	.LVL55:
 800              	.L68:
 801              		.loc 1 459 0
 802 0030 23EA0600 		bic	r0, r3, r6
 803 0034 E863     		str	r0, [r5, #60]
 804              		.loc 1 461 0
 805 0036 FFF7FEFF 		bl	dbg_check_unlock
 806              	@ 461 "../chibios_2.4.x/os/kernel/src/chevents.c" 1
 807 003a FFF7FEFF 		bl      _port_unlock
 808              	@ 0 "" 2
 809              		.thumb
 810              	.L70:
 811              		.loc 1 463 0
 812 003e 3046     		mov	r0, r6
 813 0040 F8BD     		pop	{r3, r4, r5, r6, r7, pc}
 814              	.L72:
 815              		.loc 1 449 0
 816 0042 FFF7FEFF 		bl	dbg_check_unlock
 817              	@ 449 "../chibios_2.4.x/os/kernel/src/chevents.c" 1
 818 0046 FFF7FEFF 		bl      _port_unlock
 819              	@ 0 "" 2
 820              		.loc 1 463 0
 821              		.thumb
 822 004a 3046     		mov	r0, r6
 823 004c F8BD     		pop	{r3, r4, r5, r6, r7, pc}
 824              	.L73:
 825              		.loc 1 454 0
 826 004e FFF7FEFF 		bl	dbg_check_unlock
 827              	@ 454 "../chibios_2.4.x/os/kernel/src/chevents.c" 1
 828 0052 FFF7FEFF 		bl      _port_unlock
 829              	@ 0 "" 2
 830              		.loc 1 455 0
 831              		.thumb
 832 0056 F2E7     		b	.L70
 833              	.L75:
 834              		.align	2
 835              	.L74:
 836 0058 00000000 		.word	rlist
 837              		.cfi_endproc
 838              	.LFE10:
 839              		.size	chEvtWaitAnyTimeout, .-chEvtWaitAnyTimeout
 840 005c AFF30080 		.section	.text.chEvtWaitAllTimeout,"ax",%progbits
 841              		.align	2
 842              		.p2align 4,,15
ARM GAS  /tmp/cc1UQ5Yf.s 			page 16


 843              		.global	chEvtWaitAllTimeout
 844              		.thumb
 845              		.thumb_func
 846              		.type	chEvtWaitAllTimeout, %function
 847              	chEvtWaitAllTimeout:
 848              	.LFB11:
 849              		.loc 1 482 0
 850              		.cfi_startproc
 851              		@ args = 0, pretend = 0, frame = 0
 852              		@ frame_needed = 0, uses_anonymous_args = 0
 853              	.LVL56:
 854              		.loc 1 483 0
 855 0000 164B     		ldr	r3, .L82
 856              		.loc 1 482 0
 857 0002 70B5     		push	{r4, r5, r6, lr}
 858              	.LCFI11:
 859              		.cfi_def_cfa_offset 16
 860              		.loc 1 483 0
 861 0004 DD69     		ldr	r5, [r3, #28]
 862              		.cfi_offset 14, -4
 863              		.cfi_offset 6, -8
 864              		.cfi_offset 5, -12
 865              		.cfi_offset 4, -16
 866              	.LVL57:
 867              		.loc 1 482 0
 868 0006 0446     		mov	r4, r0
 869 0008 0E46     		mov	r6, r1
 870              		.loc 1 485 0
 871              	@ 485 "../chibios_2.4.x/os/kernel/src/chevents.c" 1
 872 000a FFF7FEFF 		bl      _port_lock
 873              	@ 0 "" 2
 874              	.LVL58:
 875              		.thumb
 876 000e FFF7FEFF 		bl	dbg_check_lock
 877              	.LVL59:
 878              		.loc 1 487 0
 879 0012 EB6B     		ldr	r3, [r5, #60]
 880 0014 04EA0302 		and	r2, r4, r3
 881 0018 A242     		cmp	r2, r4
 882 001a 08D0     		beq	.L77
 883              		.loc 1 488 0
 884 001c 86B1     		cbz	r6, .L81
 885              		.loc 1 493 0
 886 001e 0920     		movs	r0, #9
 887              		.loc 1 492 0
 888 0020 AC62     		str	r4, [r5, #40]
 889              		.loc 1 493 0
 890 0022 3146     		mov	r1, r6
 891 0024 FFF7FEFF 		bl	chSchGoSleepTimeoutS
 892 0028 0028     		cmp	r0, #0
 893 002a 10DB     		blt	.L80
 894 002c EB6B     		ldr	r3, [r5, #60]
 895              	.L77:
 896              		.loc 1 498 0
 897 002e 23EA0400 		bic	r0, r3, r4
 898 0032 E863     		str	r0, [r5, #60]
 899              		.loc 1 500 0
ARM GAS  /tmp/cc1UQ5Yf.s 			page 17


 900 0034 FFF7FEFF 		bl	dbg_check_unlock
 901              	@ 500 "../chibios_2.4.x/os/kernel/src/chevents.c" 1
 902 0038 FFF7FEFF 		bl      _port_unlock
 903              	@ 0 "" 2
 904              	.LVL60:
 905              		.thumb
 906              	.L79:
 907              		.loc 1 502 0
 908 003c 2046     		mov	r0, r4
 909 003e 70BD     		pop	{r4, r5, r6, pc}
 910              	.LVL61:
 911              	.L81:
 912              		.loc 1 489 0
 913 0040 FFF7FEFF 		bl	dbg_check_unlock
 914              	@ 489 "../chibios_2.4.x/os/kernel/src/chevents.c" 1
 915 0044 FFF7FEFF 		bl      _port_unlock
 916              	@ 0 "" 2
 917              		.loc 1 490 0
 918              		.thumb
 919 0048 3446     		mov	r4, r6
 920              	.LVL62:
 921              		.loc 1 502 0
 922 004a 2046     		mov	r0, r4
 923 004c 70BD     		pop	{r4, r5, r6, pc}
 924              	.LVL63:
 925              	.L80:
 926              		.loc 1 494 0
 927 004e FFF7FEFF 		bl	dbg_check_unlock
 928              	@ 494 "../chibios_2.4.x/os/kernel/src/chevents.c" 1
 929 0052 FFF7FEFF 		bl      _port_unlock
 930              	@ 0 "" 2
 931              		.loc 1 495 0
 932              		.thumb
 933 0056 0024     		movs	r4, #0
 934              	.LVL64:
 935 0058 F0E7     		b	.L79
 936              	.L83:
 937 005a 00BF     		.align	2
 938              	.L82:
 939 005c 00000000 		.word	rlist
 940              		.cfi_endproc
 941              	.LFE11:
 942              		.size	chEvtWaitAllTimeout, .-chEvtWaitAllTimeout
 943              		.section	.rodata.str1.4,"aMS",%progbits,1
 944              		.align	2
 945              	.LC0:
 946 0000 22636845 		.ascii	"\"chEvtRegisterMask\"()\000"
 946      76745265 
 946      67697374 
 946      65724D61 
 946      736B2228 
 947 0016 0000     		.space	2
 948              	.LC1:
 949 0018 22636845 		.ascii	"\"chEvtUnregister\"()\000"
 949      7674556E 
 949      72656769 
 949      73746572 
ARM GAS  /tmp/cc1UQ5Yf.s 			page 18


 949      22282900 
 950              	.LC2:
 951 002c 22636845 		.ascii	"\"chEvtSignalI\"()\000"
 951      76745369 
 951      676E616C 
 951      49222829 
 951      00
 952 003d 000000   		.space	3
 953              	.LC3:
 954 0040 22636845 		.ascii	"\"chEvtSignal\"()\000"
 954      76745369 
 954      676E616C 
 954      22282900 
 955              	.LC4:
 956 0050 22636845 		.ascii	"\"chEvtBroadcastMaskI\"()\000"
 956      76744272 
 956      6F616463 
 956      6173744D 
 956      61736B49 
 957              	.LC5:
 958 0068 22636845 		.ascii	"\"chEvtDispatch\"()\000"
 958      76744469 
 958      73706174 
 958      63682228 
 958      2900
 959 007a 0000     		.space	2
 960              	.LC6:
 961 007c 63684576 		.ascii	"chEvtDispatch(), #1\000"
 961      74446973 
 961      70617463 
 961      6828292C 
 961      20233100 
 962              		.text
 963              	.Letext0: