ARM GAS  /tmp/ccAizFEF.s 			page 1


   1              		.syntax unified
   2              		.cpu cortex-m3
   3              		.fpu softvfp
   4              		.eabi_attribute 20, 1
   5              		.eabi_attribute 21, 1
   6              		.eabi_attribute 23, 3
   7              		.eabi_attribute 24, 1
   8              		.eabi_attribute 25, 1
   9              		.eabi_attribute 26, 1
  10              		.eabi_attribute 30, 2
  11              		.eabi_attribute 18, 4
  12              		.thumb
  13              		.file	"chheap.c"
  20 0000 DD020000 		.text
  20      0200C501 
  20      00000201 
  20      FB0E0D00 
  20      01010101 
  21              	.Ltext0:
  22              		.cfi_sections	.debug_frame
  23              		.section	.text._heap_init,"ax",%progbits
  24              		.align	2
  25              		.p2align 4,,15
  26              		.global	_heap_init
  27              		.thumb
  28              		.thumb_func
  29              		.type	_heap_init, %function
  30              	_heap_init:
  31              	.LFB0:
  32              		.file 1 "../chibios_2.4.x/os/kernel/src/chheap.c"
  33              		.loc 1 75 0
  34              		.cfi_startproc
  35              		@ args = 0, pretend = 0, frame = 0
  36              		@ frame_needed = 0, uses_anonymous_args = 0
  37              		@ link register save eliminated.
  38              		.loc 1 76 0
  39 0000 044B     		ldr	r3, .L2
  40 0002 0549     		ldr	r1, .L2+4
  41              		.loc 1 77 0
  42 0004 0022     		movs	r2, #0
  43              		.loc 1 80 0
  44 0006 03F11000 		add	r0, r3, #16
  45              		.loc 1 76 0
  46 000a 1960     		str	r1, [r3, #0]
  47              		.loc 1 77 0
  48 000c 9A60     		str	r2, [r3, #8]
  49              		.loc 1 78 0
  50 000e DA60     		str	r2, [r3, #12]
  51              		.loc 1 84 0
  52              		.loc 1 80 0
  53 0010 FFF7FEBF 		b	chMtxInit
ARM GAS  /tmp/ccAizFEF.s 			page 2


  54              	.L3:
  55              		.align	2
  56              	.L2:
  57 0014 00000000 		.word	.LANCHOR0
  58 0018 00000000 		.word	chCoreAlloc
  59              		.cfi_endproc
  60              	.LFE0:
  61              		.size	_heap_init, .-_heap_init
  62 001c AFF30080 		.section	.text.chHeapInit,"ax",%progbits
  63              		.align	2
  64              		.p2align 4,,15
  65              		.global	chHeapInit
  66              		.thumb
  67              		.thumb_func
  68              		.type	chHeapInit, %function
  69              	chHeapInit:
  70              	.LFB1:
  71              		.loc 1 99 0
  72              		.cfi_startproc
  73              		@ args = 0, pretend = 0, frame = 0
  74              		@ frame_needed = 0, uses_anonymous_args = 0
  75              	.LVL0:
  76              		.loc 1 102 0
  77 0000 11F0070F 		tst	r1, #7
  78              		.loc 1 99 0
  79 0004 70B5     		push	{r4, r5, r6, lr}
  80              	.LCFI0:
  81              		.cfi_def_cfa_offset 16
  82              		.loc 1 99 0
  83 0006 0D46     		mov	r5, r1
  84              		.cfi_offset 14, -4
  85              		.cfi_offset 6, -8
  86              		.cfi_offset 5, -12
  87              		.cfi_offset 4, -16
  88 0008 0446     		mov	r4, r0
  89 000a 1646     		mov	r6, r2
  90              		.loc 1 102 0
  91 000c 02D1     		bne	.L5
  92              		.loc 1 102 0 is_stmt 0 discriminator 2
  93 000e 12F0070F 		tst	r2, #7
  94 0012 02D0     		beq	.L6
  95              	.L5:
  96              		.loc 1 102 0 discriminator 1
  97 0014 0748     		ldr	r0, .L8
  98              	.LVL1:
  99 0016 FFF7FEFF 		bl	chDbgPanic
 100              	.LVL2:
 101              	.L6:
 102              		.loc 1 104 0 is_stmt 1
 103 001a 0023     		movs	r3, #0
 104              		.loc 1 108 0
 105 001c 083E     		subs	r6, r6, #8
 106              	.LVL3:
 107              		.loc 1 110 0
 108 001e 04F11000 		add	r0, r4, #16
 109              		.loc 1 104 0
 110 0022 2360     		str	r3, [r4, #0]
ARM GAS  /tmp/ccAizFEF.s 			page 3


 111              	.LVL4:
 112              		.loc 1 105 0
 113 0024 A560     		str	r5, [r4, #8]
 114              		.loc 1 106 0
 115 0026 E360     		str	r3, [r4, #12]
 116              		.loc 1 107 0
 117 0028 2B60     		str	r3, [r5, #0]
 118              		.loc 1 108 0
 119 002a 6E60     		str	r6, [r5, #4]
 120              		.loc 1 114 0
 121 002c BDE87040 		pop	{r4, r5, r6, lr}
 122              		.loc 1 110 0
 123 0030 FFF7FEBF 		b	chMtxInit
 124              	.L9:
 125              		.align	2
 126              	.L8:
 127 0034 00000000 		.word	.LC0
 128              		.cfi_endproc
 129              	.LFE1:
 130              		.size	chHeapInit, .-chHeapInit
 131 0038 AFF30080 		.section	.text.chHeapAlloc,"ax",%progbits
 131      AFF30080 
 132              		.align	2
 133              		.p2align 4,,15
 134              		.global	chHeapAlloc
 135              		.thumb
 136              		.thumb_func
 137              		.type	chHeapAlloc, %function
 138              	chHeapAlloc:
 139              	.LFB2:
 140              		.loc 1 132 0
 141              		.cfi_startproc
 142              		@ args = 0, pretend = 0, frame = 0
 143              		@ frame_needed = 0, uses_anonymous_args = 0
 144              	.LVL5:
 145 0000 F8B5     		push	{r3, r4, r5, r6, r7, lr}
 146              	.LCFI1:
 147              		.cfi_def_cfa_offset 24
 148              		.loc 1 136 0
 149 0002 204E     		ldr	r6, .L23
 150              		.cfi_offset 14, -4
 151              		.cfi_offset 7, -8
 152              		.cfi_offset 6, -12
 153              		.cfi_offset 5, -16
 154              		.cfi_offset 4, -20
 155              		.cfi_offset 3, -24
 156              		.loc 1 138 0
 157 0004 0731     		adds	r1, r1, #7
 158              	.LVL6:
 159              		.loc 1 136 0
 160 0006 0028     		cmp	r0, #0
 161 0008 18BF     		it	ne
 162 000a 0646     		movne	r6, r0
 163              	.LVL7:
 164              		.loc 1 140 0
 165 000c 06F11000 		add	r0, r6, #16
 166              		.loc 1 138 0
ARM GAS  /tmp/ccAizFEF.s 			page 4


 167 0010 21F00705 		bic	r5, r1, #7
 168              	.LVL8:
 169              		.loc 1 139 0
 170 0014 06F10804 		add	r4, r6, #8
 171              	.LVL9:
 172              		.loc 1 140 0
 173 0018 FFF7FEFF 		bl	chMtxLock
 174              		.loc 1 142 0
 175 001c 00E0     		b	.L12
 176              	.LVL10:
 177              	.L18:
 178              		.loc 1 144 0
 179 001e 1C46     		mov	r4, r3
 180              	.LVL11:
 181              	.L12:
 182              		.loc 1 142 0 discriminator 1
 183 0020 2368     		ldr	r3, [r4, #0]
 184 0022 F3B1     		cbz	r3, .L21
 185              	.LVL12:
 186              		.loc 1 144 0
 187 0024 5A68     		ldr	r2, [r3, #4]
 188 0026 9542     		cmp	r5, r2
 189 0028 F9D8     		bhi	.L18
 190              		.loc 1 145 0
 191 002a 05F10801 		add	r1, r5, #8
 192 002e 8A42     		cmp	r2, r1
 193 0030 14D3     		bcc	.L22
 194              		.loc 1 155 0
 195 0032 6FF00707 		mvn	r7, #7
 196              		.loc 1 154 0
 197 0036 D3F800E0 		ldr	lr, [r3, #0]
 198              		.loc 1 155 0
 199 003a C5EB070C 		rsb	ip, r5, r7
 200 003e 0CEB0200 		add	r0, ip, r2
 201              		.loc 1 153 0
 202 0042 5F18     		adds	r7, r3, r1
 203              	.LVL13:
 204              		.loc 1 154 0
 205 0044 43F801E0 		str	lr, [r3, r1]
 206              		.loc 1 155 0
 207 0048 7860     		str	r0, [r7, #4]
 208              		.loc 1 156 0
 209 004a 2760     		str	r7, [r4, #0]
 210              		.loc 1 157 0
 211 004c 5D60     		str	r5, [r3, #4]
 212              	.LVL14:
 213              	.L14:
 214              		.loc 1 159 0
 215 004e 1C46     		mov	r4, r3
 216              	.LVL15:
 217 0050 44F8086B 		str	r6, [r4], #8
 218              		.loc 1 161 0
 219 0054 FFF7FEFF 		bl	chMtxUnlock
 220              	.LVL16:
 221              	.L15:
 222              		.loc 1 181 0
 223 0058 2046     		mov	r0, r4
ARM GAS  /tmp/ccAizFEF.s 			page 5


 224 005a F8BD     		pop	{r3, r4, r5, r6, r7, pc}
 225              	.LVL17:
 226              	.L22:
 227              		.loc 1 149 0
 228 005c 1A68     		ldr	r2, [r3, #0]
 229 005e 2260     		str	r2, [r4, #0]
 230 0060 F5E7     		b	.L14
 231              	.LVL18:
 232              	.L21:
 233              		.loc 1 167 0
 234 0062 FFF7FEFF 		bl	chMtxUnlock
 235              		.loc 1 171 0
 236 0066 3468     		ldr	r4, [r6, #0]
 237              	.LVL19:
 238 0068 002C     		cmp	r4, #0
 239 006a F5D0     		beq	.L15
 240              		.loc 1 172 0
 241 006c 05F10800 		add	r0, r5, #8
 242 0070 A047     		blx	r4
 243              	.LVL20:
 244              		.loc 1 173 0
 245 0072 20B1     		cbz	r0, .L20
 246              		.loc 1 174 0
 247 0074 0660     		str	r6, [r0, #0]
 248              		.loc 1 175 0
 249 0076 4560     		str	r5, [r0, #4]
 250              		.loc 1 176 0
 251 0078 00F10804 		add	r4, r0, #8
 252              	.LVL21:
 253              		.loc 1 177 0
 254 007c ECE7     		b	.L15
 255              	.LVL22:
 256              	.L20:
 257              		.loc 1 180 0
 258 007e 0446     		mov	r4, r0
 259 0080 EAE7     		b	.L15
 260              	.L24:
 261 0082 00BF     		.align	2
 262              	.L23:
 263 0084 00000000 		.word	.LANCHOR0
 264              		.cfi_endproc
 265              	.LFE2:
 266              		.size	chHeapAlloc, .-chHeapAlloc
 267 0088 AFF30080 		.section	.text.chHeapFree,"ax",%progbits
 267      AFF30080 
 268              		.align	2
 269              		.p2align 4,,15
 270              		.global	chHeapFree
 271              		.thumb
 272              		.thumb_func
 273              		.type	chHeapFree, %function
 274              	chHeapFree:
 275              	.LFB3:
 276              		.loc 1 194 0
 277              		.cfi_startproc
 278              		@ args = 0, pretend = 0, frame = 0
 279              		@ frame_needed = 0, uses_anonymous_args = 0
ARM GAS  /tmp/ccAizFEF.s 			page 6


 280              	.LVL23:
 281 0000 2DE9F041 		push	{r4, r5, r6, r7, r8, lr}
 282              	.LCFI2:
 283              		.cfi_def_cfa_offset 24
 284              		.loc 1 198 0
 285 0004 0746     		mov	r7, r0
 286              		.cfi_offset 14, -4
 287              		.cfi_offset 8, -8
 288              		.cfi_offset 7, -12
 289              		.cfi_offset 6, -16
 290              		.cfi_offset 5, -20
 291              		.cfi_offset 4, -24
 292 0006 0028     		cmp	r0, #0
 293 0008 4BD0     		beq	.L35
 294              	.LVL24:
 295              	.L26:
 296              		.loc 1 201 0
 297 000a 57F8086C 		ldr	r6, [r7, #-8]
 298              		.loc 1 200 0
 299 000e A7F10805 		sub	r5, r7, #8
 300              	.LVL25:
 301              		.loc 1 203 0
 302 0012 06F11000 		add	r0, r6, #16
 303 0016 FFF7FEFF 		bl	chMtxLock
 304              	.LVL26:
 305              		.loc 1 202 0
 306 001a 0836     		adds	r6, r6, #8
 307              	.LVL27:
 308 001c 3446     		mov	r4, r6
 309              	.LVL28:
 310              	.L34:
 311              		.loc 1 206 0
 312 001e AC42     		cmp	r4, r5
 313 0020 04D8     		bhi	.L27
 314              		.loc 1 206 0 is_stmt 0 discriminator 1
 315 0022 6068     		ldr	r0, [r4, #4]
 316 0024 0830     		adds	r0, r0, #8
 317 0026 2318     		adds	r3, r4, r0
 318 0028 9D42     		cmp	r5, r3
 319 002a 20D3     		bcc	.L36
 320              	.L27:
 321              		.loc 1 210 0 is_stmt 1
 322 002c B442     		cmp	r4, r6
 323 002e 04D0     		beq	.L28
 324              		.loc 1 210 0 is_stmt 0 discriminator 2
 325 0030 AC42     		cmp	r4, r5
 326 0032 02D3     		bcc	.L28
 327              		.loc 1 224 0 is_stmt 1
 328 0034 2368     		ldr	r3, [r4, #0]
 329              	.L31:
 330              	.LVL29:
 331              		.loc 1 228 0
 332 0036 1C46     		mov	r4, r3
 333              		.loc 1 229 0
 334 0038 F1E7     		b	.L34
 335              	.LVL30:
 336              	.L28:
ARM GAS  /tmp/ccAizFEF.s 			page 7


 337              		.loc 1 211 0 discriminator 1
 338 003a 2368     		ldr	r3, [r4, #0]
 339              		.loc 1 210 0 discriminator 1
 340 003c 0BB1     		cbz	r3, .L30
 341              		.loc 1 211 0
 342 003e 9D42     		cmp	r5, r3
 343 0040 F9D2     		bcs	.L31
 344              	.L30:
 345              		.loc 1 216 0
 346 0042 6A68     		ldr	r2, [r5, #4]
 347              		.loc 1 213 0
 348 0044 47F8083C 		str	r3, [r7, #-8]
 349              		.loc 1 214 0
 350 0048 2560     		str	r5, [r4, #0]
 351              		.loc 1 216 0
 352 004a 02F10803 		add	r3, r2, #8
 353 004e 57F8080C 		ldr	r0, [r7, #-8]
 354 0052 E918     		adds	r1, r5, r3
 355 0054 8142     		cmp	r1, r0
 356 0056 0ED0     		beq	.L37
 357              		.loc 1 221 0
 358 0058 6368     		ldr	r3, [r4, #4]
 359 005a 03F1080E 		add	lr, r3, #8
 360 005e 04EB0E0C 		add	ip, r4, lr
 361 0062 AC45     		cmp	ip, r5
 362 0064 15D0     		beq	.L38
 363              	.L33:
 364              		.loc 1 233 0
 365 0066 BDE8F041 		pop	{r4, r5, r6, r7, r8, lr}
 366              		.loc 1 231 0
 367 006a FFF7FEBF 		b	chMtxUnlock
 368              	.L36:
 369              		.loc 1 206 0 discriminator 2
 370 006e 0F48     		ldr	r0, .L39
 371 0070 FFF7FEFF 		bl	chDbgPanic
 372 0074 DAE7     		b	.L27
 373              	.L37:
 374              		.loc 1 218 0
 375 0076 4968     		ldr	r1, [r1, #4]
 376              		.loc 1 219 0
 377 0078 EB58     		ldr	r3, [r5, r3]
 378              		.loc 1 218 0
 379 007a 5218     		adds	r2, r2, r1
 380 007c 0832     		adds	r2, r2, #8
 381 007e 6A60     		str	r2, [r5, #4]
 382              		.loc 1 219 0
 383 0080 47F8083C 		str	r3, [r7, #-8]
 384              		.loc 1 221 0
 385 0084 6368     		ldr	r3, [r4, #4]
 386 0086 03F1080E 		add	lr, r3, #8
 387 008a 04EB0E0C 		add	ip, r4, lr
 388 008e AC45     		cmp	ip, r5
 389 0090 E9D1     		bne	.L33
 390              	.L38:
 391              		.loc 1 223 0
 392 0092 6A68     		ldr	r2, [r5, #4]
 393              		.loc 1 224 0
ARM GAS  /tmp/ccAizFEF.s 			page 8


 394 0094 57F8080C 		ldr	r0, [r7, #-8]
 395              		.loc 1 223 0
 396 0098 9B18     		adds	r3, r3, r2
 397 009a 0833     		adds	r3, r3, #8
 398 009c 6360     		str	r3, [r4, #4]
 399              		.loc 1 224 0
 400 009e 2060     		str	r0, [r4, #0]
 401 00a0 E1E7     		b	.L33
 402              	.LVL31:
 403              	.L35:
 404              		.loc 1 198 0 discriminator 1
 405 00a2 0348     		ldr	r0, .L39+4
 406 00a4 FFF7FEFF 		bl	chDbgPanic
 407 00a8 AFE7     		b	.L26
 408              	.L40:
 409 00aa 00BF     		.align	2
 410              	.L39:
 411 00ac 20000000 		.word	.LC2
 412 00b0 10000000 		.word	.LC1
 413              		.cfi_endproc
 414              	.LFE3:
 415              		.size	chHeapFree, .-chHeapFree
 416 00b4 AFF30080 		.section	.text.chHeapStatus,"ax",%progbits
 416      AFF30080 
 416      AFF30080 
 417              		.align	2
 418              		.p2align 4,,15
 419              		.global	chHeapStatus
 420              		.thumb
 421              		.thumb_func
 422              		.type	chHeapStatus, %function
 423              	chHeapStatus:
 424              	.LFB4:
 425              		.loc 1 250 0
 426              		.cfi_startproc
 427              		@ args = 0, pretend = 0, frame = 0
 428              		@ frame_needed = 0, uses_anonymous_args = 0
 429              	.LVL32:
 430 0000 38B5     		push	{r3, r4, r5, lr}
 431              	.LCFI3:
 432              		.cfi_def_cfa_offset 16
 433              		.loc 1 255 0
 434 0002 0E4C     		ldr	r4, .L49
 435              		.cfi_offset 14, -4
 436              		.cfi_offset 5, -8
 437              		.cfi_offset 4, -12
 438              		.cfi_offset 3, -16
 439              		.loc 1 250 0
 440 0004 0D46     		mov	r5, r1
 441              		.loc 1 255 0
 442 0006 0028     		cmp	r0, #0
 443 0008 18BF     		it	ne
 444 000a 0446     		movne	r4, r0
 445              	.LVL33:
 446              		.loc 1 257 0
 447 000c 04F11000 		add	r0, r4, #16
 448 0010 FFF7FEFF 		bl	chMtxLock
ARM GAS  /tmp/ccAizFEF.s 			page 9


 449              	.LVL34:
 450              		.loc 1 260 0
 451 0014 A368     		ldr	r3, [r4, #8]
 452 0016 6BB1     		cbz	r3, .L47
 453              		.loc 1 260 0 is_stmt 0 discriminator 2
 454 0018 0022     		movs	r2, #0
 455 001a 1446     		mov	r4, r2
 456              	.LVL35:
 457              	.L44:
 458              		.loc 1 261 0 is_stmt 1 discriminator 2
 459 001c 5968     		ldr	r1, [r3, #4]
 460              		.loc 1 260 0 discriminator 2
 461 001e 1B68     		ldr	r3, [r3, #0]
 462              		.loc 1 261 0 discriminator 2
 463 0020 5218     		adds	r2, r2, r1
 464              	.LVL36:
 465              		.loc 1 260 0 discriminator 2
 466 0022 0134     		adds	r4, r4, #1
 467              	.LVL37:
 468 0024 002B     		cmp	r3, #0
 469 0026 F9D1     		bne	.L44
 470              	.LVL38:
 471              	.L43:
 472              		.loc 1 262 0
 473 0028 05B1     		cbz	r5, .L45
 474              		.loc 1 263 0
 475 002a 2A60     		str	r2, [r5, #0]
 476              	.L45:
 477              		.loc 1 265 0
 478 002c FFF7FEFF 		bl	chMtxUnlock
 479              		.loc 1 267 0
 480 0030 2046     		mov	r0, r4
 481 0032 38BD     		pop	{r3, r4, r5, pc}
 482              	.LVL39:
 483              	.L47:
 484              		.loc 1 259 0
 485 0034 1A46     		mov	r2, r3
 486              		.loc 1 260 0
 487 0036 1C46     		mov	r4, r3
 488 0038 F6E7     		b	.L43
 489              	.L50:
 490 003a 00BF     		.align	2
 491              	.L49:
 492 003c 00000000 		.word	.LANCHOR0
 493              		.cfi_endproc
 494              	.LFE4:
 495              		.size	chHeapStatus, .-chHeapStatus
 496              		.section	.rodata.str1.4,"aMS",%progbits,1
 497              		.align	2
 498              	.LC0:
 499 0000 22636848 		.ascii	"\"chHeapInit\"()\000"
 499      65617049 
 499      6E697422 
 499      282900
 500 000f 00       		.space	1
 501              	.LC1:
 502 0010 22636848 		.ascii	"\"chHeapFree\"()\000"
ARM GAS  /tmp/ccAizFEF.s 			page 10


 502      65617046 
 502      72656522 
 502      282900
 503 001f 00       		.space	1
 504              	.LC2:
 505 0020 63684865 		.ascii	"chHeapFree(), #1\000"
 505      61704672 
 505      65652829 
 505      2C202331 
 505      00
 506 0031 000000   		.section	.bss.default_heap,"aw",%nobits
 507              		.align	3
 508              		.set	.LANCHOR0,. + 0
 509              		.type	default_heap, %object
 510              		.size	default_heap, 32
 511              	default_heap:
 512 0000 00000000 		.space	32
 512      00000000 
 512      00000000 
 512      00000000 
 512      00000000 
 513              		.text
 514              	.Letext0: