ARM GAS  C:\DOCUME~1\z_80\LOCALS~1\Temp\cc1Xj2RV.s 			page 1


   1              		.syntax unified
   2              		.cpu cortex-m3
   3              		.fpu softvfp
   4              		.eabi_attribute 20, 1
   5              		.eabi_attribute 21, 1
   6              		.eabi_attribute 23, 3
   7              		.eabi_attribute 24, 1
   8              		.eabi_attribute 25, 1
   9              		.eabi_attribute 26, 1
  10              		.eabi_attribute 30, 2
  11              		.eabi_attribute 18, 4
  12              		.thumb
  13              		.file	"chmboxes.c"
  20 0000 F1020000 		.text
  20      02005E01 
  20      00000201 
  20      FB0E0D00 
  20      01010101 
  21              	.Ltext0:
  22              		.cfi_sections	.debug_frame
  23              		.section	.text.chMBInit,"ax",%progbits
  24              		.align	2
  25              		.p2align 4,,15
  26              		.global	chMBInit
  27              		.thumb
  28              		.thumb_func
  29              		.type	chMBInit, %function
  30              	chMBInit:
  31              	.LFB0:
  32              		.file 1 "../chibios_2.4.x/os/kernel/src/chmboxes.c"
  33              		.loc 1 72 0
  34              		.cfi_startproc
  35              		@ args = 0, pretend = 0, frame = 0
  36              		@ frame_needed = 0, uses_anonymous_args = 0
  37              	.LVL0:
  38 0000 70B5     		push	{r4, r5, r6, lr}
  39              	.LCFI0:
  40              		.cfi_def_cfa_offset 16
  41              		.loc 1 74 0
  42 0002 0446     		mov	r4, r0
  43              		.cfi_offset 14, -4
  44              		.cfi_offset 6, -8
  45              		.cfi_offset 5, -12
  46              		.cfi_offset 4, -16
  47              		.loc 1 72 0
  48 0004 0D46     		mov	r5, r1
  49 0006 1646     		mov	r6, r2
  50              		.loc 1 74 0
  51 0008 A0B1     		cbz	r0, .L2
  52              		.loc 1 74 0 is_stmt 0 discriminator 2
  53 000a 99B1     		cbz	r1, .L2
ARM GAS  C:\DOCUME~1\z_80\LOCALS~1\Temp\cc1Xj2RV.s 			page 2


  54              		.loc 1 74 0 discriminator 3
  55 000c 002A     		cmp	r2, #0
  56 000e 11DD     		ble	.L2
  57              	.LVL1:
  58              	.L3:
  59              		.loc 1 77 0 is_stmt 1
  60 0010 05EB8603 		add	r3, r5, r6, lsl #2
  61              		.loc 1 78 0
  62 0014 04F11C00 		add	r0, r4, #28
  63 0018 3146     		mov	r1, r6
  64              		.loc 1 76 0
  65 001a E560     		str	r5, [r4, #12]
  66 001c A560     		str	r5, [r4, #8]
  67 001e 2560     		str	r5, [r4, #0]
  68              		.loc 1 77 0
  69 0020 6360     		str	r3, [r4, #4]
  70              		.loc 1 78 0
  71 0022 FFF7FEFF 		bl	chSemInit
  72              		.loc 1 79 0
  73 0026 04F11000 		add	r0, r4, #16
  74 002a 0021     		movs	r1, #0
  75              		.loc 1 80 0
  76 002c BDE87040 		pop	{r4, r5, r6, lr}
  77              		.loc 1 79 0
  78 0030 FFF7FEBF 		b	chSemInit
  79              	.L2:
  80              		.loc 1 74 0 discriminator 1
  81 0034 0148     		ldr	r0, .L5
  82 0036 FFF7FEFF 		bl	chDbgPanic
  83 003a E9E7     		b	.L3
  84              	.L6:
  85              		.align	2
  86              	.L5:
  87 003c 00000000 		.word	.LC0
  88              		.cfi_endproc
  89              	.LFE0:
  90              		.size	chMBInit, .-chMBInit
  91              		.section	.text.chMBReset,"ax",%progbits
  92              		.align	2
  93              		.p2align 4,,15
  94              		.global	chMBReset
  95              		.thumb
  96              		.thumb_func
  97              		.type	chMBReset, %function
  98              	chMBReset:
  99              	.LFB1:
 100              		.loc 1 91 0
 101              		.cfi_startproc
 102              		@ args = 0, pretend = 0, frame = 0
 103              		@ frame_needed = 0, uses_anonymous_args = 0
 104              	.LVL2:
 105 0000 10B5     		push	{r4, lr}
 106              	.LCFI1:
 107              		.cfi_def_cfa_offset 8
 108              		.loc 1 93 0
 109 0002 0446     		mov	r4, r0
 110              		.cfi_offset 14, -4
ARM GAS  C:\DOCUME~1\z_80\LOCALS~1\Temp\cc1Xj2RV.s 			page 3


 111              		.cfi_offset 4, -8
 112 0004 C8B1     		cbz	r0, .L9
 113              	.LVL3:
 114              	.L8:
 115              		.loc 1 95 0
 116              	@ 95 "../chibios_2.4.x/os/kernel/src/chmboxes.c" 1
 117 0006 FFF7FEFF 		bl      _port_lock
 118              	@ 0 "" 2
 119              		.thumb
 120 000a FFF7FEFF 		bl	dbg_check_lock
 121              		.loc 1 96 0
 122 000e 2368     		ldr	r3, [r4, #0]
 123              		.loc 1 97 0
 124 0010 6268     		ldr	r2, [r4, #4]
 125              		.loc 1 96 0
 126 0012 E360     		str	r3, [r4, #12]
 127              		.loc 1 97 0
 128 0014 D11A     		subs	r1, r2, r3
 129              		.loc 1 96 0
 130 0016 A360     		str	r3, [r4, #8]
 131              		.loc 1 97 0
 132 0018 04F11C00 		add	r0, r4, #28
 133 001c 8910     		asrs	r1, r1, #2
 134 001e FFF7FEFF 		bl	chSemResetI
 135              		.loc 1 98 0
 136 0022 04F11000 		add	r0, r4, #16
 137 0026 0021     		movs	r1, #0
 138 0028 FFF7FEFF 		bl	chSemResetI
 139              		.loc 1 99 0
 140 002c FFF7FEFF 		bl	chSchRescheduleS
 141              		.loc 1 100 0
 142 0030 FFF7FEFF 		bl	dbg_check_unlock
 143              	@ 100 "../chibios_2.4.x/os/kernel/src/chmboxes.c" 1
 144 0034 FFF7FEFF 		bl      _port_unlock
 145              	@ 0 "" 2
 146              		.loc 1 101 0
 147              		.thumb
 148 0038 10BD     		pop	{r4, pc}
 149              	.L9:
 150              		.loc 1 93 0 discriminator 1
 151 003a 0248     		ldr	r0, .L10
 152 003c FFF7FEFF 		bl	chDbgPanic
 153 0040 E1E7     		b	.L8
 154              	.L11:
 155 0042 00BF     		.align	2
 156              	.L10:
 157 0044 10000000 		.word	.LC1
 158              		.cfi_endproc
 159              	.LFE1:
 160              		.size	chMBReset, .-chMBReset
 161 0048 AFF30080 		.section	.text.chMBPostS,"ax",%progbits
 161      AFF30080 
 162              		.align	2
 163              		.p2align 4,,15
 164              		.global	chMBPostS
 165              		.thumb
 166              		.thumb_func
ARM GAS  C:\DOCUME~1\z_80\LOCALS~1\Temp\cc1Xj2RV.s 			page 4


 167              		.type	chMBPostS, %function
 168              	chMBPostS:
 169              	.LFB3:
 170              		.loc 1 150 0
 171              		.cfi_startproc
 172              		@ args = 0, pretend = 0, frame = 0
 173              		@ frame_needed = 0, uses_anonymous_args = 0
 174              	.LVL4:
 175 0000 70B5     		push	{r4, r5, r6, lr}
 176              	.LCFI2:
 177              		.cfi_def_cfa_offset 16
 178              		.loc 1 150 0
 179 0002 0446     		mov	r4, r0
 180              		.cfi_offset 14, -4
 181              		.cfi_offset 6, -8
 182              		.cfi_offset 5, -12
 183              		.cfi_offset 4, -16
 184 0004 0D46     		mov	r5, r1
 185 0006 1646     		mov	r6, r2
 186              		.loc 1 153 0
 187 0008 FFF7FEFF 		bl	chDbgCheckClassS
 188              	.LVL5:
 189              		.loc 1 154 0
 190 000c C4B1     		cbz	r4, .L16
 191              	.L13:
 192              		.loc 1 156 0
 193 000e 3146     		mov	r1, r6
 194 0010 04F11C00 		add	r0, r4, #28
 195 0014 FFF7FEFF 		bl	chSemWaitTimeoutS
 196              	.LVL6:
 197              		.loc 1 157 0
 198 0018 0646     		mov	r6, r0
 199              	.LVL7:
 200 001a 78B9     		cbnz	r0, .L14
 201              		.loc 1 158 0
 202 001c A368     		ldr	r3, [r4, #8]
 203              		.loc 1 159 0
 204 001e 6268     		ldr	r2, [r4, #4]
 205              		.loc 1 158 0
 206 0020 43F8045B 		str	r5, [r3], #4
 207              		.loc 1 159 0
 208 0024 9342     		cmp	r3, r2
 209              		.loc 1 158 0
 210 0026 A360     		str	r3, [r4, #8]
 211              		.loc 1 160 0
 212 0028 28BF     		it	cs
 213 002a 2368     		ldrcs	r3, [r4, #0]
 214              		.loc 1 161 0
 215 002c 04F11000 		add	r0, r4, #16
 216              	.LVL8:
 217              		.loc 1 160 0
 218 0030 28BF     		it	cs
 219 0032 A360     		strcs	r3, [r4, #8]
 220              		.loc 1 161 0
 221 0034 FFF7FEFF 		bl	chSemSignalI
 222              		.loc 1 162 0
 223 0038 FFF7FEFF 		bl	chSchRescheduleS
ARM GAS  C:\DOCUME~1\z_80\LOCALS~1\Temp\cc1Xj2RV.s 			page 5


 224              	.L14:
 225              		.loc 1 165 0
 226 003c 3046     		mov	r0, r6
 227 003e 70BD     		pop	{r4, r5, r6, pc}
 228              	.LVL9:
 229              	.L16:
 230              		.loc 1 154 0 discriminator 1
 231 0040 0148     		ldr	r0, .L17
 232 0042 FFF7FEFF 		bl	chDbgPanic
 233 0046 E2E7     		b	.L13
 234              	.L18:
 235              		.align	2
 236              	.L17:
 237 0048 20000000 		.word	.LC2
 238              		.cfi_endproc
 239              	.LFE3:
 240              		.size	chMBPostS, .-chMBPostS
 241 004c AFF30080 		.section	.text.chMBPost,"ax",%progbits
 242              		.align	2
 243              		.p2align 4,,15
 244              		.global	chMBPost
 245              		.thumb
 246              		.thumb_func
 247              		.type	chMBPost, %function
 248              	chMBPost:
 249              	.LFB2:
 250              		.loc 1 122 0
 251              		.cfi_startproc
 252              		@ args = 0, pretend = 0, frame = 0
 253              		@ frame_needed = 0, uses_anonymous_args = 0
 254              	.LVL10:
 255 0000 70B5     		push	{r4, r5, r6, lr}
 256              	.LCFI3:
 257              		.cfi_def_cfa_offset 16
 258              		.loc 1 122 0
 259 0002 0646     		mov	r6, r0
 260              		.cfi_offset 14, -4
 261              		.cfi_offset 6, -8
 262              		.cfi_offset 5, -12
 263              		.cfi_offset 4, -16
 264 0004 0D46     		mov	r5, r1
 265 0006 1446     		mov	r4, r2
 266              		.loc 1 125 0
 267              	@ 125 "../chibios_2.4.x/os/kernel/src/chmboxes.c" 1
 268 0008 FFF7FEFF 		bl      _port_lock
 269              	@ 0 "" 2
 270              		.thumb
 271 000c FFF7FEFF 		bl	dbg_check_lock
 272              	.LVL11:
 273              		.loc 1 126 0
 274 0010 2246     		mov	r2, r4
 275 0012 2946     		mov	r1, r5
 276 0014 3046     		mov	r0, r6
 277 0016 FFF7FEFF 		bl	chMBPostS
 278 001a 0446     		mov	r4, r0
 279              	.LVL12:
 280              		.loc 1 127 0
ARM GAS  C:\DOCUME~1\z_80\LOCALS~1\Temp\cc1Xj2RV.s 			page 6


 281 001c FFF7FEFF 		bl	dbg_check_unlock
 282              	.LVL13:
 283              	@ 127 "../chibios_2.4.x/os/kernel/src/chmboxes.c" 1
 284 0020 FFF7FEFF 		bl      _port_unlock
 285              	@ 0 "" 2
 286              		.loc 1 129 0
 287              		.thumb
 288 0024 2046     		mov	r0, r4
 289 0026 70BD     		pop	{r4, r5, r6, pc}
 290              		.cfi_endproc
 291              	.LFE2:
 292              		.size	chMBPost, .-chMBPost
 293 0028 AFF30080 		.section	.text.chMBPostI,"ax",%progbits
 293      AFF30080 
 294              		.align	2
 295              		.p2align 4,,15
 296              		.global	chMBPostI
 297              		.thumb
 298              		.thumb_func
 299              		.type	chMBPostI, %function
 300              	chMBPostI:
 301              	.LFB4:
 302              		.loc 1 181 0
 303              		.cfi_startproc
 304              		@ args = 0, pretend = 0, frame = 0
 305              		@ frame_needed = 0, uses_anonymous_args = 0
 306              	.LVL14:
 307 0000 38B5     		push	{r3, r4, r5, lr}
 308              	.LCFI4:
 309              		.cfi_def_cfa_offset 16
 310              		.loc 1 181 0
 311 0002 0446     		mov	r4, r0
 312              		.cfi_offset 14, -4
 313              		.cfi_offset 5, -8
 314              		.cfi_offset 4, -12
 315              		.cfi_offset 3, -16
 316 0004 0D46     		mov	r5, r1
 317              		.loc 1 183 0
 318 0006 FFF7FEFF 		bl	chDbgCheckClassI
 319              	.LVL15:
 320              		.loc 1 184 0
 321 000a BCB1     		cbz	r4, .L25
 322              	.L21:
 323              		.loc 1 186 0
 324 000c 636A     		ldr	r3, [r4, #36]
 325 000e 002B     		cmp	r3, #0
 326 0010 11DD     		ble	.L24
 327              		.loc 1 189 0
 328 0012 A268     		ldr	r2, [r4, #8]
 329              		.loc 1 188 0
 330 0014 013B     		subs	r3, r3, #1
 331              		.loc 1 190 0
 332 0016 6168     		ldr	r1, [r4, #4]
 333              		.loc 1 188 0
 334 0018 6362     		str	r3, [r4, #36]
 335              		.loc 1 189 0
 336 001a 42F8045B 		str	r5, [r2], #4
ARM GAS  C:\DOCUME~1\z_80\LOCALS~1\Temp\cc1Xj2RV.s 			page 7


 337              		.loc 1 190 0
 338 001e 8A42     		cmp	r2, r1
 339              		.loc 1 191 0
 340 0020 28BF     		it	cs
 341 0022 2368     		ldrcs	r3, [r4, #0]
 342              		.loc 1 189 0
 343 0024 A260     		str	r2, [r4, #8]
 344              		.loc 1 192 0
 345 0026 04F11000 		add	r0, r4, #16
 346              		.loc 1 191 0
 347 002a 28BF     		it	cs
 348 002c A360     		strcs	r3, [r4, #8]
 349              		.loc 1 192 0
 350 002e FFF7FEFF 		bl	chSemSignalI
 351              		.loc 1 193 0
 352 0032 0020     		movs	r0, #0
 353 0034 38BD     		pop	{r3, r4, r5, pc}
 354              	.L24:
 355              		.loc 1 187 0
 356 0036 4FF0FF30 		mov	r0, #-1
 357              		.loc 1 194 0
 358 003a 38BD     		pop	{r3, r4, r5, pc}
 359              	.L25:
 360              		.loc 1 184 0 discriminator 1
 361 003c 0148     		ldr	r0, .L26
 362 003e FFF7FEFF 		bl	chDbgPanic
 363 0042 E3E7     		b	.L21
 364              	.L27:
 365              		.align	2
 366              	.L26:
 367 0044 30000000 		.word	.LC3
 368              		.cfi_endproc
 369              	.LFE4:
 370              		.size	chMBPostI, .-chMBPostI
 371 0048 AFF30080 		.section	.text.chMBPostAheadS,"ax",%progbits
 371      AFF30080 
 372              		.align	2
 373              		.p2align 4,,15
 374              		.global	chMBPostAheadS
 375              		.thumb
 376              		.thumb_func
 377              		.type	chMBPostAheadS, %function
 378              	chMBPostAheadS:
 379              	.LFB6:
 380              		.loc 1 243 0
 381              		.cfi_startproc
 382              		@ args = 0, pretend = 0, frame = 0
 383              		@ frame_needed = 0, uses_anonymous_args = 0
 384              	.LVL16:
 385 0000 70B5     		push	{r4, r5, r6, lr}
 386              	.LCFI5:
 387              		.cfi_def_cfa_offset 16
 388              		.loc 1 243 0
 389 0002 0446     		mov	r4, r0
 390              		.cfi_offset 14, -4
 391              		.cfi_offset 6, -8
 392              		.cfi_offset 5, -12
ARM GAS  C:\DOCUME~1\z_80\LOCALS~1\Temp\cc1Xj2RV.s 			page 8


 393              		.cfi_offset 4, -16
 394 0004 0D46     		mov	r5, r1
 395 0006 1646     		mov	r6, r2
 396              		.loc 1 246 0
 397 0008 FFF7FEFF 		bl	chDbgCheckClassS
 398              	.LVL17:
 399              		.loc 1 247 0
 400 000c CCB1     		cbz	r4, .L32
 401              	.L29:
 402              		.loc 1 249 0
 403 000e 3146     		mov	r1, r6
 404 0010 04F11C00 		add	r0, r4, #28
 405 0014 FFF7FEFF 		bl	chSemWaitTimeoutS
 406              	.LVL18:
 407              		.loc 1 250 0
 408 0018 0646     		mov	r6, r0
 409              	.LVL19:
 410 001a 60B9     		cbnz	r0, .L30
 411              		.loc 1 251 0
 412 001c E368     		ldr	r3, [r4, #12]
 413 001e 2268     		ldr	r2, [r4, #0]
 414 0020 043B     		subs	r3, r3, #4
 415 0022 9342     		cmp	r3, r2
 416 0024 E360     		str	r3, [r4, #12]
 417 0026 08D3     		bcc	.L33
 418              	.LVL20:
 419              	.L31:
 420              		.loc 1 254 0
 421 0028 04F11000 		add	r0, r4, #16
 422              		.loc 1 253 0
 423 002c 1D60     		str	r5, [r3, #0]
 424              		.loc 1 254 0
 425 002e FFF7FEFF 		bl	chSemSignalI
 426              		.loc 1 255 0
 427 0032 FFF7FEFF 		bl	chSchRescheduleS
 428              	.L30:
 429              		.loc 1 258 0
 430 0036 3046     		mov	r0, r6
 431 0038 70BD     		pop	{r4, r5, r6, pc}
 432              	.L33:
 433              		.loc 1 252 0
 434 003a 6068     		ldr	r0, [r4, #4]
 435 003c 031F     		subs	r3, r0, #4
 436 003e E360     		str	r3, [r4, #12]
 437 0040 F2E7     		b	.L31
 438              	.LVL21:
 439              	.L32:
 440              		.loc 1 247 0 discriminator 1
 441 0042 0248     		ldr	r0, .L34
 442 0044 FFF7FEFF 		bl	chDbgPanic
 443 0048 E1E7     		b	.L29
 444              	.L35:
 445 004a 00BF     		.align	2
 446              	.L34:
 447 004c 40000000 		.word	.LC4
 448              		.cfi_endproc
 449              	.LFE6:
ARM GAS  C:\DOCUME~1\z_80\LOCALS~1\Temp\cc1Xj2RV.s 			page 9


 450              		.size	chMBPostAheadS, .-chMBPostAheadS
 451              		.section	.text.chMBPostAhead,"ax",%progbits
 452              		.align	2
 453              		.p2align 4,,15
 454              		.global	chMBPostAhead
 455              		.thumb
 456              		.thumb_func
 457              		.type	chMBPostAhead, %function
 458              	chMBPostAhead:
 459              	.LFB5:
 460              		.loc 1 215 0
 461              		.cfi_startproc
 462              		@ args = 0, pretend = 0, frame = 0
 463              		@ frame_needed = 0, uses_anonymous_args = 0
 464              	.LVL22:
 465 0000 70B5     		push	{r4, r5, r6, lr}
 466              	.LCFI6:
 467              		.cfi_def_cfa_offset 16
 468              		.loc 1 215 0
 469 0002 0646     		mov	r6, r0
 470              		.cfi_offset 14, -4
 471              		.cfi_offset 6, -8
 472              		.cfi_offset 5, -12
 473              		.cfi_offset 4, -16
 474 0004 0D46     		mov	r5, r1
 475 0006 1446     		mov	r4, r2
 476              		.loc 1 218 0
 477              	@ 218 "../chibios_2.4.x/os/kernel/src/chmboxes.c" 1
 478 0008 FFF7FEFF 		bl      _port_lock
 479              	@ 0 "" 2
 480              		.thumb
 481 000c FFF7FEFF 		bl	dbg_check_lock
 482              	.LVL23:
 483              		.loc 1 219 0
 484 0010 2246     		mov	r2, r4
 485 0012 2946     		mov	r1, r5
 486 0014 3046     		mov	r0, r6
 487 0016 FFF7FEFF 		bl	chMBPostAheadS
 488 001a 0446     		mov	r4, r0
 489              	.LVL24:
 490              		.loc 1 220 0
 491 001c FFF7FEFF 		bl	dbg_check_unlock
 492              	.LVL25:
 493              	@ 220 "../chibios_2.4.x/os/kernel/src/chmboxes.c" 1
 494 0020 FFF7FEFF 		bl      _port_unlock
 495              	@ 0 "" 2
 496              		.loc 1 222 0
 497              		.thumb
 498 0024 2046     		mov	r0, r4
 499 0026 70BD     		pop	{r4, r5, r6, pc}
 500              		.cfi_endproc
 501              	.LFE5:
 502              		.size	chMBPostAhead, .-chMBPostAhead
 503 0028 AFF30080 		.section	.text.chMBPostAheadI,"ax",%progbits
 503      AFF30080 
 504              		.align	2
 505              		.p2align 4,,15
ARM GAS  C:\DOCUME~1\z_80\LOCALS~1\Temp\cc1Xj2RV.s 			page 10


 506              		.global	chMBPostAheadI
 507              		.thumb
 508              		.thumb_func
 509              		.type	chMBPostAheadI, %function
 510              	chMBPostAheadI:
 511              	.LFB7:
 512              		.loc 1 274 0
 513              		.cfi_startproc
 514              		@ args = 0, pretend = 0, frame = 0
 515              		@ frame_needed = 0, uses_anonymous_args = 0
 516              	.LVL26:
 517 0000 38B5     		push	{r3, r4, r5, lr}
 518              	.LCFI7:
 519              		.cfi_def_cfa_offset 16
 520              		.loc 1 274 0
 521 0002 0446     		mov	r4, r0
 522              		.cfi_offset 14, -4
 523              		.cfi_offset 5, -8
 524              		.cfi_offset 4, -12
 525              		.cfi_offset 3, -16
 526 0004 0D46     		mov	r5, r1
 527              		.loc 1 276 0
 528 0006 FFF7FEFF 		bl	chDbgCheckClassI
 529              	.LVL27:
 530              		.loc 1 277 0
 531 000a BCB1     		cbz	r4, .L42
 532              	.L38:
 533              		.loc 1 279 0
 534 000c 636A     		ldr	r3, [r4, #36]
 535 000e 002B     		cmp	r3, #0
 536 0010 11DD     		ble	.L41
 537              		.loc 1 282 0
 538 0012 E268     		ldr	r2, [r4, #12]
 539 0014 2168     		ldr	r1, [r4, #0]
 540 0016 043A     		subs	r2, r2, #4
 541              		.loc 1 281 0
 542 0018 013B     		subs	r3, r3, #1
 543              		.loc 1 282 0
 544 001a 8A42     		cmp	r2, r1
 545              		.loc 1 281 0
 546 001c 6362     		str	r3, [r4, #36]
 547              		.loc 1 282 0
 548 001e E260     		str	r2, [r4, #12]
 549 0020 02D2     		bcs	.L40
 550              		.loc 1 283 0
 551 0022 6068     		ldr	r0, [r4, #4]
 552 0024 021F     		subs	r2, r0, #4
 553 0026 E260     		str	r2, [r4, #12]
 554              	.L40:
 555              		.loc 1 285 0
 556 0028 04F11000 		add	r0, r4, #16
 557              		.loc 1 284 0
 558 002c 1560     		str	r5, [r2, #0]
 559              		.loc 1 285 0
 560 002e FFF7FEFF 		bl	chSemSignalI
 561              		.loc 1 286 0
 562 0032 0020     		movs	r0, #0
ARM GAS  C:\DOCUME~1\z_80\LOCALS~1\Temp\cc1Xj2RV.s 			page 11


 563 0034 38BD     		pop	{r3, r4, r5, pc}
 564              	.L41:
 565              		.loc 1 280 0
 566 0036 4FF0FF30 		mov	r0, #-1
 567              		.loc 1 287 0
 568 003a 38BD     		pop	{r3, r4, r5, pc}
 569              	.L42:
 570              		.loc 1 277 0 discriminator 1
 571 003c 0148     		ldr	r0, .L43
 572 003e FFF7FEFF 		bl	chDbgPanic
 573 0042 E3E7     		b	.L38
 574              	.L44:
 575              		.align	2
 576              	.L43:
 577 0044 54000000 		.word	.LC5
 578              		.cfi_endproc
 579              	.LFE7:
 580              		.size	chMBPostAheadI, .-chMBPostAheadI
 581 0048 AFF30080 		.section	.text.chMBFetchS,"ax",%progbits
 581      AFF30080 
 582              		.align	2
 583              		.p2align 4,,15
 584              		.global	chMBFetchS
 585              		.thumb
 586              		.thumb_func
 587              		.type	chMBFetchS, %function
 588              	chMBFetchS:
 589              	.LFB9:
 590              		.loc 1 336 0
 591              		.cfi_startproc
 592              		@ args = 0, pretend = 0, frame = 0
 593              		@ frame_needed = 0, uses_anonymous_args = 0
 594              	.LVL28:
 595 0000 70B5     		push	{r4, r5, r6, lr}
 596              	.LCFI8:
 597              		.cfi_def_cfa_offset 16
 598              		.loc 1 336 0
 599 0002 0446     		mov	r4, r0
 600              		.cfi_offset 14, -4
 601              		.cfi_offset 6, -8
 602              		.cfi_offset 5, -12
 603              		.cfi_offset 4, -16
 604 0004 0D46     		mov	r5, r1
 605 0006 1646     		mov	r6, r2
 606              		.loc 1 339 0
 607 0008 FFF7FEFF 		bl	chDbgCheckClassS
 608              	.LVL29:
 609              		.loc 1 340 0
 610 000c CCB1     		cbz	r4, .L46
 611              		.loc 1 340 0 is_stmt 0 discriminator 2
 612 000e C5B1     		cbz	r5, .L46
 613              	.L47:
 614              		.loc 1 342 0 is_stmt 1
 615 0010 3146     		mov	r1, r6
 616 0012 04F11000 		add	r0, r4, #16
 617 0016 FFF7FEFF 		bl	chSemWaitTimeoutS
 618              	.LVL30:
ARM GAS  C:\DOCUME~1\z_80\LOCALS~1\Temp\cc1Xj2RV.s 			page 12


 619              		.loc 1 343 0
 620 001a 0646     		mov	r6, r0
 621              	.LVL31:
 622 001c 78B9     		cbnz	r0, .L48
 623              		.loc 1 344 0
 624 001e E368     		ldr	r3, [r4, #12]
 625              		.loc 1 345 0
 626 0020 6268     		ldr	r2, [r4, #4]
 627              		.loc 1 344 0
 628 0022 53F8041B 		ldr	r1, [r3], #4
 629              		.loc 1 347 0
 630 0026 04F11C00 		add	r0, r4, #28
 631              	.LVL32:
 632              		.loc 1 345 0
 633 002a 9342     		cmp	r3, r2
 634              		.loc 1 344 0
 635 002c 2960     		str	r1, [r5, #0]
 636 002e E360     		str	r3, [r4, #12]
 637              		.loc 1 346 0
 638 0030 24BF     		itt	cs
 639 0032 2368     		ldrcs	r3, [r4, #0]
 640 0034 E360     		strcs	r3, [r4, #12]
 641              		.loc 1 347 0
 642 0036 FFF7FEFF 		bl	chSemSignalI
 643              		.loc 1 348 0
 644 003a FFF7FEFF 		bl	chSchRescheduleS
 645              	.L48:
 646              		.loc 1 351 0
 647 003e 3046     		mov	r0, r6
 648 0040 70BD     		pop	{r4, r5, r6, pc}
 649              	.LVL33:
 650              	.L46:
 651              		.loc 1 340 0 discriminator 1
 652 0042 0248     		ldr	r0, .L50
 653 0044 FFF7FEFF 		bl	chDbgPanic
 654 0048 E2E7     		b	.L47
 655              	.L51:
 656 004a 00BF     		.align	2
 657              	.L50:
 658 004c 68000000 		.word	.LC6
 659              		.cfi_endproc
 660              	.LFE9:
 661              		.size	chMBFetchS, .-chMBFetchS
 662              		.section	.text.chMBFetch,"ax",%progbits
 663              		.align	2
 664              		.p2align 4,,15
 665              		.global	chMBFetch
 666              		.thumb
 667              		.thumb_func
 668              		.type	chMBFetch, %function
 669              	chMBFetch:
 670              	.LFB8:
 671              		.loc 1 308 0
 672              		.cfi_startproc
 673              		@ args = 0, pretend = 0, frame = 0
 674              		@ frame_needed = 0, uses_anonymous_args = 0
 675              	.LVL34:
ARM GAS  C:\DOCUME~1\z_80\LOCALS~1\Temp\cc1Xj2RV.s 			page 13


 676 0000 70B5     		push	{r4, r5, r6, lr}
 677              	.LCFI9:
 678              		.cfi_def_cfa_offset 16
 679              		.loc 1 308 0
 680 0002 0646     		mov	r6, r0
 681              		.cfi_offset 14, -4
 682              		.cfi_offset 6, -8
 683              		.cfi_offset 5, -12
 684              		.cfi_offset 4, -16
 685 0004 0D46     		mov	r5, r1
 686 0006 1446     		mov	r4, r2
 687              		.loc 1 311 0
 688              	@ 311 "../chibios_2.4.x/os/kernel/src/chmboxes.c" 1
 689 0008 FFF7FEFF 		bl      _port_lock
 690              	@ 0 "" 2
 691              		.thumb
 692 000c FFF7FEFF 		bl	dbg_check_lock
 693              	.LVL35:
 694              		.loc 1 312 0
 695 0010 2246     		mov	r2, r4
 696 0012 2946     		mov	r1, r5
 697 0014 3046     		mov	r0, r6
 698 0016 FFF7FEFF 		bl	chMBFetchS
 699 001a 0446     		mov	r4, r0
 700              	.LVL36:
 701              		.loc 1 313 0
 702 001c FFF7FEFF 		bl	dbg_check_unlock
 703              	.LVL37:
 704              	@ 313 "../chibios_2.4.x/os/kernel/src/chmboxes.c" 1
 705 0020 FFF7FEFF 		bl      _port_unlock
 706              	@ 0 "" 2
 707              		.loc 1 315 0
 708              		.thumb
 709 0024 2046     		mov	r0, r4
 710 0026 70BD     		pop	{r4, r5, r6, pc}
 711              		.cfi_endproc
 712              	.LFE8:
 713              		.size	chMBFetch, .-chMBFetch
 714 0028 AFF30080 		.section	.text.chMBFetchI,"ax",%progbits
 714      AFF30080 
 715              		.align	2
 716              		.p2align 4,,15
 717              		.global	chMBFetchI
 718              		.thumb
 719              		.thumb_func
 720              		.type	chMBFetchI, %function
 721              	chMBFetchI:
 722              	.LFB10:
 723              		.loc 1 367 0
 724              		.cfi_startproc
 725              		@ args = 0, pretend = 0, frame = 0
 726              		@ frame_needed = 0, uses_anonymous_args = 0
 727              	.LVL38:
 728 0000 38B5     		push	{r3, r4, r5, lr}
 729              	.LCFI10:
 730              		.cfi_def_cfa_offset 16
 731              		.loc 1 367 0
ARM GAS  C:\DOCUME~1\z_80\LOCALS~1\Temp\cc1Xj2RV.s 			page 14


 732 0002 0446     		mov	r4, r0
 733              		.cfi_offset 14, -4
 734              		.cfi_offset 5, -8
 735              		.cfi_offset 4, -12
 736              		.cfi_offset 3, -16
 737 0004 0D46     		mov	r5, r1
 738              		.loc 1 369 0
 739 0006 FFF7FEFF 		bl	chDbgCheckClassI
 740              	.LVL39:
 741              		.loc 1 370 0
 742 000a B4B1     		cbz	r4, .L54
 743              		.loc 1 370 0 is_stmt 0 discriminator 2
 744 000c ADB1     		cbz	r5, .L54
 745              		.loc 1 372 0 is_stmt 1
 746 000e A369     		ldr	r3, [r4, #24]
 747 0010 002B     		cmp	r3, #0
 748 0012 18DD     		ble	.L58
 749              	.L59:
 750              		.loc 1 375 0
 751 0014 E268     		ldr	r2, [r4, #12]
 752              		.loc 1 374 0
 753 0016 581E     		subs	r0, r3, #1
 754 0018 A061     		str	r0, [r4, #24]
 755              		.loc 1 375 0
 756 001a 52F8041B 		ldr	r1, [r2], #4
 757              		.loc 1 376 0
 758 001e 6368     		ldr	r3, [r4, #4]
 759              		.loc 1 378 0
 760 0020 04F11C00 		add	r0, r4, #28
 761              		.loc 1 376 0
 762 0024 9A42     		cmp	r2, r3
 763              		.loc 1 377 0
 764 0026 28BF     		it	cs
 765 0028 2368     		ldrcs	r3, [r4, #0]
 766              		.loc 1 375 0
 767 002a 2960     		str	r1, [r5, #0]
 768 002c E260     		str	r2, [r4, #12]
 769              		.loc 1 377 0
 770 002e 28BF     		it	cs
 771 0030 E360     		strcs	r3, [r4, #12]
 772              		.loc 1 378 0
 773 0032 FFF7FEFF 		bl	chSemSignalI
 774              		.loc 1 379 0
 775 0036 0020     		movs	r0, #0
 776 0038 38BD     		pop	{r3, r4, r5, pc}
 777              	.L54:
 778              		.loc 1 370 0 discriminator 1
 779 003a 0448     		ldr	r0, .L60
 780 003c FFF7FEFF 		bl	chDbgPanic
 781              		.loc 1 372 0 discriminator 1
 782 0040 A369     		ldr	r3, [r4, #24]
 783 0042 002B     		cmp	r3, #0
 784 0044 E6DC     		bgt	.L59
 785              	.L58:
 786              		.loc 1 373 0
 787 0046 4FF0FF30 		mov	r0, #-1
 788              		.loc 1 380 0
ARM GAS  C:\DOCUME~1\z_80\LOCALS~1\Temp\cc1Xj2RV.s 			page 15


 789 004a 38BD     		pop	{r3, r4, r5, pc}
 790              	.L61:
 791              		.align	2
 792              	.L60:
 793 004c 78000000 		.word	.LC7
 794              		.cfi_endproc
 795              	.LFE10:
 796              		.size	chMBFetchI, .-chMBFetchI
 797              		.section	.rodata.str1.4,"aMS",%progbits,1
 798              		.align	2
 799              	.LC0:
 800 0000 2263684D 		.ascii	"\"chMBInit\"()\000"
 800      42496E69 
 800      74222829 
 800      00
 801 000d 000000   		.space	3
 802              	.LC1:
 803 0010 2263684D 		.ascii	"\"chMBReset\"()\000"
 803      42526573 
 803      65742228 
 803      2900
 804 001e 0000     		.space	2
 805              	.LC2:
 806 0020 2263684D 		.ascii	"\"chMBPostS\"()\000"
 806      42506F73 
 806      74532228 
 806      2900
 807 002e 0000     		.space	2
 808              	.LC3:
 809 0030 2263684D 		.ascii	"\"chMBPostI\"()\000"
 809      42506F73 
 809      74492228 
 809      2900
 810 003e 0000     		.space	2
 811              	.LC4:
 812 0040 2263684D 		.ascii	"\"chMBPostAheadS\"()\000"
 812      42506F73 
 812      74416865 
 812      61645322 
 812      282900
 813 0053 00       		.space	1
 814              	.LC5:
 815 0054 2263684D 		.ascii	"\"chMBPostAheadI\"()\000"
 815      42506F73 
 815      74416865 
 815      61644922 
 815      282900
 816 0067 00       		.space	1
 817              	.LC6:
 818 0068 2263684D 		.ascii	"\"chMBFetchS\"()\000"
 818      42466574 
 818      63685322 
 818      282900
 819 0077 00       		.space	1
 820              	.LC7:
 821 0078 2263684D 		.ascii	"\"chMBFetchI\"()\000"
 821      42466574 
ARM GAS  C:\DOCUME~1\z_80\LOCALS~1\Temp\cc1Xj2RV.s 			page 16


 821      63684922 
 821      282900
 822 0087 00       		.text
 823              	.Letext0: