ARM GAS  /tmp/cc8BPIAS.s 			page 1


   1              		.syntax unified
   2              		.cpu cortex-m3
   3              		.fpu softvfp
   4              		.eabi_attribute 20, 1
   5              		.eabi_attribute 21, 1
   6              		.eabi_attribute 23, 3
   7              		.eabi_attribute 24, 1
   8              		.eabi_attribute 25, 1
   9              		.eabi_attribute 26, 1
  10              		.eabi_attribute 30, 2
  11              		.eabi_attribute 18, 4
  12              		.thumb
  13              		.file	"chmempools.c"
  20 0000 80010000 		.text
  20      0200E700 
  20      00000201 
  20      FB0E0D00 
  20      01010101 
  21              	.Ltext0:
  22              		.cfi_sections	.debug_frame
  23              		.section	.text.chPoolInit,"ax",%progbits
  24              		.align	2
  25              		.p2align 4,,15
  26              		.global	chPoolInit
  27              		.thumb
  28              		.thumb_func
  29              		.type	chPoolInit, %function
  30              	chPoolInit:
  31              	.LFB0:
  32              		.file 1 "../chibios_2.4.x/os/kernel/src/chmempools.c"
  33              		.loc 1 61 0
  34              		.cfi_startproc
  35              		@ args = 0, pretend = 0, frame = 0
  36              		@ frame_needed = 0, uses_anonymous_args = 0
  37              	.LVL0:
  38 0000 70B5     		push	{r4, r5, r6, lr}
  39              	.LCFI0:
  40              		.cfi_def_cfa_offset 16
  41              		.loc 1 63 0
  42 0002 0446     		mov	r4, r0
  43              		.cfi_offset 14, -4
  44              		.cfi_offset 6, -8
  45              		.cfi_offset 5, -12
  46              		.cfi_offset 4, -16
  47              		.loc 1 61 0
  48 0004 0D46     		mov	r5, r1
  49 0006 1646     		mov	r6, r2
  50              		.loc 1 63 0
  51 0008 08B1     		cbz	r0, .L2
  52              		.loc 1 63 0 is_stmt 0 discriminator 2
  53 000a 0329     		cmp	r1, #3
ARM GAS  /tmp/cc8BPIAS.s 			page 2


  54 000c 02D8     		bhi	.L3
  55              	.L2:
  56              		.loc 1 63 0 discriminator 1
  57 000e 0548     		ldr	r0, .L5
  58              	.LVL1:
  59 0010 FFF7FEFF 		bl	chDbgPanic
  60              	.LVL2:
  61              	.L3:
  62              		.loc 1 66 0 is_stmt 1
  63 0014 0735     		adds	r5, r5, #7
  64              	.LVL3:
  65 0016 25F00705 		bic	r5, r5, #7
  66              	.LVL4:
  67              		.loc 1 65 0
  68 001a 0023     		movs	r3, #0
  69 001c 2360     		str	r3, [r4, #0]
  70              		.loc 1 66 0
  71 001e 6560     		str	r5, [r4, #4]
  72              		.loc 1 67 0
  73 0020 A660     		str	r6, [r4, #8]
  74              		.loc 1 68 0
  75 0022 70BD     		pop	{r4, r5, r6, pc}
  76              	.L6:
  77              		.align	2
  78              	.L5:
  79 0024 00000000 		.word	.LC0
  80              		.cfi_endproc
  81              	.LFE0:
  82              		.size	chPoolInit, .-chPoolInit
  83 0028 AFF30080 		.section	.text.chPoolAllocI,"ax",%progbits
  83      AFF30080 
  84              		.align	2
  85              		.p2align 4,,15
  86              		.global	chPoolAllocI
  87              		.thumb
  88              		.thumb_func
  89              		.type	chPoolAllocI, %function
  90              	chPoolAllocI:
  91              	.LFB1:
  92              		.loc 1 79 0
  93              		.cfi_startproc
  94              		@ args = 0, pretend = 0, frame = 0
  95              		@ frame_needed = 0, uses_anonymous_args = 0
  96              	.LVL5:
  97 0000 10B5     		push	{r4, lr}
  98              	.LCFI1:
  99              		.cfi_def_cfa_offset 8
 100              		.loc 1 79 0
 101 0002 0446     		mov	r4, r0
 102              		.cfi_offset 14, -4
 103              		.cfi_offset 4, -8
 104              		.loc 1 82 0
 105 0004 FFF7FEFF 		bl	chDbgCheckClassI
 106              	.LVL6:
 107              		.loc 1 83 0
 108 0008 4CB1     		cbz	r4, .L11
 109              	.L8:
ARM GAS  /tmp/cc8BPIAS.s 			page 3


 110              		.loc 1 85 0
 111 000a 2068     		ldr	r0, [r4, #0]
 112              	.LVL7:
 113 000c 10B1     		cbz	r0, .L9
 114              		.loc 1 86 0
 115 000e 0368     		ldr	r3, [r0, #0]
 116 0010 2360     		str	r3, [r4, #0]
 117 0012 10BD     		pop	{r4, pc}
 118              	.L9:
 119              		.loc 1 87 0
 120 0014 A368     		ldr	r3, [r4, #8]
 121 0016 0BB1     		cbz	r3, .L10
 122              		.loc 1 88 0
 123 0018 6068     		ldr	r0, [r4, #4]
 124 001a 9847     		blx	r3
 125              	.LVL8:
 126              	.L10:
 127              		.loc 1 90 0
 128 001c 10BD     		pop	{r4, pc}
 129              	.LVL9:
 130              	.L11:
 131              		.loc 1 83 0 discriminator 1
 132 001e 0248     		ldr	r0, .L12
 133 0020 FFF7FEFF 		bl	chDbgPanic
 134 0024 F1E7     		b	.L8
 135              	.L13:
 136 0026 00BF     		.align	2
 137              	.L12:
 138 0028 10000000 		.word	.LC1
 139              		.cfi_endproc
 140              	.LFE1:
 141              		.size	chPoolAllocI, .-chPoolAllocI
 142 002c AFF30080 		.section	.text.chPoolAlloc,"ax",%progbits
 143              		.align	2
 144              		.p2align 4,,15
 145              		.global	chPoolAlloc
 146              		.thumb
 147              		.thumb_func
 148              		.type	chPoolAlloc, %function
 149              	chPoolAlloc:
 150              	.LFB2:
 151              		.loc 1 101 0
 152              		.cfi_startproc
 153              		@ args = 0, pretend = 0, frame = 0
 154              		@ frame_needed = 0, uses_anonymous_args = 0
 155              	.LVL10:
 156 0000 10B5     		push	{r4, lr}
 157              	.LCFI2:
 158              		.cfi_def_cfa_offset 8
 159              		.loc 1 101 0
 160 0002 0446     		mov	r4, r0
 161              		.cfi_offset 14, -4
 162              		.cfi_offset 4, -8
 163              		.loc 1 104 0
 164              	@ 104 "../chibios_2.4.x/os/kernel/src/chmempools.c" 1
 165 0004 FFF7FEFF 		bl      _port_lock
 166              	@ 0 "" 2
ARM GAS  /tmp/cc8BPIAS.s 			page 4


 167              		.thumb
 168 0008 FFF7FEFF 		bl	dbg_check_lock
 169              	.LVL11:
 170              		.loc 1 105 0
 171 000c 2046     		mov	r0, r4
 172 000e FFF7FEFF 		bl	chPoolAllocI
 173 0012 0446     		mov	r4, r0
 174              	.LVL12:
 175              		.loc 1 106 0
 176 0014 FFF7FEFF 		bl	dbg_check_unlock
 177              	.LVL13:
 178              	@ 106 "../chibios_2.4.x/os/kernel/src/chmempools.c" 1
 179 0018 FFF7FEFF 		bl      _port_unlock
 180              	@ 0 "" 2
 181              		.loc 1 108 0
 182              		.thumb
 183 001c 2046     		mov	r0, r4
 184 001e 10BD     		pop	{r4, pc}
 185              		.cfi_endproc
 186              	.LFE2:
 187              		.size	chPoolAlloc, .-chPoolAlloc
 188              		.section	.text.chPoolFreeI,"ax",%progbits
 189              		.align	2
 190              		.p2align 4,,15
 191              		.global	chPoolFreeI
 192              		.thumb
 193              		.thumb_func
 194              		.type	chPoolFreeI, %function
 195              	chPoolFreeI:
 196              	.LFB3:
 197              		.loc 1 122 0
 198              		.cfi_startproc
 199              		@ args = 0, pretend = 0, frame = 0
 200              		@ frame_needed = 0, uses_anonymous_args = 0
 201              	.LVL14:
 202 0000 38B5     		push	{r3, r4, r5, lr}
 203              	.LCFI3:
 204              		.cfi_def_cfa_offset 16
 205              		.loc 1 122 0
 206 0002 0446     		mov	r4, r0
 207              		.cfi_offset 14, -4
 208              		.cfi_offset 5, -8
 209              		.cfi_offset 4, -12
 210              		.cfi_offset 3, -16
 211 0004 0D46     		mov	r5, r1
 212              	.LVL15:
 213              		.loc 1 125 0
 214 0006 FFF7FEFF 		bl	chDbgCheckClassI
 215              	.LVL16:
 216              		.loc 1 126 0
 217 000a 1CB1     		cbz	r4, .L16
 218              		.loc 1 126 0 is_stmt 0 discriminator 2
 219 000c 15B1     		cbz	r5, .L16
 220              		.loc 1 126 0 discriminator 3
 221 000e 15F0070F 		tst	r5, #7
 222 0012 02D0     		beq	.L17
 223              	.LVL17:
ARM GAS  /tmp/cc8BPIAS.s 			page 5


 224              	.L16:
 225              		.loc 1 126 0 discriminator 1
 226 0014 0348     		ldr	r0, .L18
 227 0016 FFF7FEFF 		bl	chDbgPanic
 228              	.L17:
 229              		.loc 1 129 0 is_stmt 1
 230 001a 2368     		ldr	r3, [r4, #0]
 231 001c 2B60     		str	r3, [r5, #0]
 232              		.loc 1 130 0
 233 001e 2560     		str	r5, [r4, #0]
 234              		.loc 1 131 0
 235 0020 38BD     		pop	{r3, r4, r5, pc}
 236              	.L19:
 237 0022 00BF     		.align	2
 238              	.L18:
 239 0024 24000000 		.word	.LC2
 240              		.cfi_endproc
 241              	.LFE3:
 242              		.size	chPoolFreeI, .-chPoolFreeI
 243 0028 AFF30080 		.section	.text.chPoolFree,"ax",%progbits
 243      AFF30080 
 244              		.align	2
 245              		.p2align 4,,15
 246              		.global	chPoolFree
 247              		.thumb
 248              		.thumb_func
 249              		.type	chPoolFree, %function
 250              	chPoolFree:
 251              	.LFB4:
 252              		.loc 1 145 0
 253              		.cfi_startproc
 254              		@ args = 0, pretend = 0, frame = 0
 255              		@ frame_needed = 0, uses_anonymous_args = 0
 256              	.LVL18:
 257 0000 38B5     		push	{r3, r4, r5, lr}
 258              	.LCFI4:
 259              		.cfi_def_cfa_offset 16
 260              		.loc 1 145 0
 261 0002 0546     		mov	r5, r0
 262              		.cfi_offset 14, -4
 263              		.cfi_offset 5, -8
 264              		.cfi_offset 4, -12
 265              		.cfi_offset 3, -16
 266 0004 0C46     		mov	r4, r1
 267              		.loc 1 147 0
 268              	@ 147 "../chibios_2.4.x/os/kernel/src/chmempools.c" 1
 269 0006 FFF7FEFF 		bl      _port_lock
 270              	@ 0 "" 2
 271              		.thumb
 272 000a FFF7FEFF 		bl	dbg_check_lock
 273              	.LVL19:
 274              		.loc 1 148 0
 275 000e 2846     		mov	r0, r5
 276 0010 2146     		mov	r1, r4
 277 0012 FFF7FEFF 		bl	chPoolFreeI
 278              		.loc 1 149 0
 279 0016 FFF7FEFF 		bl	dbg_check_unlock
ARM GAS  /tmp/cc8BPIAS.s 			page 6


 280              	@ 149 "../chibios_2.4.x/os/kernel/src/chmempools.c" 1
 281 001a FFF7FEFF 		bl      _port_unlock
 282              	@ 0 "" 2
 283              		.loc 1 150 0
 284              		.thumb
 285 001e 38BD     		pop	{r3, r4, r5, pc}
 286              		.cfi_endproc
 287              	.LFE4:
 288              		.size	chPoolFree, .-chPoolFree
 289              		.section	.rodata.str1.4,"aMS",%progbits,1
 290              		.align	2
 291              	.LC0:
 292 0000 22636850 		.ascii	"\"chPoolInit\"()\000"
 292      6F6F6C49 
 292      6E697422 
 292      282900
 293 000f 00       		.space	1
 294              	.LC1:
 295 0010 22636850 		.ascii	"\"chPoolAllocI\"()\000"
 295      6F6F6C41 
 295      6C6C6F63 
 295      49222829 
 295      00
 296 0021 000000   		.space	3
 297              	.LC2:
 298 0024 22636850 		.ascii	"\"chPoolFreeI\"()\000"
 298      6F6F6C46 
 298      72656549 
 298      22282900 
 299              		.text
 300              	.Letext0: