ARM GAS  C:\DOCUME~1\z_80\LOCALS~1\Temp\ccW0M81v.s 			page 1


   1              		.syntax unified
   2              		.cpu cortex-m3
   3              		.fpu softvfp
   4              		.eabi_attribute 20, 1
   5              		.eabi_attribute 21, 1
   6              		.eabi_attribute 23, 3
   7              		.eabi_attribute 24, 1
   8              		.eabi_attribute 25, 1
   9              		.eabi_attribute 26, 1
  10              		.eabi_attribute 30, 2
  11              		.eabi_attribute 18, 4
  12              		.thumb
  13              		.file	"chschd.c"
  14              		.section	.debug_abbrev,"",%progbits
  15              	.Ldebug_abbrev0:
  16              		.section	.debug_info,"",%progbits
  17              	.Ldebug_info0:
  18              		.section	.debug_line,"",%progbits
  19              	.Ldebug_line0:
  20 0000 A8020000 		.text
  20      02006401 
  20      00000201 
  20      FB0E0D00 
  20      01010101 
  21              	.Ltext0:
  22              		.cfi_sections	.debug_frame
  23              		.section	.text._scheduler_init,"ax",%progbits
  24              		.align	2
  25              		.p2align 4,,15
  26              		.global	_scheduler_init
  27              		.thumb
  28              		.thumb_func
  29              		.type	_scheduler_init, %function
  30              	_scheduler_init:
  31              	.LFB0:
  32              		.file 1 "../chibios_2.4.x/os/kernel/src/chschd.c"
  33              		.loc 1 55 0
  34              		.cfi_startproc
  35              		@ args = 0, pretend = 0, frame = 0
  36              		@ frame_needed = 0, uses_anonymous_args = 0
  37              		@ link register save eliminated.
  38              		.loc 1 57 0
  39 0000 044B     		ldr	r3, .L2
  40              		.loc 1 58 0
  41 0002 0020     		movs	r0, #0
  42              		.loc 1 60 0
  43 0004 1422     		movs	r2, #20
  44              		.loc 1 57 0
  45 0006 5B60     		str	r3, [r3, #4]
  46 0008 1B60     		str	r3, [r3, #0]
  47              		.loc 1 58 0
  48 000a 9860     		str	r0, [r3, #8]
  49              		.loc 1 60 0
  50 000c 9A61     		str	r2, [r3, #24]
  51              		.loc 1 63 0
  52 000e 5B61     		str	r3, [r3, #20]
  53 0010 1B61     		str	r3, [r3, #16]
ARM GAS  C:\DOCUME~1\z_80\LOCALS~1\Temp\ccW0M81v.s 			page 2


  54              		.loc 1 65 0
  55 0012 7047     		bx	lr
  56              	.L3:
  57              		.align	2
  58              	.L2:
  59 0014 00000000 		.word	.LANCHOR0
  60              		.cfi_endproc
  61              	.LFE0:
  62              		.size	_scheduler_init, .-_scheduler_init
  63 0018 AFF30080 		.section	.text.chSchReadyI,"ax",%progbits
  63      AFF30080 
  64              		.align	2
  65              		.p2align 4,,15
  66              		.global	chSchReadyI
  67              		.thumb
  68              		.thumb_func
  69              		.type	chSchReadyI, %function
  70              	chSchReadyI:
  71              	.LFB1:
  72              		.loc 1 82 0
  73              		.cfi_startproc
  74              		@ args = 0, pretend = 0, frame = 0
  75              		@ frame_needed = 0, uses_anonymous_args = 0
  76              	.LVL0:
  77 0000 10B5     		push	{r4, lr}
  78              	.LCFI0:
  79              		.cfi_def_cfa_offset 8
  80              		.loc 1 86 0
  81 0002 90F82030 		ldrb	r3, [r0, #32]	@ zero_extendqisi2
  82              		.loc 1 82 0
  83 0006 0446     		mov	r4, r0
  84              		.cfi_offset 14, -4
  85              		.cfi_offset 4, -8
  86              		.loc 1 86 0
  87 0008 8BB1     		cbz	r3, .L5
  88              		.loc 1 86 0 is_stmt 0 discriminator 2
  89 000a 0E2B     		cmp	r3, #14
  90 000c 0FD0     		beq	.L5
  91              	.LVL1:
  92              	.L6:
  93              		.loc 1 91 0 is_stmt 1
  94 000e 0022     		movs	r2, #0
  95              		.loc 1 92 0
  96 0010 094B     		ldr	r3, .L10
  97              	.LVL2:
  98 0012 A168     		ldr	r1, [r4, #8]
  99              		.loc 1 91 0
 100 0014 84F82020 		strb	r2, [r4, #32]
 101              	.LVL3:
 102              	.L7:
 103              		.loc 1 94 0 discriminator 1
 104 0018 1B68     		ldr	r3, [r3, #0]
 105              	.LVL4:
 106              		.loc 1 95 0 discriminator 1
 107 001a 9868     		ldr	r0, [r3, #8]
 108 001c 8842     		cmp	r0, r1
 109 001e FBD2     		bcs	.L7
ARM GAS  C:\DOCUME~1\z_80\LOCALS~1\Temp\ccW0M81v.s 			page 3


 110              		.loc 1 98 0
 111 0020 5968     		ldr	r1, [r3, #4]
 112              		.loc 1 97 0
 113 0022 2360     		str	r3, [r4, #0]
 114              		.loc 1 98 0
 115 0024 6160     		str	r1, [r4, #4]
 116              		.loc 1 99 0
 117 0026 0C60     		str	r4, [r1, #0]
 118 0028 5C60     		str	r4, [r3, #4]
 119              		.loc 1 101 0
 120 002a 2046     		mov	r0, r4
 121 002c 10BD     		pop	{r4, pc}
 122              	.LVL5:
 123              	.L5:
 124              		.loc 1 86 0 discriminator 1
 125 002e 0348     		ldr	r0, .L10+4
 126 0030 FFF7FEFF 		bl	chDbgPanic
 127 0034 EBE7     		b	.L6
 128              	.L11:
 129 0036 00BF     		.align	2
 130              	.L10:
 131 0038 00000000 		.word	.LANCHOR0
 132 003c 00000000 		.word	.LC0
 133              		.cfi_endproc
 134              	.LFE1:
 135              		.size	chSchReadyI, .-chSchReadyI
 136              		.section	.text.wakeup,"ax",%progbits
 137              		.align	2
 138              		.p2align 4,,15
 139              		.thumb
 140              		.thumb_func
 141              		.type	wakeup, %function
 142              	wakeup:
 143              	.LFB3:
 144              		.loc 1 133 0
 145              		.cfi_startproc
 146              		@ args = 0, pretend = 0, frame = 0
 147              		@ frame_needed = 0, uses_anonymous_args = 0
 148              	.LVL6:
 149 0000 10B5     		push	{r4, lr}
 150              	.LCFI1:
 151              		.cfi_def_cfa_offset 8
 152              		.loc 1 136 0
 153 0002 90F82030 		ldrb	r3, [r0, #32]	@ zero_extendqisi2
 154              		.loc 1 133 0
 155 0006 0446     		mov	r4, r0
 156              		.cfi_offset 14, -4
 157              		.cfi_offset 4, -8
 158              	.LVL7:
 159              		.loc 1 136 0
 160 0008 0D2B     		cmp	r3, #13
 161 000a 0FD8     		bhi	.L13
 162 000c DFE803F0 		tbb	[pc, r3]
 163              	.L17:
 164 0010 16       		.byte	(.L12-.L17)/2
 165 0011 0E       		.byte	(.L13-.L17)/2
 166 0012 0E       		.byte	(.L13-.L17)/2
ARM GAS  C:\DOCUME~1\z_80\LOCALS~1\Temp\ccW0M81v.s 			page 4


 167 0013 07       		.byte	(.L15-.L17)/2
 168 0014 0E       		.byte	(.L13-.L17)/2
 169 0015 0B       		.byte	(.L16-.L17)/2
 170 0016 0E       		.byte	(.L13-.L17)/2
 171 0017 0E       		.byte	(.L13-.L17)/2
 172 0018 0E       		.byte	(.L13-.L17)/2
 173 0019 0E       		.byte	(.L13-.L17)/2
 174 001a 0E       		.byte	(.L13-.L17)/2
 175 001b 0E       		.byte	(.L13-.L17)/2
 176 001c 0E       		.byte	(.L13-.L17)/2
 177 001d 0B       		.byte	(.L16-.L17)/2
 178              		.align	1
 179              	.LVL8:
 180              	.L15:
 181              		.loc 1 145 0
 182 001e 806A     		ldr	r0, [r0, #40]
 183              	.LVL9:
 184 0020 8168     		ldr	r1, [r0, #8]
 185 0022 4A1C     		adds	r2, r1, #1
 186 0024 8260     		str	r2, [r0, #8]
 187              	.L16:
 188              		.loc 1 155 0
 189 0026 2046     		mov	r0, r4
 190 0028 FFF7FEFF 		bl	dequeue
 191              	.L13:
 192              		.loc 1 158 0
 193 002c 4FF0FF33 		mov	r3, #-1
 194              		.loc 1 159 0
 195 0030 2046     		mov	r0, r4
 196              		.loc 1 158 0
 197 0032 A362     		str	r3, [r4, #40]
 198              		.loc 1 160 0
 199 0034 BDE81040 		pop	{r4, lr}
 200              		.loc 1 159 0
 201 0038 FFF7FEBF 		b	chSchReadyI
 202              	.L12:
 203 003c 10BD     		pop	{r4, pc}
 204              		.cfi_endproc
 205              	.LFE3:
 206              		.size	wakeup, .-wakeup
 207 003e 00BF     		.section	.text.chSchGoSleepS,"ax",%progbits
 208              		.align	2
 209              		.p2align 4,,15
 210              		.global	chSchGoSleepS
 211              		.thumb
 212              		.thumb_func
 213              		.type	chSchGoSleepS, %function
 214              	chSchGoSleepS:
 215              	.LFB2:
 216              		.loc 1 114 0
 217              		.cfi_startproc
 218              		@ args = 0, pretend = 0, frame = 0
 219              		@ frame_needed = 0, uses_anonymous_args = 0
 220              	.LVL10:
 221 0000 70B5     		push	{r4, r5, r6, lr}
 222              	.LCFI2:
 223              		.cfi_def_cfa_offset 16
ARM GAS  C:\DOCUME~1\z_80\LOCALS~1\Temp\ccW0M81v.s 			page 5


 224              		.loc 1 119 0
 225 0002 114C     		ldr	r4, .L20
 226              		.cfi_offset 14, -4
 227              		.cfi_offset 6, -8
 228              		.cfi_offset 5, -12
 229              		.cfi_offset 4, -16
 230              		.loc 1 114 0
 231 0004 0646     		mov	r6, r0
 232              		.loc 1 117 0
 233 0006 FFF7FEFF 		bl	chDbgCheckClassS
 234              	.LVL11:
 235              		.loc 1 119 0
 236 000a E569     		ldr	r5, [r4, #28]
 237              	.LVL12:
 238              		.loc 1 121 0
 239 000c 1423     		movs	r3, #20
 240              		.loc 1 119 0
 241 000e 85F82060 		strb	r6, [r5, #32]
 242              		.loc 1 123 0
 243 0012 2046     		mov	r0, r4
 244              		.loc 1 121 0
 245 0014 A361     		str	r3, [r4, #24]
 246              		.loc 1 123 0
 247 0016 FFF7FEFF 		bl	fifo_remove
 248              	.LVL13:
 249              		.loc 1 124 0
 250 001a 0122     		movs	r2, #1
 251              		.loc 1 123 0
 252 001c 0146     		mov	r1, r0
 253              		.loc 1 124 0
 254 001e 80F82020 		strb	r2, [r0, #32]
 255              		.loc 1 125 0
 256 0022 2846     		mov	r0, r5
 257              		.loc 1 123 0
 258 0024 E161     		str	r1, [r4, #28]
 259              		.loc 1 125 0
 260 0026 FFF7FEFF 		bl	dbg_trace
 261              	.LBB2:
 262 002a EA69     		ldr	r2, [r5, #28]
 263 002c ADF12403 		sub	r3, sp, #36
 264 0030 9A42     		cmp	r2, r3
 265 0032 02D9     		bls	.L19
 266              		.loc 1 125 0 is_stmt 0 discriminator 1
 267 0034 0548     		ldr	r0, .L20+4
 268 0036 FFF7FEFF 		bl	chDbgPanic
 269              	.L19:
 270              		.loc 1 125 0 discriminator 2
 271 003a E069     		ldr	r0, [r4, #28]
 272 003c 2946     		mov	r1, r5
 273              	.LBE2:
 274              		.loc 1 126 0 is_stmt 1 discriminator 2
 275 003e BDE87040 		pop	{r4, r5, r6, lr}
 276              	.LBB3:
 277              		.loc 1 125 0 discriminator 2
 278 0042 FFF7FEBF 		b	_port_switch
 279              	.L21:
 280 0046 00BF     		.align	2
ARM GAS  C:\DOCUME~1\z_80\LOCALS~1\Temp\ccW0M81v.s 			page 6


 281              	.L20:
 282 0048 00000000 		.word	.LANCHOR0
 283 004c 14000000 		.word	.LC1
 284              	.LBE3:
 285              		.cfi_endproc
 286              	.LFE2:
 287              		.size	chSchGoSleepS, .-chSchGoSleepS
 288              		.section	.text.chSchGoSleepTimeoutS,"ax",%progbits
 289              		.align	2
 290              		.p2align 4,,15
 291              		.global	chSchGoSleepTimeoutS
 292              		.thumb
 293              		.thumb_func
 294              		.type	chSchGoSleepTimeoutS, %function
 295              	chSchGoSleepTimeoutS:
 296              	.LFB4:
 297              		.loc 1 183 0
 298              		.cfi_startproc
 299              		@ args = 0, pretend = 0, frame = 24
 300              		@ frame_needed = 0, uses_anonymous_args = 0
 301              	.LVL14:
 302 0000 70B5     		push	{r4, r5, r6, lr}
 303              	.LCFI3:
 304              		.cfi_def_cfa_offset 16
 305 0002 0E46     		mov	r6, r1
 306              		.cfi_offset 14, -4
 307              		.cfi_offset 6, -8
 308              		.cfi_offset 5, -12
 309              		.cfi_offset 4, -16
 310 0004 86B0     		sub	sp, sp, #24
 311              	.LCFI4:
 312              		.cfi_def_cfa_offset 40
 313              		.loc 1 183 0
 314 0006 0546     		mov	r5, r0
 315              		.loc 1 185 0
 316 0008 FFF7FEFF 		bl	chDbgCheckClassS
 317              	.LVL15:
 318              		.loc 1 187 0
 319 000c B6F1FF3F 		cmp	r6, #-1
 320 0010 12D0     		beq	.L23
 321              	.LBB4:
 322              		.loc 1 190 0
 323 0012 0C4C     		ldr	r4, .L25
 324 0014 3146     		mov	r1, r6
 325 0016 E369     		ldr	r3, [r4, #28]
 326 0018 0B4A     		ldr	r2, .L25+4
 327 001a 01A8     		add	r0, sp, #4
 328 001c FFF7FEFF 		bl	chVTSetI
 329              		.loc 1 191 0
 330 0020 2846     		mov	r0, r5
 331 0022 FFF7FEFF 		bl	chSchGoSleepS
 332              		.loc 1 192 0
 333 0026 049B     		ldr	r3, [sp, #16]
 334 0028 13B1     		cbz	r3, .L24
 335              		.loc 1 193 0
 336 002a 01A8     		add	r0, sp, #4
 337 002c FFF7FEFF 		bl	chVTResetI
ARM GAS  C:\DOCUME~1\z_80\LOCALS~1\Temp\ccW0M81v.s 			page 7


 338              	.L24:
 339              	.LBE4:
 340              		.loc 1 197 0
 341 0030 E069     		ldr	r0, [r4, #28]
 342              		.loc 1 198 0
 343 0032 806A     		ldr	r0, [r0, #40]
 344 0034 06B0     		add	sp, sp, #24
 345 0036 70BD     		pop	{r4, r5, r6, pc}
 346              	.L23:
 347              		.loc 1 196 0
 348 0038 2846     		mov	r0, r5
 349 003a FFF7FEFF 		bl	chSchGoSleepS
 350 003e 014C     		ldr	r4, .L25
 351 0040 F6E7     		b	.L24
 352              	.L26:
 353 0042 00BF     		.align	2
 354              	.L25:
 355 0044 00000000 		.word	.LANCHOR0
 356 0048 00000000 		.word	wakeup
 357              		.cfi_endproc
 358              	.LFE4:
 359              		.size	chSchGoSleepTimeoutS, .-chSchGoSleepTimeoutS
 360 004c AFF30080 		.section	.text.chSchWakeupS,"ax",%progbits
 361              		.align	2
 362              		.p2align 4,,15
 363              		.global	chSchWakeupS
 364              		.thumb
 365              		.thumb_func
 366              		.type	chSchWakeupS, %function
 367              	chSchWakeupS:
 368              	.LFB5:
 369              		.loc 1 219 0
 370              		.cfi_startproc
 371              		@ args = 0, pretend = 0, frame = 0
 372              		@ frame_needed = 0, uses_anonymous_args = 0
 373              	.LVL16:
 374 0000 70B5     		push	{r4, r5, r6, lr}
 375              	.LCFI5:
 376              		.cfi_def_cfa_offset 16
 377              		.loc 1 228 0
 378 0002 154D     		ldr	r5, .L32
 379              		.cfi_offset 14, -4
 380              		.cfi_offset 6, -8
 381              		.cfi_offset 5, -12
 382              		.cfi_offset 4, -16
 383              		.loc 1 219 0
 384 0004 0446     		mov	r4, r0
 385 0006 0E46     		mov	r6, r1
 386              		.loc 1 221 0
 387 0008 FFF7FEFF 		bl	chDbgCheckClassS
 388              	.LVL17:
 389              		.loc 1 228 0
 390 000c E869     		ldr	r0, [r5, #28]
 391 000e A268     		ldr	r2, [r4, #8]
 392 0010 8368     		ldr	r3, [r0, #8]
 393              		.loc 1 223 0
 394 0012 A662     		str	r6, [r4, #40]
ARM GAS  C:\DOCUME~1\z_80\LOCALS~1\Temp\ccW0M81v.s 			page 8


 395              		.loc 1 228 0
 396 0014 9A42     		cmp	r2, r3
 397 0016 15D9     		bls	.L30
 398              	.LBB5:
 399              		.loc 1 231 0
 400 0018 FFF7FEFF 		bl	chSchReadyI
 401              		.loc 1 236 0
 402 001c 0123     		movs	r3, #1
 403              		.loc 1 233 0
 404 001e 1422     		movs	r2, #20
 405              		.loc 1 231 0
 406 0020 0646     		mov	r6, r0
 407              	.LVL18:
 408              		.loc 1 236 0
 409 0022 84F82030 		strb	r3, [r4, #32]
 410              		.loc 1 233 0
 411 0026 AA61     		str	r2, [r5, #24]
 412              		.loc 1 235 0
 413 0028 EC61     		str	r4, [r5, #28]
 414              		.loc 1 237 0
 415 002a FFF7FEFF 		bl	dbg_trace
 416              	.LVL19:
 417              	.LBB7:
 418 002e F069     		ldr	r0, [r6, #28]
 419 0030 ADF12401 		sub	r1, sp, #36
 420 0034 8842     		cmp	r0, r1
 421 0036 0AD8     		bhi	.L31
 422              	.L29:
 423              		.loc 1 237 0 is_stmt 0 discriminator 2
 424 0038 2046     		mov	r0, r4
 425 003a 3146     		mov	r1, r6
 426              	.LBE7:
 427              	.LBE5:
 428              		.loc 1 239 0 is_stmt 1 discriminator 2
 429 003c BDE87040 		pop	{r4, r5, r6, lr}
 430              	.LBB9:
 431              	.LBB6:
 432              		.loc 1 237 0 discriminator 2
 433 0040 FFF7FEBF 		b	_port_switch
 434              	.LVL20:
 435              	.L30:
 436              	.LBE6:
 437              	.LBE9:
 438              		.loc 1 229 0
 439 0044 2046     		mov	r0, r4
 440              		.loc 1 239 0
 441 0046 BDE87040 		pop	{r4, r5, r6, lr}
 442              		.loc 1 229 0
 443 004a FFF7FEBF 		b	chSchReadyI
 444              	.LVL21:
 445              	.L31:
 446              	.LBB10:
 447              	.LBB8:
 448              		.loc 1 237 0 discriminator 1
 449 004e 0348     		ldr	r0, .L32+4
 450 0050 FFF7FEFF 		bl	chDbgPanic
 451 0054 F0E7     		b	.L29
ARM GAS  C:\DOCUME~1\z_80\LOCALS~1\Temp\ccW0M81v.s 			page 9


 452              	.L33:
 453 0056 00BF     		.align	2
 454              	.L32:
 455 0058 00000000 		.word	.LANCHOR0
 456 005c 14000000 		.word	.LC1
 457              	.LBE8:
 458              	.LBE10:
 459              		.cfi_endproc
 460              	.LFE5:
 461              		.size	chSchWakeupS, .-chSchWakeupS
 462              		.section	.text.chSchDoReschedule,"ax",%progbits
 463              		.align	2
 464              		.p2align 4,,15
 465              		.global	chSchDoReschedule
 466              		.thumb
 467              		.thumb_func
 468              		.type	chSchDoReschedule, %function
 469              	chSchDoReschedule:
 470              	.LFB7:
 471              		.loc 1 298 0
 472              		.cfi_startproc
 473              		@ args = 0, pretend = 0, frame = 0
 474              		@ frame_needed = 0, uses_anonymous_args = 0
 475 0000 70B5     		push	{r4, r5, r6, lr}
 476              	.LCFI6:
 477              		.cfi_def_cfa_offset 16
 478              		.loc 1 302 0
 479 0002 104C     		ldr	r4, .L36
 480              		.cfi_offset 14, -4
 481              		.cfi_offset 6, -8
 482              		.cfi_offset 5, -12
 483              		.cfi_offset 4, -16
 484 0004 1423     		movs	r3, #20
 485              		.loc 1 306 0
 486 0006 2046     		mov	r0, r4
 487              		.loc 1 304 0
 488 0008 E569     		ldr	r5, [r4, #28]
 489              	.LVL22:
 490              		.loc 1 302 0
 491 000a A361     		str	r3, [r4, #24]
 492              		.loc 1 306 0
 493 000c FFF7FEFF 		bl	fifo_remove
 494              	.LVL23:
 495              		.loc 1 307 0
 496 0010 0122     		movs	r2, #1
 497              		.loc 1 306 0
 498 0012 0146     		mov	r1, r0
 499              		.loc 1 307 0
 500 0014 80F82020 		strb	r2, [r0, #32]
 501              		.loc 1 308 0
 502 0018 2846     		mov	r0, r5
 503              		.loc 1 306 0
 504 001a E161     		str	r1, [r4, #28]
 505              		.loc 1 308 0
 506 001c FFF7FEFF 		bl	chSchReadyI
 507              		.loc 1 309 0
 508 0020 2846     		mov	r0, r5
ARM GAS  C:\DOCUME~1\z_80\LOCALS~1\Temp\ccW0M81v.s 			page 10


 509 0022 FFF7FEFF 		bl	dbg_trace
 510              	.LBB11:
 511 0026 EA69     		ldr	r2, [r5, #28]
 512 0028 ADF12403 		sub	r3, sp, #36
 513 002c 9A42     		cmp	r2, r3
 514 002e 02D9     		bls	.L35
 515              		.loc 1 309 0 is_stmt 0 discriminator 1
 516 0030 0548     		ldr	r0, .L36+4
 517 0032 FFF7FEFF 		bl	chDbgPanic
 518              	.L35:
 519              		.loc 1 309 0 discriminator 2
 520 0036 E069     		ldr	r0, [r4, #28]
 521 0038 2946     		mov	r1, r5
 522              	.LBE11:
 523              		.loc 1 310 0 is_stmt 1 discriminator 2
 524 003a BDE87040 		pop	{r4, r5, r6, lr}
 525              	.LBB12:
 526              		.loc 1 309 0 discriminator 2
 527 003e FFF7FEBF 		b	_port_switch
 528              	.L37:
 529 0042 00BF     		.align	2
 530              	.L36:
 531 0044 00000000 		.word	.LANCHOR0
 532 0048 14000000 		.word	.LC1
 533              	.LBE12:
 534              		.cfi_endproc
 535              	.LFE7:
 536              		.size	chSchDoReschedule, .-chSchDoReschedule
 537 004c AFF30080 		.section	.text.chSchRescheduleS,"ax",%progbits
 538              		.align	2
 539              		.p2align 4,,15
 540              		.global	chSchRescheduleS
 541              		.thumb
 542              		.thumb_func
 543              		.type	chSchRescheduleS, %function
 544              	chSchRescheduleS:
 545              	.LFB6:
 546              		.loc 1 250 0
 547              		.cfi_startproc
 548              		@ args = 0, pretend = 0, frame = 0
 549              		@ frame_needed = 0, uses_anonymous_args = 0
 550 0000 10B5     		push	{r4, lr}
 551              	.LCFI7:
 552              		.cfi_def_cfa_offset 8
 553              		.loc 1 252 0
 554              		.cfi_offset 14, -4
 555              		.cfi_offset 4, -8
 556 0002 FFF7FEFF 		bl	chDbgCheckClassS
 557              		.loc 1 254 0
 558 0006 064A     		ldr	r2, .L41
 559 0008 D069     		ldr	r0, [r2, #28]
 560 000a 1168     		ldr	r1, [r2, #0]
 561 000c 8368     		ldr	r3, [r0, #8]
 562 000e 8A68     		ldr	r2, [r1, #8]
 563 0010 9A42     		cmp	r2, r3
 564 0012 00D8     		bhi	.L40
 565 0014 10BD     		pop	{r4, pc}
ARM GAS  C:\DOCUME~1\z_80\LOCALS~1\Temp\ccW0M81v.s 			page 11


 566              	.L40:
 567              		.loc 1 256 0
 568 0016 BDE81040 		pop	{r4, lr}
 569              		.loc 1 255 0
 570 001a FFF7FEBF 		b	chSchDoReschedule
 571              	.L42:
 572 001e 00BF     		.align	2
 573              	.L41:
 574 0020 00000000 		.word	.LANCHOR0
 575              		.cfi_endproc
 576              	.LFE6:
 577              		.size	chSchRescheduleS, .-chSchRescheduleS
 578              		.global	rlist
 579 0024 AFF30080 		.section	.rodata.str1.4,"aMS",%progbits,1
 579      AFF30080 
 579      AFF30080 
 580              		.align	2
 581              	.LC0:
 582 0000 63685363 		.ascii	"chSchReadyI(), #1\000"
 582      68526561 
 582      64794928 
 582      292C2023 
 582      3100
 583 0012 0000     		.space	2
 584              	.LC1:
 585 0014 73746163 		.ascii	"stack overflow\000"
 585      6B206F76 
 585      6572666C 
 585      6F7700
 586 0023 00       		.section	.bss.rlist,"aw",%nobits
 587              		.align	2
 588              		.set	.LANCHOR0,. + 0
 589              		.type	rlist, %object
 590              		.size	rlist, 32
 591              	rlist:
 592 0000 00000000 		.space	32
 592      00000000 
 592      00000000 
 592      00000000 
 592      00000000 
 593              		.text
 594              	.Letext0:
 595              		.section	.debug_loc,"",%progbits
 596              	.Ldebug_loc0:
 597              	.LLST0:
 598 0000 00000000 		.4byte	.LFB1
 599 0004 02000000 		.4byte	.LCFI0
 600 0008 0200     		.2byte	0x2
 601 000a 7D       		.byte	0x7d
 602 000b 00       		.sleb128 0
 603 000c 02000000 		.4byte	.LCFI0
 604 0010 40000000 		.4byte	.LFE1
 605 0014 0200     		.2byte	0x2
 606 0016 7D       		.byte	0x7d
 607 0017 08       		.sleb128 8
 608 0018 00000000 		.4byte	0x0
 609 001c 00000000 		.4byte	0x0
ARM GAS  C:\DOCUME~1\z_80\LOCALS~1\Temp\ccW0M81v.s 			page 12


 610              	.LLST1:
 611 0020 00000000 		.4byte	.LVL0
 612 0024 0E000000 		.4byte	.LVL1
 613 0028 0100     		.2byte	0x1
 614 002a 50       		.byte	0x50
 615 002b 0E000000 		.4byte	.LVL1
 616 002f 40000000 		.4byte	.LFE1
 617 0033 0100     		.2byte	0x1
 618 0035 54       		.byte	0x54
 619 0036 00000000 		.4byte	0x0
 620 003a 00000000 		.4byte	0x0
 621              	.LLST2:
 622 003e 12000000 		.4byte	.LVL2
 623 0042 18000000 		.4byte	.LVL3
 624 0046 0600     		.2byte	0x6
 625 0048 03       		.byte	0x3
 626 0049 00000000 		.4byte	.LANCHOR0
 627 004d 9F       		.byte	0x9f
 628 004e 18000000 		.4byte	.LVL3
 629 0052 1A000000 		.4byte	.LVL4
 630 0056 0100     		.2byte	0x1
 631 0058 53       		.byte	0x53
 632 0059 1A000000 		.4byte	.LVL4
 633 005d 2E000000 		.4byte	.LVL5
 634 0061 0100     		.2byte	0x1
 635 0063 53       		.byte	0x53
 636 0064 00000000 		.4byte	0x0
 637 0068 00000000 		.4byte	0x0
 638              	.LLST3:
 639 006c 00000000 		.4byte	.LFB3
 640 0070 02000000 		.4byte	.LCFI1
 641 0074 0200     		.2byte	0x2
 642 0076 7D       		.byte	0x7d
 643 0077 00       		.sleb128 0
 644 0078 02000000 		.4byte	.LCFI1
 645 007c 3E000000 		.4byte	.LFE3
 646 0080 0200     		.2byte	0x2
 647 0082 7D       		.byte	0x7d
 648 0083 08       		.sleb128 8
 649 0084 00000000 		.4byte	0x0
 650 0088 00000000 		.4byte	0x0
 651              	.LLST4:
 652 008c 00000000 		.4byte	.LVL6
 653 0090 1E000000 		.4byte	.LVL8
 654 0094 0100     		.2byte	0x1
 655 0096 50       		.byte	0x50
 656 0097 1E000000 		.4byte	.LVL8
 657 009b 20000000 		.4byte	.LVL9
 658 009f 0100     		.2byte	0x1
 659 00a1 50       		.byte	0x50
 660 00a2 20000000 		.4byte	.LVL9
 661 00a6 3E000000 		.4byte	.LFE3
 662 00aa 0100     		.2byte	0x1
 663 00ac 54       		.byte	0x54
 664 00ad 00000000 		.4byte	0x0
 665 00b1 00000000 		.4byte	0x0
 666              	.LLST5:
ARM GAS  C:\DOCUME~1\z_80\LOCALS~1\Temp\ccW0M81v.s 			page 13


 667 00b5 08000000 		.4byte	.LVL7
 668 00b9 20000000 		.4byte	.LVL9
 669 00bd 0100     		.2byte	0x1
 670 00bf 50       		.byte	0x50
 671 00c0 20000000 		.4byte	.LVL9
 672 00c4 3E000000 		.4byte	.LFE3
 673 00c8 0100     		.2byte	0x1
 674 00ca 54       		.byte	0x54
 675 00cb 00000000 		.4byte	0x0
 676 00cf 00000000 		.4byte	0x0
 677              	.LLST6:
 678 00d3 00000000 		.4byte	.LFB2
 679 00d7 02000000 		.4byte	.LCFI2
 680 00db 0200     		.2byte	0x2
 681 00dd 7D       		.byte	0x7d
 682 00de 00       		.sleb128 0
 683 00df 02000000 		.4byte	.LCFI2
 684 00e3 50000000 		.4byte	.LFE2
 685 00e7 0200     		.2byte	0x2
 686 00e9 7D       		.byte	0x7d
 687 00ea 10       		.sleb128 16
 688 00eb 00000000 		.4byte	0x0
 689 00ef 00000000 		.4byte	0x0
 690              	.LLST7:
 691 00f3 00000000 		.4byte	.LVL10
 692 00f7 09000000 		.4byte	.LVL11-1
 693 00fb 0100     		.2byte	0x1
 694 00fd 50       		.byte	0x50
 695 00fe 00000000 		.4byte	0x0
 696 0102 00000000 		.4byte	0x0
 697              	.LLST8:
 698 0106 0C000000 		.4byte	.LVL12
 699 010a 19000000 		.4byte	.LVL13-1
 700 010e 0500     		.2byte	0x5
 701 0110 03       		.byte	0x3
 702 0111 1C000000 		.4byte	rlist+28
 703 0115 19000000 		.4byte	.LVL13-1
 704 0119 50000000 		.4byte	.LFE2
 705 011d 0100     		.2byte	0x1
 706 011f 55       		.byte	0x55
 707 0120 00000000 		.4byte	0x0
 708 0124 00000000 		.4byte	0x0
 709              	.LLST9:
 710 0128 00000000 		.4byte	.LFB4
 711 012c 02000000 		.4byte	.LCFI3
 712 0130 0200     		.2byte	0x2
 713 0132 7D       		.byte	0x7d
 714 0133 00       		.sleb128 0
 715 0134 02000000 		.4byte	.LCFI3
 716 0138 06000000 		.4byte	.LCFI4
 717 013c 0200     		.2byte	0x2
 718 013e 7D       		.byte	0x7d
 719 013f 10       		.sleb128 16
 720 0140 06000000 		.4byte	.LCFI4
 721 0144 4C000000 		.4byte	.LFE4
 722 0148 0200     		.2byte	0x2
 723 014a 7D       		.byte	0x7d
ARM GAS  C:\DOCUME~1\z_80\LOCALS~1\Temp\ccW0M81v.s 			page 14


 724 014b 28       		.sleb128 40
 725 014c 00000000 		.4byte	0x0
 726 0150 00000000 		.4byte	0x0
 727              	.LLST10:
 728 0154 00000000 		.4byte	.LVL14
 729 0158 0B000000 		.4byte	.LVL15-1
 730 015c 0100     		.2byte	0x1
 731 015e 50       		.byte	0x50
 732 015f 00000000 		.4byte	0x0
 733 0163 00000000 		.4byte	0x0
 734              	.LLST11:
 735 0167 00000000 		.4byte	.LVL14
 736 016b 0B000000 		.4byte	.LVL15-1
 737 016f 0100     		.2byte	0x1
 738 0171 51       		.byte	0x51
 739 0172 0B000000 		.4byte	.LVL15-1
 740 0176 4C000000 		.4byte	.LFE4
 741 017a 0100     		.2byte	0x1
 742 017c 56       		.byte	0x56
 743 017d 00000000 		.4byte	0x0
 744 0181 00000000 		.4byte	0x0
 745              	.LLST12:
 746 0185 00000000 		.4byte	.LFB5
 747 0189 02000000 		.4byte	.LCFI5
 748 018d 0200     		.2byte	0x2
 749 018f 7D       		.byte	0x7d
 750 0190 00       		.sleb128 0
 751 0191 02000000 		.4byte	.LCFI5
 752 0195 60000000 		.4byte	.LFE5
 753 0199 0200     		.2byte	0x2
 754 019b 7D       		.byte	0x7d
 755 019c 10       		.sleb128 16
 756 019d 00000000 		.4byte	0x0
 757 01a1 00000000 		.4byte	0x0
 758              	.LLST13:
 759 01a5 00000000 		.4byte	.LVL16
 760 01a9 0B000000 		.4byte	.LVL17-1
 761 01ad 0100     		.2byte	0x1
 762 01af 50       		.byte	0x50
 763 01b0 0B000000 		.4byte	.LVL17-1
 764 01b4 60000000 		.4byte	.LFE5
 765 01b8 0100     		.2byte	0x1
 766 01ba 54       		.byte	0x54
 767 01bb 00000000 		.4byte	0x0
 768 01bf 00000000 		.4byte	0x0
 769              	.LLST14:
 770 01c3 00000000 		.4byte	.LVL16
 771 01c7 0B000000 		.4byte	.LVL17-1
 772 01cb 0100     		.2byte	0x1
 773 01cd 51       		.byte	0x51
 774 01ce 0B000000 		.4byte	.LVL17-1
 775 01d2 22000000 		.4byte	.LVL18
 776 01d6 0100     		.2byte	0x1
 777 01d8 56       		.byte	0x56
 778 01d9 44000000 		.4byte	.LVL20
 779 01dd 4E000000 		.4byte	.LVL21
 780 01e1 0100     		.2byte	0x1
ARM GAS  C:\DOCUME~1\z_80\LOCALS~1\Temp\ccW0M81v.s 			page 15


 781 01e3 56       		.byte	0x56
 782 01e4 00000000 		.4byte	0x0
 783 01e8 00000000 		.4byte	0x0
 784              	.LLST15:
 785 01ec 22000000 		.4byte	.LVL18
 786 01f0 2D000000 		.4byte	.LVL19-1
 787 01f4 0100     		.2byte	0x1
 788 01f6 50       		.byte	0x50
 789 01f7 2D000000 		.4byte	.LVL19-1
 790 01fb 44000000 		.4byte	.LVL20
 791 01ff 0100     		.2byte	0x1
 792 0201 56       		.byte	0x56
 793 0202 4E000000 		.4byte	.LVL21
 794 0206 60000000 		.4byte	.LFE5
 795 020a 0100     		.2byte	0x1
 796 020c 56       		.byte	0x56
 797 020d 00000000 		.4byte	0x0
 798 0211 00000000 		.4byte	0x0
 799              	.LLST16:
 800 0215 00000000 		.4byte	.LFB7
 801 0219 02000000 		.4byte	.LCFI6
 802 021d 0200     		.2byte	0x2
 803 021f 7D       		.byte	0x7d
 804 0220 00       		.sleb128 0
 805 0221 02000000 		.4byte	.LCFI6
 806 0225 4C000000 		.4byte	.LFE7
 807 0229 0200     		.2byte	0x2
 808 022b 7D       		.byte	0x7d
 809 022c 10       		.sleb128 16
 810 022d 00000000 		.4byte	0x0
 811 0231 00000000 		.4byte	0x0
 812              	.LLST17:
 813 0235 0A000000 		.4byte	.LVL22
 814 0239 0F000000 		.4byte	.LVL23-1
 815 023d 0500     		.2byte	0x5
 816 023f 03       		.byte	0x3
 817 0240 1C000000 		.4byte	rlist+28
 818 0244 0F000000 		.4byte	.LVL23-1
 819 0248 4C000000 		.4byte	.LFE7
 820 024c 0100     		.2byte	0x1
 821 024e 55       		.byte	0x55
 822 024f 00000000 		.4byte	0x0
 823 0253 00000000 		.4byte	0x0
 824              	.LLST18:
 825 0257 00000000 		.4byte	.LFB6
 826 025b 02000000 		.4byte	.LCFI7
 827 025f 0200     		.2byte	0x2
 828 0261 7D       		.byte	0x7d
 829 0262 00       		.sleb128 0
 830 0263 02000000 		.4byte	.LCFI7
 831 0267 24000000 		.4byte	.LFE6
 832 026b 0200     		.2byte	0x2
 833 026d 7D       		.byte	0x7d
 834 026e 08       		.sleb128 8
 835 026f 00000000 		.4byte	0x0
 836 0273 00000000 		.4byte	0x0
 837              		.file 2 "c:\\programs\\codesourcery\\arm-2012.03-56\\bin\\../lib/gcc/arm-none-eabi/4.5.2/../../../
ARM GAS  C:\DOCUME~1\z_80\LOCALS~1\Temp\ccW0M81v.s 			page 16


 838              		.file 3 "../chibios_2.4.x/os/ports/GCC/ARMCMx/chtypes.h"
 839              		.file 4 "../chibios_2.4.x/os/kernel/include/chlists.h"
 840              		.file 5 "../chibios_2.4.x/os/kernel/include/chthreads.h"
 841              		.file 6 "../chibios_2.4.x/os/ports/GCC/ARMCMx/chcore_v7m.h"
 842              		.file 7 "../chibios_2.4.x/os/kernel/include/chvt.h"
 843              		.file 8 "../chibios_2.4.x/os/kernel/include/chschd.h"
 844              		.file 9 "../chibios_2.4.x/os/kernel/include/chsem.h"
 845              		.file 10 "../chibios_2.4.x/os/kernel/include/chmtx.h"
 846              		.section	.debug_info
 847 0000 FE060000 		.4byte	0x6fe
 848 0004 0200     		.2byte	0x2
 849 0006 00000000 		.4byte	.Ldebug_abbrev0
 850 000a 04       		.byte	0x4
 851 000b 01       		.uleb128 0x1
 852 000c 32030000 		.4byte	.LASF84
 853 0010 01       		.byte	0x1
 854 0011 3E010000 		.4byte	.LASF85
 855 0015 16000000 		.4byte	.LASF86
 856 0019 00000000 		.4byte	0x0
 857 001d 00000000 		.4byte	0x0
 858 0021 70000000 		.4byte	.Ldebug_ranges0+0x70
 859 0025 00000000 		.4byte	.Ldebug_line0
 860 0029 02       		.uleb128 0x2
 861 002a 04       		.byte	0x4
 862 002b 05       		.byte	0x5
 863 002c 696E7400 		.ascii	"int\000"
 864 0030 03       		.uleb128 0x3
 865 0031 04       		.byte	0x4
 866 0032 07       		.byte	0x7
 867 0033 0A010000 		.4byte	.LASF0
 868 0037 03       		.uleb128 0x3
 869 0038 01       		.byte	0x1
 870 0039 06       		.byte	0x6
 871 003a 68000000 		.4byte	.LASF1
 872 003e 04       		.uleb128 0x4
 873 003f 23030000 		.4byte	.LASF5
 874 0043 02       		.byte	0x2
 875 0044 2A       		.byte	0x2a
 876 0045 49000000 		.4byte	0x49
 877 0049 03       		.uleb128 0x3
 878 004a 01       		.byte	0x1
 879 004b 08       		.byte	0x8
 880 004c 1E020000 		.4byte	.LASF2
 881 0050 03       		.uleb128 0x3
 882 0051 02       		.byte	0x2
 883 0052 05       		.byte	0x5
 884 0053 3F020000 		.4byte	.LASF3
 885 0057 03       		.uleb128 0x3
 886 0058 02       		.byte	0x2
 887 0059 07       		.byte	0x7
 888 005a 66010000 		.4byte	.LASF4
 889 005e 04       		.uleb128 0x4
 890 005f 16020000 		.4byte	.LASF6
 891 0063 02       		.byte	0x2
 892 0064 4F       		.byte	0x4f
 893 0065 69000000 		.4byte	0x69
 894 0069 03       		.uleb128 0x3
ARM GAS  C:\DOCUME~1\z_80\LOCALS~1\Temp\ccW0M81v.s 			page 17


 895 006a 04       		.byte	0x4
 896 006b 05       		.byte	0x5
 897 006c 9B000000 		.4byte	.LASF7
 898 0070 04       		.uleb128 0x4
 899 0071 8E020000 		.4byte	.LASF8
 900 0075 02       		.byte	0x2
 901 0076 50       		.byte	0x50
 902 0077 7B000000 		.4byte	0x7b
 903 007b 03       		.uleb128 0x3
 904 007c 04       		.byte	0x4
 905 007d 07       		.byte	0x7
 906 007e 26010000 		.4byte	.LASF9
 907 0082 03       		.uleb128 0x3
 908 0083 08       		.byte	0x8
 909 0084 05       		.byte	0x5
 910 0085 5A000000 		.4byte	.LASF10
 911 0089 04       		.uleb128 0x4
 912 008a 0D000000 		.4byte	.LASF11
 913 008e 02       		.byte	0x2
 914 008f 78       		.byte	0x78
 915 0090 94000000 		.4byte	0x94
 916 0094 03       		.uleb128 0x3
 917 0095 08       		.byte	0x8
 918 0096 07       		.byte	0x7
 919 0097 7C000000 		.4byte	.LASF12
 920 009b 04       		.uleb128 0x4
 921 009c 8C010000 		.4byte	.LASF13
 922 00a0 03       		.byte	0x3
 923 00a1 2F       		.byte	0x2f
 924 00a2 3E000000 		.4byte	0x3e
 925 00a6 04       		.uleb128 0x4
 926 00a7 A4000000 		.4byte	.LASF14
 927 00ab 03       		.byte	0x3
 928 00ac 30       		.byte	0x30
 929 00ad 3E000000 		.4byte	0x3e
 930 00b1 04       		.uleb128 0x4
 931 00b2 FF010000 		.4byte	.LASF15
 932 00b6 03       		.byte	0x3
 933 00b7 31       		.byte	0x31
 934 00b8 3E000000 		.4byte	0x3e
 935 00bc 04       		.uleb128 0x4
 936 00bd 0E020000 		.4byte	.LASF16
 937 00c1 03       		.byte	0x3
 938 00c2 32       		.byte	0x32
 939 00c3 70000000 		.4byte	0x70
 940 00c7 04       		.uleb128 0x4
 941 00c8 86010000 		.4byte	.LASF17
 942 00cc 03       		.byte	0x3
 943 00cd 33       		.byte	0x33
 944 00ce 5E000000 		.4byte	0x5e
 945 00d2 04       		.uleb128 0x4
 946 00d3 A0010000 		.4byte	.LASF18
 947 00d7 03       		.byte	0x3
 948 00d8 35       		.byte	0x35
 949 00d9 70000000 		.4byte	0x70
 950 00dd 04       		.uleb128 0x4
 951 00de C4020000 		.4byte	.LASF19
ARM GAS  C:\DOCUME~1\z_80\LOCALS~1\Temp\ccW0M81v.s 			page 18


 952 00e2 03       		.byte	0x3
 953 00e3 36       		.byte	0x36
 954 00e4 70000000 		.4byte	0x70
 955 00e8 04       		.uleb128 0x4
 956 00e9 F9000000 		.4byte	.LASF20
 957 00ed 03       		.byte	0x3
 958 00ee 37       		.byte	0x37
 959 00ef 5E000000 		.4byte	0x5e
 960 00f3 04       		.uleb128 0x4
 961 00f4 6E020000 		.4byte	.LASF21
 962 00f8 04       		.byte	0x4
 963 00f9 2A       		.byte	0x2a
 964 00fa FE000000 		.4byte	0xfe
 965 00fe 05       		.uleb128 0x5
 966 00ff 6E020000 		.4byte	.LASF21
 967 0103 4C       		.byte	0x4c
 968 0104 05       		.byte	0x5
 969 0105 5E       		.byte	0x5e
 970 0106 23020000 		.4byte	0x223
 971 010a 06       		.uleb128 0x6
 972 010b 5F020000 		.4byte	.LASF22
 973 010f 05       		.byte	0x5
 974 0110 5F       		.byte	0x5f
 975 0111 48020000 		.4byte	0x248
 976 0115 02       		.byte	0x2
 977 0116 23       		.byte	0x23
 978 0117 00       		.uleb128 0x0
 979 0118 06       		.uleb128 0x6
 980 0119 07020000 		.4byte	.LASF23
 981 011d 05       		.byte	0x5
 982 011e 61       		.byte	0x61
 983 011f 48020000 		.4byte	0x248
 984 0123 02       		.byte	0x2
 985 0124 23       		.byte	0x23
 986 0125 04       		.uleb128 0x4
 987 0126 06       		.uleb128 0x6
 988 0127 43000000 		.4byte	.LASF24
 989 012b 05       		.byte	0x5
 990 012c 63       		.byte	0x63
 991 012d BC000000 		.4byte	0xbc
 992 0131 02       		.byte	0x2
 993 0132 23       		.byte	0x23
 994 0133 08       		.uleb128 0x8
 995 0134 06       		.uleb128 0x6
 996 0135 74030000 		.4byte	.LASF25
 997 0139 05       		.byte	0x5
 998 013a 64       		.byte	0x64
 999 013b 20030000 		.4byte	0x320
 1000 013f 02       		.byte	0x2
 1001 0140 23       		.byte	0x23
 1002 0141 0C       		.uleb128 0xc
 1003 0142 06       		.uleb128 0x6
 1004 0143 AD000000 		.4byte	.LASF26
 1005 0147 05       		.byte	0x5
 1006 0148 66       		.byte	0x66
 1007 0149 48020000 		.4byte	0x248
 1008 014d 02       		.byte	0x2
ARM GAS  C:\DOCUME~1\z_80\LOCALS~1\Temp\ccW0M81v.s 			page 19


 1009 014e 23       		.byte	0x23
 1010 014f 10       		.uleb128 0x10
 1011 0150 06       		.uleb128 0x6
 1012 0151 CD010000 		.4byte	.LASF27
 1013 0155 05       		.byte	0x5
 1014 0156 67       		.byte	0x67
 1015 0157 48020000 		.4byte	0x248
 1016 015b 02       		.byte	0x2
 1017 015c 23       		.byte	0x23
 1018 015d 14       		.uleb128 0x14
 1019 015e 06       		.uleb128 0x6
 1020 015f 3E030000 		.4byte	.LASF28
 1021 0163 05       		.byte	0x5
 1022 0164 6E       		.byte	0x6e
 1023 0165 F0040000 		.4byte	0x4f0
 1024 0169 02       		.byte	0x2
 1025 016a 23       		.byte	0x23
 1026 016b 18       		.uleb128 0x18
 1027 016c 06       		.uleb128 0x6
 1028 016d FF000000 		.4byte	.LASF29
 1029 0171 05       		.byte	0x5
 1030 0172 74       		.byte	0x74
 1031 0173 02050000 		.4byte	0x502
 1032 0177 02       		.byte	0x2
 1033 0178 23       		.byte	0x23
 1034 0179 1C       		.uleb128 0x1c
 1035 017a 06       		.uleb128 0x6
 1036 017b 49020000 		.4byte	.LASF30
 1037 017f 05       		.byte	0x5
 1038 0180 79       		.byte	0x79
 1039 0181 A6000000 		.4byte	0xa6
 1040 0185 02       		.byte	0x2
 1041 0186 23       		.byte	0x23
 1042 0187 20       		.uleb128 0x20
 1043 0188 06       		.uleb128 0x6
 1044 0189 66020000 		.4byte	.LASF31
 1045 018d 05       		.byte	0x5
 1046 018e 7D       		.byte	0x7d
 1047 018f 9B000000 		.4byte	0x9b
 1048 0193 02       		.byte	0x2
 1049 0194 23       		.byte	0x23
 1050 0195 21       		.uleb128 0x21
 1051 0196 06       		.uleb128 0x6
 1052 0197 0C030000 		.4byte	.LASF32
 1053 019b 05       		.byte	0x5
 1054 019c 82       		.byte	0x82
 1055 019d B1000000 		.4byte	0xb1
 1056 01a1 02       		.byte	0x2
 1057 01a2 23       		.byte	0x23
 1058 01a3 22       		.uleb128 0x22
 1059 01a4 06       		.uleb128 0x6
 1060 01a5 E2020000 		.4byte	.LASF33
 1061 01a9 05       		.byte	0x5
 1062 01aa 89       		.byte	0x89
 1063 01ab C4030000 		.4byte	0x3c4
 1064 01af 02       		.byte	0x2
 1065 01b0 23       		.byte	0x23
ARM GAS  C:\DOCUME~1\z_80\LOCALS~1\Temp\ccW0M81v.s 			page 20


 1066 01b1 24       		.uleb128 0x24
 1067 01b2 07       		.uleb128 0x7
 1068 01b3 705F7500 		.ascii	"p_u\000"
 1069 01b7 05       		.byte	0x5
 1070 01b8 AE       		.byte	0xae
 1071 01b9 BB040000 		.4byte	0x4bb
 1072 01bd 02       		.byte	0x2
 1073 01be 23       		.byte	0x23
 1074 01bf 28       		.uleb128 0x28
 1075 01c0 06       		.uleb128 0x6
 1076 01c1 7A030000 		.4byte	.LASF34
 1077 01c5 05       		.byte	0x5
 1078 01c6 B3       		.byte	0xb3
 1079 01c7 70020000 		.4byte	0x270
 1080 01cb 02       		.byte	0x2
 1081 01cc 23       		.byte	0x23
 1082 01cd 2C       		.uleb128 0x2c
 1083 01ce 06       		.uleb128 0x6
 1084 01cf F0020000 		.4byte	.LASF35
 1085 01d3 05       		.byte	0x5
 1086 01d4 B9       		.byte	0xb9
 1087 01d5 4E020000 		.4byte	0x24e
 1088 01d9 02       		.byte	0x2
 1089 01da 23       		.byte	0x23
 1090 01db 30       		.uleb128 0x30
 1091 01dc 06       		.uleb128 0x6
 1092 01dd 00000000 		.4byte	.LASF36
 1093 01e1 05       		.byte	0x5
 1094 01e2 BD       		.byte	0xbd
 1095 01e3 C7000000 		.4byte	0xc7
 1096 01e7 02       		.byte	0x2
 1097 01e8 23       		.byte	0x23
 1098 01e9 38       		.uleb128 0x38
 1099 01ea 06       		.uleb128 0x6
 1100 01eb 83020000 		.4byte	.LASF37
 1101 01ef 05       		.byte	0x5
 1102 01f0 C3       		.byte	0xc3
 1103 01f1 D2000000 		.4byte	0xd2
 1104 01f5 02       		.byte	0x2
 1105 01f6 23       		.byte	0x23
 1106 01f7 3C       		.uleb128 0x3c
 1107 01f8 06       		.uleb128 0x6
 1108 01f9 35020000 		.4byte	.LASF38
 1109 01fd 05       		.byte	0x5
 1110 01fe CA       		.byte	0xca
 1111 01ff 08050000 		.4byte	0x508
 1112 0203 02       		.byte	0x2
 1113 0204 23       		.byte	0x23
 1114 0205 40       		.uleb128 0x40
 1115 0206 06       		.uleb128 0x6
 1116 0207 CE020000 		.4byte	.LASF39
 1117 020b 05       		.byte	0x5
 1118 020c CE       		.byte	0xce
 1119 020d BC000000 		.4byte	0xbc
 1120 0211 02       		.byte	0x2
 1121 0212 23       		.byte	0x23
 1122 0213 44       		.uleb128 0x44
ARM GAS  C:\DOCUME~1\z_80\LOCALS~1\Temp\ccW0M81v.s 			page 21


 1123 0214 06       		.uleb128 0x6
 1124 0215 74000000 		.4byte	.LASF40
 1125 0219 05       		.byte	0x5
 1126 021a D4       		.byte	0xd4
 1127 021b 86020000 		.4byte	0x286
 1128 021f 02       		.byte	0x2
 1129 0220 23       		.byte	0x23
 1130 0221 48       		.uleb128 0x48
 1131 0222 00       		.byte	0x0
 1132 0223 08       		.uleb128 0x8
 1133 0224 08       		.byte	0x8
 1134 0225 04       		.byte	0x4
 1135 0226 61       		.byte	0x61
 1136 0227 48020000 		.4byte	0x248
 1137 022b 06       		.uleb128 0x6
 1138 022c 5F020000 		.4byte	.LASF22
 1139 0230 04       		.byte	0x4
 1140 0231 62       		.byte	0x62
 1141 0232 48020000 		.4byte	0x248
 1142 0236 02       		.byte	0x2
 1143 0237 23       		.byte	0x23
 1144 0238 00       		.uleb128 0x0
 1145 0239 06       		.uleb128 0x6
 1146 023a 07020000 		.4byte	.LASF23
 1147 023e 04       		.byte	0x4
 1148 023f 64       		.byte	0x64
 1149 0240 48020000 		.4byte	0x248
 1150 0244 02       		.byte	0x2
 1151 0245 23       		.byte	0x23
 1152 0246 04       		.uleb128 0x4
 1153 0247 00       		.byte	0x0
 1154 0248 09       		.uleb128 0x9
 1155 0249 04       		.byte	0x4
 1156 024a F3000000 		.4byte	0xf3
 1157 024e 04       		.uleb128 0x4
 1158 024f DB010000 		.4byte	.LASF41
 1159 0253 04       		.byte	0x4
 1160 0254 66       		.byte	0x66
 1161 0255 23020000 		.4byte	0x223
 1162 0259 08       		.uleb128 0x8
 1163 025a 04       		.byte	0x4
 1164 025b 04       		.byte	0x4
 1165 025c 6B       		.byte	0x6b
 1166 025d 70020000 		.4byte	0x270
 1167 0261 06       		.uleb128 0x6
 1168 0262 5F020000 		.4byte	.LASF22
 1169 0266 04       		.byte	0x4
 1170 0267 6D       		.byte	0x6d
 1171 0268 48020000 		.4byte	0x248
 1172 026c 02       		.byte	0x2
 1173 026d 23       		.byte	0x23
 1174 026e 00       		.uleb128 0x0
 1175 026f 00       		.byte	0x0
 1176 0270 04       		.uleb128 0x4
 1177 0271 94010000 		.4byte	.LASF42
 1178 0275 04       		.byte	0x4
 1179 0276 70       		.byte	0x70
ARM GAS  C:\DOCUME~1\z_80\LOCALS~1\Temp\ccW0M81v.s 			page 22


 1180 0277 59020000 		.4byte	0x259
 1181 027b 04       		.uleb128 0x4
 1182 027c D6000000 		.4byte	.LASF43
 1183 0280 06       		.byte	0x6
 1184 0281 D7       		.byte	0xd7
 1185 0282 86020000 		.4byte	0x286
 1186 0286 0A       		.uleb128 0xa
 1187 0287 04       		.byte	0x4
 1188 0288 04       		.uleb128 0x4
 1189 0289 B2010000 		.4byte	.LASF44
 1190 028d 06       		.byte	0x6
 1191 028e DD       		.byte	0xdd
 1192 028f 89000000 		.4byte	0x89
 1193 0293 05       		.uleb128 0x5
 1194 0294 E9020000 		.4byte	.LASF45
 1195 0298 24       		.byte	0x24
 1196 0299 06       		.byte	0x6
 1197 029a FE       		.byte	0xfe
 1198 029b 20030000 		.4byte	0x320
 1199 029f 0B       		.uleb128 0xb
 1200 02a0 723400   		.ascii	"r4\000"
 1201 02a3 06       		.byte	0x6
 1202 02a4 1101     		.2byte	0x111
 1203 02a6 7B020000 		.4byte	0x27b
 1204 02aa 02       		.byte	0x2
 1205 02ab 23       		.byte	0x23
 1206 02ac 00       		.uleb128 0x0
 1207 02ad 0B       		.uleb128 0xb
 1208 02ae 723500   		.ascii	"r5\000"
 1209 02b1 06       		.byte	0x6
 1210 02b2 1201     		.2byte	0x112
 1211 02b4 7B020000 		.4byte	0x27b
 1212 02b8 02       		.byte	0x2
 1213 02b9 23       		.byte	0x23
 1214 02ba 04       		.uleb128 0x4
 1215 02bb 0B       		.uleb128 0xb
 1216 02bc 723600   		.ascii	"r6\000"
 1217 02bf 06       		.byte	0x6
 1218 02c0 1301     		.2byte	0x113
 1219 02c2 7B020000 		.4byte	0x27b
 1220 02c6 02       		.byte	0x2
 1221 02c7 23       		.byte	0x23
 1222 02c8 08       		.uleb128 0x8
 1223 02c9 0B       		.uleb128 0xb
 1224 02ca 723700   		.ascii	"r7\000"
 1225 02cd 06       		.byte	0x6
 1226 02ce 1401     		.2byte	0x114
 1227 02d0 7B020000 		.4byte	0x27b
 1228 02d4 02       		.byte	0x2
 1229 02d5 23       		.byte	0x23
 1230 02d6 0C       		.uleb128 0xc
 1231 02d7 0B       		.uleb128 0xb
 1232 02d8 723800   		.ascii	"r8\000"
 1233 02db 06       		.byte	0x6
 1234 02dc 1501     		.2byte	0x115
 1235 02de 7B020000 		.4byte	0x27b
 1236 02e2 02       		.byte	0x2
ARM GAS  C:\DOCUME~1\z_80\LOCALS~1\Temp\ccW0M81v.s 			page 23


 1237 02e3 23       		.byte	0x23
 1238 02e4 10       		.uleb128 0x10
 1239 02e5 0B       		.uleb128 0xb
 1240 02e6 723900   		.ascii	"r9\000"
 1241 02e9 06       		.byte	0x6
 1242 02ea 1601     		.2byte	0x116
 1243 02ec 7B020000 		.4byte	0x27b
 1244 02f0 02       		.byte	0x2
 1245 02f1 23       		.byte	0x23
 1246 02f2 14       		.uleb128 0x14
 1247 02f3 0B       		.uleb128 0xb
 1248 02f4 72313000 		.ascii	"r10\000"
 1249 02f8 06       		.byte	0x6
 1250 02f9 1701     		.2byte	0x117
 1251 02fb 7B020000 		.4byte	0x27b
 1252 02ff 02       		.byte	0x2
 1253 0300 23       		.byte	0x23
 1254 0301 18       		.uleb128 0x18
 1255 0302 0B       		.uleb128 0xb
 1256 0303 72313100 		.ascii	"r11\000"
 1257 0307 06       		.byte	0x6
 1258 0308 1801     		.2byte	0x118
 1259 030a 7B020000 		.4byte	0x27b
 1260 030e 02       		.byte	0x2
 1261 030f 23       		.byte	0x23
 1262 0310 1C       		.uleb128 0x1c
 1263 0311 0B       		.uleb128 0xb
 1264 0312 6C7200   		.ascii	"lr\000"
 1265 0315 06       		.byte	0x6
 1266 0316 1901     		.2byte	0x119
 1267 0318 7B020000 		.4byte	0x27b
 1268 031c 02       		.byte	0x2
 1269 031d 23       		.byte	0x23
 1270 031e 20       		.uleb128 0x20
 1271 031f 00       		.byte	0x0
 1272 0320 0C       		.uleb128 0xc
 1273 0321 45030000 		.4byte	.LASF46
 1274 0325 04       		.byte	0x4
 1275 0326 06       		.byte	0x6
 1276 0327 2301     		.2byte	0x123
 1277 0329 3D030000 		.4byte	0x33d
 1278 032d 0B       		.uleb128 0xb
 1279 032e 72313300 		.ascii	"r13\000"
 1280 0332 06       		.byte	0x6
 1281 0333 2401     		.2byte	0x124
 1282 0335 3D030000 		.4byte	0x33d
 1283 0339 02       		.byte	0x2
 1284 033a 23       		.byte	0x23
 1285 033b 00       		.uleb128 0x0
 1286 033c 00       		.byte	0x0
 1287 033d 09       		.uleb128 0x9
 1288 033e 04       		.byte	0x4
 1289 033f 93020000 		.4byte	0x293
 1290 0343 04       		.uleb128 0x4
 1291 0344 D9020000 		.4byte	.LASF47
 1292 0348 07       		.byte	0x7
 1293 0349 53       		.byte	0x53
ARM GAS  C:\DOCUME~1\z_80\LOCALS~1\Temp\ccW0M81v.s 			page 24


 1294 034a 4E030000 		.4byte	0x34e
 1295 034e 09       		.uleb128 0x9
 1296 034f 04       		.byte	0x4
 1297 0350 54030000 		.4byte	0x354
 1298 0354 0D       		.uleb128 0xd
 1299 0355 01       		.byte	0x1
 1300 0356 60030000 		.4byte	0x360
 1301 035a 0E       		.uleb128 0xe
 1302 035b 86020000 		.4byte	0x286
 1303 035f 00       		.byte	0x0
 1304 0360 04       		.uleb128 0x4
 1305 0361 9F020000 		.4byte	.LASF48
 1306 0365 07       		.byte	0x7
 1307 0366 58       		.byte	0x58
 1308 0367 6B030000 		.4byte	0x36b
 1309 036b 05       		.uleb128 0x5
 1310 036c 9F020000 		.4byte	.LASF48
 1311 0370 14       		.byte	0x14
 1312 0371 07       		.byte	0x7
 1313 0372 5F       		.byte	0x5f
 1314 0373 BE030000 		.4byte	0x3be
 1315 0377 06       		.uleb128 0x6
 1316 0378 1E010000 		.4byte	.LASF49
 1317 037c 07       		.byte	0x7
 1318 037d 60       		.byte	0x60
 1319 037e BE030000 		.4byte	0x3be
 1320 0382 02       		.byte	0x2
 1321 0383 23       		.byte	0x23
 1322 0384 00       		.uleb128 0x0
 1323 0385 06       		.uleb128 0x6
 1324 0386 DF000000 		.4byte	.LASF50
 1325 038a 07       		.byte	0x7
 1326 038b 62       		.byte	0x62
 1327 038c BE030000 		.4byte	0x3be
 1328 0390 02       		.byte	0x2
 1329 0391 23       		.byte	0x23
 1330 0392 04       		.uleb128 0x4
 1331 0393 06       		.uleb128 0x6
 1332 0394 BD010000 		.4byte	.LASF51
 1333 0398 07       		.byte	0x7
 1334 0399 64       		.byte	0x64
 1335 039a DD000000 		.4byte	0xdd
 1336 039e 02       		.byte	0x2
 1337 039f 23       		.byte	0x23
 1338 03a0 08       		.uleb128 0x8
 1339 03a1 06       		.uleb128 0x6
 1340 03a2 C5010000 		.4byte	.LASF52
 1341 03a6 07       		.byte	0x7
 1342 03a7 65       		.byte	0x65
 1343 03a8 43030000 		.4byte	0x343
 1344 03ac 02       		.byte	0x2
 1345 03ad 23       		.byte	0x23
 1346 03ae 0C       		.uleb128 0xc
 1347 03af 06       		.uleb128 0x6
 1348 03b0 FB020000 		.4byte	.LASF53
 1349 03b4 07       		.byte	0x7
 1350 03b5 67       		.byte	0x67
ARM GAS  C:\DOCUME~1\z_80\LOCALS~1\Temp\ccW0M81v.s 			page 25


 1351 03b6 86020000 		.4byte	0x286
 1352 03ba 02       		.byte	0x2
 1353 03bb 23       		.byte	0x23
 1354 03bc 10       		.uleb128 0x10
 1355 03bd 00       		.byte	0x0
 1356 03be 09       		.uleb128 0x9
 1357 03bf 04       		.byte	0x4
 1358 03c0 60030000 		.4byte	0x360
 1359 03c4 0F       		.uleb128 0xf
 1360 03c5 DD000000 		.4byte	0xdd
 1361 03c9 08       		.uleb128 0x8
 1362 03ca 20       		.byte	0x20
 1363 03cb 08       		.byte	0x8
 1364 03cc 5E       		.byte	0x5e
 1365 03cd 34040000 		.4byte	0x434
 1366 03d1 06       		.uleb128 0x6
 1367 03d2 97020000 		.4byte	.LASF54
 1368 03d6 08       		.byte	0x8
 1369 03d7 5F       		.byte	0x5f
 1370 03d8 4E020000 		.4byte	0x24e
 1371 03dc 02       		.byte	0x2
 1372 03dd 23       		.byte	0x23
 1373 03de 00       		.uleb128 0x0
 1374 03df 06       		.uleb128 0x6
 1375 03e0 51020000 		.4byte	.LASF55
 1376 03e4 08       		.byte	0x8
 1377 03e5 60       		.byte	0x60
 1378 03e6 BC000000 		.4byte	0xbc
 1379 03ea 02       		.byte	0x2
 1380 03eb 23       		.byte	0x23
 1381 03ec 08       		.uleb128 0x8
 1382 03ed 06       		.uleb128 0x6
 1383 03ee D5010000 		.4byte	.LASF56
 1384 03f2 08       		.byte	0x8
 1385 03f3 62       		.byte	0x62
 1386 03f4 20030000 		.4byte	0x320
 1387 03f8 02       		.byte	0x2
 1388 03f9 23       		.byte	0x23
 1389 03fa 0C       		.uleb128 0xc
 1390 03fb 06       		.uleb128 0x6
 1391 03fc CE000000 		.4byte	.LASF57
 1392 0400 08       		.byte	0x8
 1393 0401 65       		.byte	0x65
 1394 0402 48020000 		.4byte	0x248
 1395 0406 02       		.byte	0x2
 1396 0407 23       		.byte	0x23
 1397 0408 10       		.uleb128 0x10
 1398 0409 06       		.uleb128 0x6
 1399 040a F7010000 		.4byte	.LASF58
 1400 040e 08       		.byte	0x8
 1401 040f 66       		.byte	0x66
 1402 0410 48020000 		.4byte	0x248
 1403 0414 02       		.byte	0x2
 1404 0415 23       		.byte	0x23
 1405 0416 14       		.uleb128 0x14
 1406 0417 06       		.uleb128 0x6
 1407 0418 62030000 		.4byte	.LASF59
ARM GAS  C:\DOCUME~1\z_80\LOCALS~1\Temp\ccW0M81v.s 			page 26


 1408 041c 08       		.byte	0x8
 1409 041d 6A       		.byte	0x6a
 1410 041e E8000000 		.4byte	0xe8
 1411 0422 02       		.byte	0x2
 1412 0423 23       		.byte	0x23
 1413 0424 18       		.uleb128 0x18
 1414 0425 06       		.uleb128 0x6
 1415 0426 ED010000 		.4byte	.LASF60
 1416 042a 08       		.byte	0x8
 1417 042b 6C       		.byte	0x6c
 1418 042c 48020000 		.4byte	0x248
 1419 0430 02       		.byte	0x2
 1420 0431 23       		.byte	0x23
 1421 0432 1C       		.uleb128 0x1c
 1422 0433 00       		.byte	0x0
 1423 0434 04       		.uleb128 0x4
 1424 0435 13030000 		.4byte	.LASF61
 1425 0439 08       		.byte	0x8
 1426 043a 6E       		.byte	0x6e
 1427 043b C9030000 		.4byte	0x3c9
 1428 043f 05       		.uleb128 0x5
 1429 0440 02030000 		.4byte	.LASF62
 1430 0444 0C       		.byte	0xc
 1431 0445 09       		.byte	0x9
 1432 0446 2C       		.byte	0x2c
 1433 0447 68040000 		.4byte	0x468
 1434 044b 06       		.uleb128 0x6
 1435 044c B5000000 		.4byte	.LASF63
 1436 0450 09       		.byte	0x9
 1437 0451 2D       		.byte	0x2d
 1438 0452 4E020000 		.4byte	0x24e
 1439 0456 02       		.byte	0x2
 1440 0457 23       		.byte	0x23
 1441 0458 00       		.uleb128 0x0
 1442 0459 06       		.uleb128 0x6
 1443 045a 38010000 		.4byte	.LASF64
 1444 045e 09       		.byte	0x9
 1445 045f 2F       		.byte	0x2f
 1446 0460 E8000000 		.4byte	0xe8
 1447 0464 02       		.byte	0x2
 1448 0465 23       		.byte	0x23
 1449 0466 08       		.uleb128 0x8
 1450 0467 00       		.byte	0x0
 1451 0468 04       		.uleb128 0x4
 1452 0469 02030000 		.4byte	.LASF62
 1453 046d 09       		.byte	0x9
 1454 046e 30       		.byte	0x30
 1455 046f 3F040000 		.4byte	0x43f
 1456 0473 05       		.uleb128 0x5
 1457 0474 AC010000 		.4byte	.LASF65
 1458 0478 10       		.byte	0x10
 1459 0479 0A       		.byte	0xa
 1460 047a 2C       		.byte	0x2c
 1461 047b AA040000 		.4byte	0x4aa
 1462 047f 06       		.uleb128 0x6
 1463 0480 93000000 		.4byte	.LASF66
 1464 0484 0A       		.byte	0xa
ARM GAS  C:\DOCUME~1\z_80\LOCALS~1\Temp\ccW0M81v.s 			page 27


 1465 0485 2D       		.byte	0x2d
 1466 0486 4E020000 		.4byte	0x24e
 1467 048a 02       		.byte	0x2
 1468 048b 23       		.byte	0x23
 1469 048c 00       		.uleb128 0x0
 1470 048d 06       		.uleb128 0x6
 1471 048e 6C030000 		.4byte	.LASF67
 1472 0492 0A       		.byte	0xa
 1473 0493 2F       		.byte	0x2f
 1474 0494 48020000 		.4byte	0x248
 1475 0498 02       		.byte	0x2
 1476 0499 23       		.byte	0x23
 1477 049a 08       		.uleb128 0x8
 1478 049b 06       		.uleb128 0x6
 1479 049c BD020000 		.4byte	.LASF68
 1480 04a0 0A       		.byte	0xa
 1481 04a1 31       		.byte	0x31
 1482 04a2 AA040000 		.4byte	0x4aa
 1483 04a6 02       		.byte	0x2
 1484 04a7 23       		.byte	0x23
 1485 04a8 0C       		.uleb128 0xc
 1486 04a9 00       		.byte	0x0
 1487 04aa 09       		.uleb128 0x9
 1488 04ab 04       		.byte	0x4
 1489 04ac 73040000 		.4byte	0x473
 1490 04b0 04       		.uleb128 0x4
 1491 04b1 AC010000 		.4byte	.LASF65
 1492 04b5 0A       		.byte	0xa
 1493 04b6 33       		.byte	0x33
 1494 04b7 73040000 		.4byte	0x473
 1495 04bb 10       		.uleb128 0x10
 1496 04bc 04       		.byte	0x4
 1497 04bd 05       		.byte	0x5
 1498 04be 90       		.byte	0x90
 1499 04bf F0040000 		.4byte	0x4f0
 1500 04c3 11       		.uleb128 0x11
 1501 04c4 06000000 		.4byte	.LASF69
 1502 04c8 05       		.byte	0x5
 1503 04c9 97       		.byte	0x97
 1504 04ca C7000000 		.4byte	0xc7
 1505 04ce 11       		.uleb128 0x11
 1506 04cf 3A000000 		.4byte	.LASF70
 1507 04d3 05       		.byte	0x5
 1508 04d4 9E       		.byte	0x9e
 1509 04d5 C7000000 		.4byte	0xc7
 1510 04d9 11       		.uleb128 0x11
 1511 04da 2B030000 		.4byte	.LASF71
 1512 04de 05       		.byte	0x5
 1513 04df A5       		.byte	0xa5
 1514 04e0 86020000 		.4byte	0x286
 1515 04e4 11       		.uleb128 0x11
 1516 04e5 58020000 		.4byte	.LASF72
 1517 04e9 05       		.byte	0x5
 1518 04ea AC       		.byte	0xac
 1519 04eb D2000000 		.4byte	0xd2
 1520 04ef 00       		.byte	0x0
 1521 04f0 09       		.uleb128 0x9
ARM GAS  C:\DOCUME~1\z_80\LOCALS~1\Temp\ccW0M81v.s 			page 28


 1522 04f1 04       		.byte	0x4
 1523 04f2 F6040000 		.4byte	0x4f6
 1524 04f6 12       		.uleb128 0x12
 1525 04f7 FB040000 		.4byte	0x4fb
 1526 04fb 03       		.uleb128 0x3
 1527 04fc 01       		.byte	0x1
 1528 04fd 08       		.byte	0x8
 1529 04fe AC020000 		.4byte	.LASF73
 1530 0502 09       		.uleb128 0x9
 1531 0503 04       		.byte	0x4
 1532 0504 88020000 		.4byte	0x288
 1533 0508 09       		.uleb128 0x9
 1534 0509 04       		.byte	0x4
 1535 050a B0040000 		.4byte	0x4b0
 1536 050e 13       		.uleb128 0x13
 1537 050f 01       		.byte	0x1
 1538 0510 4A000000 		.4byte	.LASF81
 1539 0514 01       		.byte	0x1
 1540 0515 37       		.byte	0x37
 1541 0516 01       		.byte	0x1
 1542 0517 00000000 		.4byte	.LFB0
 1543 051b 18000000 		.4byte	.LFE0
 1544 051f 02       		.byte	0x2
 1545 0520 7D       		.byte	0x7d
 1546 0521 00       		.sleb128 0
 1547 0522 14       		.uleb128 0x14
 1548 0523 01       		.byte	0x1
 1549 0524 B1020000 		.4byte	.LASF75
 1550 0528 01       		.byte	0x1
 1551 0529 52       		.byte	0x52
 1552 052a 01       		.byte	0x1
 1553 052b 48020000 		.4byte	0x248
 1554 052f 00000000 		.4byte	.LFB1
 1555 0533 40000000 		.4byte	.LFE1
 1556 0537 00000000 		.4byte	.LLST0
 1557 053b 5C050000 		.4byte	0x55c
 1558 053f 15       		.uleb128 0x15
 1559 0540 747000   		.ascii	"tp\000"
 1560 0543 01       		.byte	0x1
 1561 0544 52       		.byte	0x52
 1562 0545 48020000 		.4byte	0x248
 1563 0549 20000000 		.4byte	.LLST1
 1564 054d 16       		.uleb128 0x16
 1565 054e 637000   		.ascii	"cp\000"
 1566 0551 01       		.byte	0x1
 1567 0552 53       		.byte	0x53
 1568 0553 48020000 		.4byte	0x248
 1569 0557 3E000000 		.4byte	.LLST2
 1570 055b 00       		.byte	0x0
 1571 055c 17       		.uleb128 0x17
 1572 055d 17010000 		.4byte	.LASF87
 1573 0561 01       		.byte	0x1
 1574 0562 85       		.byte	0x85
 1575 0563 01       		.byte	0x1
 1576 0564 00000000 		.4byte	.LFB3
 1577 0568 3E000000 		.4byte	.LFE3
 1578 056c 6C000000 		.4byte	.LLST3
ARM GAS  C:\DOCUME~1\z_80\LOCALS~1\Temp\ccW0M81v.s 			page 29


 1579 0570 90050000 		.4byte	0x590
 1580 0574 15       		.uleb128 0x15
 1581 0575 7000     		.ascii	"p\000"
 1582 0577 01       		.byte	0x1
 1583 0578 85       		.byte	0x85
 1584 0579 86020000 		.4byte	0x286
 1585 057d 8C000000 		.4byte	.LLST4
 1586 0581 16       		.uleb128 0x16
 1587 0582 747000   		.ascii	"tp\000"
 1588 0585 01       		.byte	0x1
 1589 0586 86       		.byte	0x86
 1590 0587 48020000 		.4byte	0x248
 1591 058b B5000000 		.4byte	.LLST5
 1592 058f 00       		.byte	0x0
 1593 0590 18       		.uleb128 0x18
 1594 0591 01       		.byte	0x1
 1595 0592 75020000 		.4byte	.LASF78
 1596 0596 01       		.byte	0x1
 1597 0597 72       		.byte	0x72
 1598 0598 01       		.byte	0x1
 1599 0599 00000000 		.4byte	.LFB2
 1600 059d 50000000 		.4byte	.LFE2
 1601 05a1 D3000000 		.4byte	.LLST6
 1602 05a5 DB050000 		.4byte	0x5db
 1603 05a9 19       		.uleb128 0x19
 1604 05aa 2C020000 		.4byte	.LASF74
 1605 05ae 01       		.byte	0x1
 1606 05af 72       		.byte	0x72
 1607 05b0 A6000000 		.4byte	0xa6
 1608 05b4 F3000000 		.4byte	.LLST7
 1609 05b8 16       		.uleb128 0x16
 1610 05b9 6F747000 		.ascii	"otp\000"
 1611 05bd 01       		.byte	0x1
 1612 05be 73       		.byte	0x73
 1613 05bf 48020000 		.4byte	0x248
 1614 05c3 06010000 		.4byte	.LLST8
 1615 05c7 1A       		.uleb128 0x1a
 1616 05c8 00000000 		.4byte	.Ldebug_ranges0+0x0
 1617 05cc 1B       		.uleb128 0x1b
 1618 05cd 72313300 		.ascii	"r13\000"
 1619 05d1 01       		.byte	0x1
 1620 05d2 7D       		.byte	0x7d
 1621 05d3 3D030000 		.4byte	0x33d
 1622 05d7 01       		.byte	0x1
 1623 05d8 5D       		.byte	0x5d
 1624 05d9 00       		.byte	0x0
 1625 05da 00       		.byte	0x0
 1626 05db 14       		.uleb128 0x14
 1627 05dc 01       		.byte	0x1
 1628 05dd 4D030000 		.4byte	.LASF76
 1629 05e1 01       		.byte	0x1
 1630 05e2 B7       		.byte	0xb7
 1631 05e3 01       		.byte	0x1
 1632 05e4 C7000000 		.4byte	0xc7
 1633 05e8 00000000 		.4byte	.LFB4
 1634 05ec 4C000000 		.4byte	.LFE4
 1635 05f0 28010000 		.4byte	.LLST9
ARM GAS  C:\DOCUME~1\z_80\LOCALS~1\Temp\ccW0M81v.s 			page 30


 1636 05f4 2E060000 		.4byte	0x62e
 1637 05f8 19       		.uleb128 0x19
 1638 05f9 2C020000 		.4byte	.LASF74
 1639 05fd 01       		.byte	0x1
 1640 05fe B7       		.byte	0xb7
 1641 05ff A6000000 		.4byte	0xa6
 1642 0603 54010000 		.4byte	.LLST10
 1643 0607 19       		.uleb128 0x19
 1644 0608 E8010000 		.4byte	.LASF77
 1645 060c 01       		.byte	0x1
 1646 060d B7       		.byte	0xb7
 1647 060e DD000000 		.4byte	0xdd
 1648 0612 67010000 		.4byte	.LLST11
 1649 0616 1C       		.uleb128 0x1c
 1650 0617 12000000 		.4byte	.LBB4
 1651 061b 30000000 		.4byte	.LBE4
 1652 061f 1B       		.uleb128 0x1b
 1653 0620 767400   		.ascii	"vt\000"
 1654 0623 01       		.byte	0x1
 1655 0624 BC       		.byte	0xbc
 1656 0625 60030000 		.4byte	0x360
 1657 0629 02       		.byte	0x2
 1658 062a 91       		.byte	0x91
 1659 062b 5C       		.sleb128 -36
 1660 062c 00       		.byte	0x0
 1661 062d 00       		.byte	0x0
 1662 062e 18       		.uleb128 0x18
 1663 062f 01       		.byte	0x1
 1664 0630 79010000 		.4byte	.LASF79
 1665 0634 01       		.byte	0x1
 1666 0635 DB       		.byte	0xdb
 1667 0636 01       		.byte	0x1
 1668 0637 00000000 		.4byte	.LFB5
 1669 063b 60000000 		.4byte	.LFE5
 1670 063f 85010000 		.4byte	.LLST12
 1671 0643 8E060000 		.4byte	0x68e
 1672 0647 15       		.uleb128 0x15
 1673 0648 6E747000 		.ascii	"ntp\000"
 1674 064c 01       		.byte	0x1
 1675 064d DB       		.byte	0xdb
 1676 064e 48020000 		.4byte	0x248
 1677 0652 A5010000 		.4byte	.LLST13
 1678 0656 15       		.uleb128 0x15
 1679 0657 6D736700 		.ascii	"msg\000"
 1680 065b 01       		.byte	0x1
 1681 065c DB       		.byte	0xdb
 1682 065d C7000000 		.4byte	0xc7
 1683 0661 C3010000 		.4byte	.LLST14
 1684 0665 1A       		.uleb128 0x1a
 1685 0666 18000000 		.4byte	.Ldebug_ranges0+0x18
 1686 066a 16       		.uleb128 0x16
 1687 066b 6F747000 		.ascii	"otp\000"
 1688 066f 01       		.byte	0x1
 1689 0670 E7       		.byte	0xe7
 1690 0671 48020000 		.4byte	0x248
 1691 0675 EC010000 		.4byte	.LLST15
 1692 0679 1A       		.uleb128 0x1a
ARM GAS  C:\DOCUME~1\z_80\LOCALS~1\Temp\ccW0M81v.s 			page 31


 1693 067a 38000000 		.4byte	.Ldebug_ranges0+0x38
 1694 067e 1B       		.uleb128 0x1b
 1695 067f 72313300 		.ascii	"r13\000"
 1696 0683 01       		.byte	0x1
 1697 0684 ED       		.byte	0xed
 1698 0685 3D030000 		.4byte	0x33d
 1699 0689 01       		.byte	0x1
 1700 068a 5D       		.byte	0x5d
 1701 068b 00       		.byte	0x0
 1702 068c 00       		.byte	0x0
 1703 068d 00       		.byte	0x0
 1704 068e 1D       		.uleb128 0x1d
 1705 068f 01       		.byte	0x1
 1706 0690 E7000000 		.4byte	.LASF80
 1707 0694 01       		.byte	0x1
 1708 0695 2A01     		.2byte	0x12a
 1709 0697 01       		.byte	0x1
 1710 0698 00000000 		.4byte	.LFB7
 1711 069c 4C000000 		.4byte	.LFE7
 1712 06a0 15020000 		.4byte	.LLST16
 1713 06a4 CD060000 		.4byte	0x6cd
 1714 06a8 1E       		.uleb128 0x1e
 1715 06a9 6F747000 		.ascii	"otp\000"
 1716 06ad 01       		.byte	0x1
 1717 06ae 2B01     		.2byte	0x12b
 1718 06b0 48020000 		.4byte	0x248
 1719 06b4 35020000 		.4byte	.LLST17
 1720 06b8 1A       		.uleb128 0x1a
 1721 06b9 58000000 		.4byte	.Ldebug_ranges0+0x58
 1722 06bd 1F       		.uleb128 0x1f
 1723 06be 72313300 		.ascii	"r13\000"
 1724 06c2 01       		.byte	0x1
 1725 06c3 3501     		.2byte	0x135
 1726 06c5 3D030000 		.4byte	0x33d
 1727 06c9 01       		.byte	0x1
 1728 06ca 5D       		.byte	0x5d
 1729 06cb 00       		.byte	0x0
 1730 06cc 00       		.byte	0x0
 1731 06cd 20       		.uleb128 0x20
 1732 06ce 01       		.byte	0x1
 1733 06cf BD000000 		.4byte	.LASF82
 1734 06d3 01       		.byte	0x1
 1735 06d4 FA       		.byte	0xfa
 1736 06d5 01       		.byte	0x1
 1737 06d6 00000000 		.4byte	.LFB6
 1738 06da 24000000 		.4byte	.LFE6
 1739 06de 57020000 		.4byte	.LLST18
 1740 06e2 21       		.uleb128 0x21
 1741 06e3 1D030000 		.4byte	.LASF83
 1742 06e7 08       		.byte	0x8
 1743 06e8 72       		.byte	0x72
 1744 06e9 34040000 		.4byte	0x434
 1745 06ed 01       		.byte	0x1
 1746 06ee 01       		.byte	0x1
 1747 06ef 22       		.uleb128 0x22
 1748 06f0 1D030000 		.4byte	.LASF83
 1749 06f4 01       		.byte	0x1
ARM GAS  C:\DOCUME~1\z_80\LOCALS~1\Temp\ccW0M81v.s 			page 32


 1750 06f5 2F       		.byte	0x2f
 1751 06f6 34040000 		.4byte	0x434
 1752 06fa 01       		.byte	0x1
 1753 06fb 05       		.byte	0x5
 1754 06fc 03       		.byte	0x3
 1755 06fd 00000000 		.4byte	rlist
 1756 0701 00       		.byte	0x0
 1757              		.section	.debug_abbrev
 1758 0000 01       		.uleb128 0x1
 1759 0001 11       		.uleb128 0x11
 1760 0002 01       		.byte	0x1
 1761 0003 25       		.uleb128 0x25
 1762 0004 0E       		.uleb128 0xe
 1763 0005 13       		.uleb128 0x13
 1764 0006 0B       		.uleb128 0xb
 1765 0007 03       		.uleb128 0x3
 1766 0008 0E       		.uleb128 0xe
 1767 0009 1B       		.uleb128 0x1b
 1768 000a 0E       		.uleb128 0xe
 1769 000b 11       		.uleb128 0x11
 1770 000c 01       		.uleb128 0x1
 1771 000d 52       		.uleb128 0x52
 1772 000e 01       		.uleb128 0x1
 1773 000f 55       		.uleb128 0x55
 1774 0010 06       		.uleb128 0x6
 1775 0011 10       		.uleb128 0x10
 1776 0012 06       		.uleb128 0x6
 1777 0013 00       		.byte	0x0
 1778 0014 00       		.byte	0x0
 1779 0015 02       		.uleb128 0x2
 1780 0016 24       		.uleb128 0x24
 1781 0017 00       		.byte	0x0
 1782 0018 0B       		.uleb128 0xb
 1783 0019 0B       		.uleb128 0xb
 1784 001a 3E       		.uleb128 0x3e
 1785 001b 0B       		.uleb128 0xb
 1786 001c 03       		.uleb128 0x3
 1787 001d 08       		.uleb128 0x8
 1788 001e 00       		.byte	0x0
 1789 001f 00       		.byte	0x0
 1790 0020 03       		.uleb128 0x3
 1791 0021 24       		.uleb128 0x24
 1792 0022 00       		.byte	0x0
 1793 0023 0B       		.uleb128 0xb
 1794 0024 0B       		.uleb128 0xb
 1795 0025 3E       		.uleb128 0x3e
 1796 0026 0B       		.uleb128 0xb
 1797 0027 03       		.uleb128 0x3
 1798 0028 0E       		.uleb128 0xe
 1799 0029 00       		.byte	0x0
 1800 002a 00       		.byte	0x0
 1801 002b 04       		.uleb128 0x4
 1802 002c 16       		.uleb128 0x16
 1803 002d 00       		.byte	0x0
 1804 002e 03       		.uleb128 0x3
 1805 002f 0E       		.uleb128 0xe
 1806 0030 3A       		.uleb128 0x3a
ARM GAS  C:\DOCUME~1\z_80\LOCALS~1\Temp\ccW0M81v.s 			page 33


 1807 0031 0B       		.uleb128 0xb
 1808 0032 3B       		.uleb128 0x3b
 1809 0033 0B       		.uleb128 0xb
 1810 0034 49       		.uleb128 0x49
 1811 0035 13       		.uleb128 0x13
 1812 0036 00       		.byte	0x0
 1813 0037 00       		.byte	0x0
 1814 0038 05       		.uleb128 0x5
 1815 0039 13       		.uleb128 0x13
 1816 003a 01       		.byte	0x1
 1817 003b 03       		.uleb128 0x3
 1818 003c 0E       		.uleb128 0xe
 1819 003d 0B       		.uleb128 0xb
 1820 003e 0B       		.uleb128 0xb
 1821 003f 3A       		.uleb128 0x3a
 1822 0040 0B       		.uleb128 0xb
 1823 0041 3B       		.uleb128 0x3b
 1824 0042 0B       		.uleb128 0xb
 1825 0043 01       		.uleb128 0x1
 1826 0044 13       		.uleb128 0x13
 1827 0045 00       		.byte	0x0
 1828 0046 00       		.byte	0x0
 1829 0047 06       		.uleb128 0x6
 1830 0048 0D       		.uleb128 0xd
 1831 0049 00       		.byte	0x0
 1832 004a 03       		.uleb128 0x3
 1833 004b 0E       		.uleb128 0xe
 1834 004c 3A       		.uleb128 0x3a
 1835 004d 0B       		.uleb128 0xb
 1836 004e 3B       		.uleb128 0x3b
 1837 004f 0B       		.uleb128 0xb
 1838 0050 49       		.uleb128 0x49
 1839 0051 13       		.uleb128 0x13
 1840 0052 38       		.uleb128 0x38
 1841 0053 0A       		.uleb128 0xa
 1842 0054 00       		.byte	0x0
 1843 0055 00       		.byte	0x0
 1844 0056 07       		.uleb128 0x7
 1845 0057 0D       		.uleb128 0xd
 1846 0058 00       		.byte	0x0
 1847 0059 03       		.uleb128 0x3
 1848 005a 08       		.uleb128 0x8
 1849 005b 3A       		.uleb128 0x3a
 1850 005c 0B       		.uleb128 0xb
 1851 005d 3B       		.uleb128 0x3b
 1852 005e 0B       		.uleb128 0xb
 1853 005f 49       		.uleb128 0x49
 1854 0060 13       		.uleb128 0x13
 1855 0061 38       		.uleb128 0x38
 1856 0062 0A       		.uleb128 0xa
 1857 0063 00       		.byte	0x0
 1858 0064 00       		.byte	0x0
 1859 0065 08       		.uleb128 0x8
 1860 0066 13       		.uleb128 0x13
 1861 0067 01       		.byte	0x1
 1862 0068 0B       		.uleb128 0xb
 1863 0069 0B       		.uleb128 0xb
ARM GAS  C:\DOCUME~1\z_80\LOCALS~1\Temp\ccW0M81v.s 			page 34


 1864 006a 3A       		.uleb128 0x3a
 1865 006b 0B       		.uleb128 0xb
 1866 006c 3B       		.uleb128 0x3b
 1867 006d 0B       		.uleb128 0xb
 1868 006e 01       		.uleb128 0x1
 1869 006f 13       		.uleb128 0x13
 1870 0070 00       		.byte	0x0
 1871 0071 00       		.byte	0x0
 1872 0072 09       		.uleb128 0x9
 1873 0073 0F       		.uleb128 0xf
 1874 0074 00       		.byte	0x0
 1875 0075 0B       		.uleb128 0xb
 1876 0076 0B       		.uleb128 0xb
 1877 0077 49       		.uleb128 0x49
 1878 0078 13       		.uleb128 0x13
 1879 0079 00       		.byte	0x0
 1880 007a 00       		.byte	0x0
 1881 007b 0A       		.uleb128 0xa
 1882 007c 0F       		.uleb128 0xf
 1883 007d 00       		.byte	0x0
 1884 007e 0B       		.uleb128 0xb
 1885 007f 0B       		.uleb128 0xb
 1886 0080 00       		.byte	0x0
 1887 0081 00       		.byte	0x0
 1888 0082 0B       		.uleb128 0xb
 1889 0083 0D       		.uleb128 0xd
 1890 0084 00       		.byte	0x0
 1891 0085 03       		.uleb128 0x3
 1892 0086 08       		.uleb128 0x8
 1893 0087 3A       		.uleb128 0x3a
 1894 0088 0B       		.uleb128 0xb
 1895 0089 3B       		.uleb128 0x3b
 1896 008a 05       		.uleb128 0x5
 1897 008b 49       		.uleb128 0x49
 1898 008c 13       		.uleb128 0x13
 1899 008d 38       		.uleb128 0x38
 1900 008e 0A       		.uleb128 0xa
 1901 008f 00       		.byte	0x0
 1902 0090 00       		.byte	0x0
 1903 0091 0C       		.uleb128 0xc
 1904 0092 13       		.uleb128 0x13
 1905 0093 01       		.byte	0x1
 1906 0094 03       		.uleb128 0x3
 1907 0095 0E       		.uleb128 0xe
 1908 0096 0B       		.uleb128 0xb
 1909 0097 0B       		.uleb128 0xb
 1910 0098 3A       		.uleb128 0x3a
 1911 0099 0B       		.uleb128 0xb
 1912 009a 3B       		.uleb128 0x3b
 1913 009b 05       		.uleb128 0x5
 1914 009c 01       		.uleb128 0x1
 1915 009d 13       		.uleb128 0x13
 1916 009e 00       		.byte	0x0
 1917 009f 00       		.byte	0x0
 1918 00a0 0D       		.uleb128 0xd
 1919 00a1 15       		.uleb128 0x15
 1920 00a2 01       		.byte	0x1
ARM GAS  C:\DOCUME~1\z_80\LOCALS~1\Temp\ccW0M81v.s 			page 35


 1921 00a3 27       		.uleb128 0x27
 1922 00a4 0C       		.uleb128 0xc
 1923 00a5 01       		.uleb128 0x1
 1924 00a6 13       		.uleb128 0x13
 1925 00a7 00       		.byte	0x0
 1926 00a8 00       		.byte	0x0
 1927 00a9 0E       		.uleb128 0xe
 1928 00aa 05       		.uleb128 0x5
 1929 00ab 00       		.byte	0x0
 1930 00ac 49       		.uleb128 0x49
 1931 00ad 13       		.uleb128 0x13
 1932 00ae 00       		.byte	0x0
 1933 00af 00       		.byte	0x0
 1934 00b0 0F       		.uleb128 0xf
 1935 00b1 35       		.uleb128 0x35
 1936 00b2 00       		.byte	0x0
 1937 00b3 49       		.uleb128 0x49
 1938 00b4 13       		.uleb128 0x13
 1939 00b5 00       		.byte	0x0
 1940 00b6 00       		.byte	0x0
 1941 00b7 10       		.uleb128 0x10
 1942 00b8 17       		.uleb128 0x17
 1943 00b9 01       		.byte	0x1
 1944 00ba 0B       		.uleb128 0xb
 1945 00bb 0B       		.uleb128 0xb
 1946 00bc 3A       		.uleb128 0x3a
 1947 00bd 0B       		.uleb128 0xb
 1948 00be 3B       		.uleb128 0x3b
 1949 00bf 0B       		.uleb128 0xb
 1950 00c0 01       		.uleb128 0x1
 1951 00c1 13       		.uleb128 0x13
 1952 00c2 00       		.byte	0x0
 1953 00c3 00       		.byte	0x0
 1954 00c4 11       		.uleb128 0x11
 1955 00c5 0D       		.uleb128 0xd
 1956 00c6 00       		.byte	0x0
 1957 00c7 03       		.uleb128 0x3
 1958 00c8 0E       		.uleb128 0xe
 1959 00c9 3A       		.uleb128 0x3a
 1960 00ca 0B       		.uleb128 0xb
 1961 00cb 3B       		.uleb128 0x3b
 1962 00cc 0B       		.uleb128 0xb
 1963 00cd 49       		.uleb128 0x49
 1964 00ce 13       		.uleb128 0x13
 1965 00cf 00       		.byte	0x0
 1966 00d0 00       		.byte	0x0
 1967 00d1 12       		.uleb128 0x12
 1968 00d2 26       		.uleb128 0x26
 1969 00d3 00       		.byte	0x0
 1970 00d4 49       		.uleb128 0x49
 1971 00d5 13       		.uleb128 0x13
 1972 00d6 00       		.byte	0x0
 1973 00d7 00       		.byte	0x0
 1974 00d8 13       		.uleb128 0x13
 1975 00d9 2E       		.uleb128 0x2e
 1976 00da 00       		.byte	0x0
 1977 00db 3F       		.uleb128 0x3f
ARM GAS  C:\DOCUME~1\z_80\LOCALS~1\Temp\ccW0M81v.s 			page 36


 1978 00dc 0C       		.uleb128 0xc
 1979 00dd 03       		.uleb128 0x3
 1980 00de 0E       		.uleb128 0xe
 1981 00df 3A       		.uleb128 0x3a
 1982 00e0 0B       		.uleb128 0xb
 1983 00e1 3B       		.uleb128 0x3b
 1984 00e2 0B       		.uleb128 0xb
 1985 00e3 27       		.uleb128 0x27
 1986 00e4 0C       		.uleb128 0xc
 1987 00e5 11       		.uleb128 0x11
 1988 00e6 01       		.uleb128 0x1
 1989 00e7 12       		.uleb128 0x12
 1990 00e8 01       		.uleb128 0x1
 1991 00e9 40       		.uleb128 0x40
 1992 00ea 0A       		.uleb128 0xa
 1993 00eb 00       		.byte	0x0
 1994 00ec 00       		.byte	0x0
 1995 00ed 14       		.uleb128 0x14
 1996 00ee 2E       		.uleb128 0x2e
 1997 00ef 01       		.byte	0x1
 1998 00f0 3F       		.uleb128 0x3f
 1999 00f1 0C       		.uleb128 0xc
 2000 00f2 03       		.uleb128 0x3
 2001 00f3 0E       		.uleb128 0xe
 2002 00f4 3A       		.uleb128 0x3a
 2003 00f5 0B       		.uleb128 0xb
 2004 00f6 3B       		.uleb128 0x3b
 2005 00f7 0B       		.uleb128 0xb
 2006 00f8 27       		.uleb128 0x27
 2007 00f9 0C       		.uleb128 0xc
 2008 00fa 49       		.uleb128 0x49
 2009 00fb 13       		.uleb128 0x13
 2010 00fc 11       		.uleb128 0x11
 2011 00fd 01       		.uleb128 0x1
 2012 00fe 12       		.uleb128 0x12
 2013 00ff 01       		.uleb128 0x1
 2014 0100 40       		.uleb128 0x40
 2015 0101 06       		.uleb128 0x6
 2016 0102 01       		.uleb128 0x1
 2017 0103 13       		.uleb128 0x13
 2018 0104 00       		.byte	0x0
 2019 0105 00       		.byte	0x0
 2020 0106 15       		.uleb128 0x15
 2021 0107 05       		.uleb128 0x5
 2022 0108 00       		.byte	0x0
 2023 0109 03       		.uleb128 0x3
 2024 010a 08       		.uleb128 0x8
 2025 010b 3A       		.uleb128 0x3a
 2026 010c 0B       		.uleb128 0xb
 2027 010d 3B       		.uleb128 0x3b
 2028 010e 0B       		.uleb128 0xb
 2029 010f 49       		.uleb128 0x49
 2030 0110 13       		.uleb128 0x13
 2031 0111 02       		.uleb128 0x2
 2032 0112 06       		.uleb128 0x6
 2033 0113 00       		.byte	0x0
 2034 0114 00       		.byte	0x0
ARM GAS  C:\DOCUME~1\z_80\LOCALS~1\Temp\ccW0M81v.s 			page 37


 2035 0115 16       		.uleb128 0x16
 2036 0116 34       		.uleb128 0x34
 2037 0117 00       		.byte	0x0
 2038 0118 03       		.uleb128 0x3
 2039 0119 08       		.uleb128 0x8
 2040 011a 3A       		.uleb128 0x3a
 2041 011b 0B       		.uleb128 0xb
 2042 011c 3B       		.uleb128 0x3b
 2043 011d 0B       		.uleb128 0xb
 2044 011e 49       		.uleb128 0x49
 2045 011f 13       		.uleb128 0x13
 2046 0120 02       		.uleb128 0x2
 2047 0121 06       		.uleb128 0x6
 2048 0122 00       		.byte	0x0
 2049 0123 00       		.byte	0x0
 2050 0124 17       		.uleb128 0x17
 2051 0125 2E       		.uleb128 0x2e
 2052 0126 01       		.byte	0x1
 2053 0127 03       		.uleb128 0x3
 2054 0128 0E       		.uleb128 0xe
 2055 0129 3A       		.uleb128 0x3a
 2056 012a 0B       		.uleb128 0xb
 2057 012b 3B       		.uleb128 0x3b
 2058 012c 0B       		.uleb128 0xb
 2059 012d 27       		.uleb128 0x27
 2060 012e 0C       		.uleb128 0xc
 2061 012f 11       		.uleb128 0x11
 2062 0130 01       		.uleb128 0x1
 2063 0131 12       		.uleb128 0x12
 2064 0132 01       		.uleb128 0x1
 2065 0133 40       		.uleb128 0x40
 2066 0134 06       		.uleb128 0x6
 2067 0135 01       		.uleb128 0x1
 2068 0136 13       		.uleb128 0x13
 2069 0137 00       		.byte	0x0
 2070 0138 00       		.byte	0x0
 2071 0139 18       		.uleb128 0x18
 2072 013a 2E       		.uleb128 0x2e
 2073 013b 01       		.byte	0x1
 2074 013c 3F       		.uleb128 0x3f
 2075 013d 0C       		.uleb128 0xc
 2076 013e 03       		.uleb128 0x3
 2077 013f 0E       		.uleb128 0xe
 2078 0140 3A       		.uleb128 0x3a
 2079 0141 0B       		.uleb128 0xb
 2080 0142 3B       		.uleb128 0x3b
 2081 0143 0B       		.uleb128 0xb
 2082 0144 27       		.uleb128 0x27
 2083 0145 0C       		.uleb128 0xc
 2084 0146 11       		.uleb128 0x11
 2085 0147 01       		.uleb128 0x1
 2086 0148 12       		.uleb128 0x12
 2087 0149 01       		.uleb128 0x1
 2088 014a 40       		.uleb128 0x40
 2089 014b 06       		.uleb128 0x6
 2090 014c 01       		.uleb128 0x1
 2091 014d 13       		.uleb128 0x13
ARM GAS  C:\DOCUME~1\z_80\LOCALS~1\Temp\ccW0M81v.s 			page 38


 2092 014e 00       		.byte	0x0
 2093 014f 00       		.byte	0x0
 2094 0150 19       		.uleb128 0x19
 2095 0151 05       		.uleb128 0x5
 2096 0152 00       		.byte	0x0
 2097 0153 03       		.uleb128 0x3
 2098 0154 0E       		.uleb128 0xe
 2099 0155 3A       		.uleb128 0x3a
 2100 0156 0B       		.uleb128 0xb
 2101 0157 3B       		.uleb128 0x3b
 2102 0158 0B       		.uleb128 0xb
 2103 0159 49       		.uleb128 0x49
 2104 015a 13       		.uleb128 0x13
 2105 015b 02       		.uleb128 0x2
 2106 015c 06       		.uleb128 0x6
 2107 015d 00       		.byte	0x0
 2108 015e 00       		.byte	0x0
 2109 015f 1A       		.uleb128 0x1a
 2110 0160 0B       		.uleb128 0xb
 2111 0161 01       		.byte	0x1
 2112 0162 55       		.uleb128 0x55
 2113 0163 06       		.uleb128 0x6
 2114 0164 00       		.byte	0x0
 2115 0165 00       		.byte	0x0
 2116 0166 1B       		.uleb128 0x1b
 2117 0167 34       		.uleb128 0x34
 2118 0168 00       		.byte	0x0
 2119 0169 03       		.uleb128 0x3
 2120 016a 08       		.uleb128 0x8
 2121 016b 3A       		.uleb128 0x3a
 2122 016c 0B       		.uleb128 0xb
 2123 016d 3B       		.uleb128 0x3b
 2124 016e 0B       		.uleb128 0xb
 2125 016f 49       		.uleb128 0x49
 2126 0170 13       		.uleb128 0x13
 2127 0171 02       		.uleb128 0x2
 2128 0172 0A       		.uleb128 0xa
 2129 0173 00       		.byte	0x0
 2130 0174 00       		.byte	0x0
 2131 0175 1C       		.uleb128 0x1c
 2132 0176 0B       		.uleb128 0xb
 2133 0177 01       		.byte	0x1
 2134 0178 11       		.uleb128 0x11
 2135 0179 01       		.uleb128 0x1
 2136 017a 12       		.uleb128 0x12
 2137 017b 01       		.uleb128 0x1
 2138 017c 00       		.byte	0x0
 2139 017d 00       		.byte	0x0
 2140 017e 1D       		.uleb128 0x1d
 2141 017f 2E       		.uleb128 0x2e
 2142 0180 01       		.byte	0x1
 2143 0181 3F       		.uleb128 0x3f
 2144 0182 0C       		.uleb128 0xc
 2145 0183 03       		.uleb128 0x3
 2146 0184 0E       		.uleb128 0xe
 2147 0185 3A       		.uleb128 0x3a
 2148 0186 0B       		.uleb128 0xb
ARM GAS  C:\DOCUME~1\z_80\LOCALS~1\Temp\ccW0M81v.s 			page 39


 2149 0187 3B       		.uleb128 0x3b
 2150 0188 05       		.uleb128 0x5
 2151 0189 27       		.uleb128 0x27
 2152 018a 0C       		.uleb128 0xc
 2153 018b 11       		.uleb128 0x11
 2154 018c 01       		.uleb128 0x1
 2155 018d 12       		.uleb128 0x12
 2156 018e 01       		.uleb128 0x1
 2157 018f 40       		.uleb128 0x40
 2158 0190 06       		.uleb128 0x6
 2159 0191 01       		.uleb128 0x1
 2160 0192 13       		.uleb128 0x13
 2161 0193 00       		.byte	0x0
 2162 0194 00       		.byte	0x0
 2163 0195 1E       		.uleb128 0x1e
 2164 0196 34       		.uleb128 0x34
 2165 0197 00       		.byte	0x0
 2166 0198 03       		.uleb128 0x3
 2167 0199 08       		.uleb128 0x8
 2168 019a 3A       		.uleb128 0x3a
 2169 019b 0B       		.uleb128 0xb
 2170 019c 3B       		.uleb128 0x3b
 2171 019d 05       		.uleb128 0x5
 2172 019e 49       		.uleb128 0x49
 2173 019f 13       		.uleb128 0x13
 2174 01a0 02       		.uleb128 0x2
 2175 01a1 06       		.uleb128 0x6
 2176 01a2 00       		.byte	0x0
 2177 01a3 00       		.byte	0x0
 2178 01a4 1F       		.uleb128 0x1f
 2179 01a5 34       		.uleb128 0x34
 2180 01a6 00       		.byte	0x0
 2181 01a7 03       		.uleb128 0x3
 2182 01a8 08       		.uleb128 0x8
 2183 01a9 3A       		.uleb128 0x3a
 2184 01aa 0B       		.uleb128 0xb
 2185 01ab 3B       		.uleb128 0x3b
 2186 01ac 05       		.uleb128 0x5
 2187 01ad 49       		.uleb128 0x49
 2188 01ae 13       		.uleb128 0x13
 2189 01af 02       		.uleb128 0x2
 2190 01b0 0A       		.uleb128 0xa
 2191 01b1 00       		.byte	0x0
 2192 01b2 00       		.byte	0x0
 2193 01b3 20       		.uleb128 0x20
 2194 01b4 2E       		.uleb128 0x2e
 2195 01b5 00       		.byte	0x0
 2196 01b6 3F       		.uleb128 0x3f
 2197 01b7 0C       		.uleb128 0xc
 2198 01b8 03       		.uleb128 0x3
 2199 01b9 0E       		.uleb128 0xe
 2200 01ba 3A       		.uleb128 0x3a
 2201 01bb 0B       		.uleb128 0xb
 2202 01bc 3B       		.uleb128 0x3b
 2203 01bd 0B       		.uleb128 0xb
 2204 01be 27       		.uleb128 0x27
 2205 01bf 0C       		.uleb128 0xc
ARM GAS  C:\DOCUME~1\z_80\LOCALS~1\Temp\ccW0M81v.s 			page 40


 2206 01c0 11       		.uleb128 0x11
 2207 01c1 01       		.uleb128 0x1
 2208 01c2 12       		.uleb128 0x12
 2209 01c3 01       		.uleb128 0x1
 2210 01c4 40       		.uleb128 0x40
 2211 01c5 06       		.uleb128 0x6
 2212 01c6 00       		.byte	0x0
 2213 01c7 00       		.byte	0x0
 2214 01c8 21       		.uleb128 0x21
 2215 01c9 34       		.uleb128 0x34
 2216 01ca 00       		.byte	0x0
 2217 01cb 03       		.uleb128 0x3
 2218 01cc 0E       		.uleb128 0xe
 2219 01cd 3A       		.uleb128 0x3a
 2220 01ce 0B       		.uleb128 0xb
 2221 01cf 3B       		.uleb128 0x3b
 2222 01d0 0B       		.uleb128 0xb
 2223 01d1 49       		.uleb128 0x49
 2224 01d2 13       		.uleb128 0x13
 2225 01d3 3F       		.uleb128 0x3f
 2226 01d4 0C       		.uleb128 0xc
 2227 01d5 3C       		.uleb128 0x3c
 2228 01d6 0C       		.uleb128 0xc
 2229 01d7 00       		.byte	0x0
 2230 01d8 00       		.byte	0x0
 2231 01d9 22       		.uleb128 0x22
 2232 01da 34       		.uleb128 0x34
 2233 01db 00       		.byte	0x0
 2234 01dc 03       		.uleb128 0x3
 2235 01dd 0E       		.uleb128 0xe
 2236 01de 3A       		.uleb128 0x3a
 2237 01df 0B       		.uleb128 0xb
 2238 01e0 3B       		.uleb128 0x3b
 2239 01e1 0B       		.uleb128 0xb
 2240 01e2 49       		.uleb128 0x49
 2241 01e3 13       		.uleb128 0x13
 2242 01e4 3F       		.uleb128 0x3f
 2243 01e5 0C       		.uleb128 0xc
 2244 01e6 02       		.uleb128 0x2
 2245 01e7 0A       		.uleb128 0xa
 2246 01e8 00       		.byte	0x0
 2247 01e9 00       		.byte	0x0
 2248 01ea 00       		.byte	0x0
 2249              		.section	.debug_pubnames,"",%progbits
 2250 0000 A3000000 		.4byte	0xa3
 2251 0004 0200     		.2byte	0x2
 2252 0006 00000000 		.4byte	.Ldebug_info0
 2253 000a 02070000 		.4byte	0x702
 2254 000e 0E050000 		.4byte	0x50e
 2255 0012 5F736368 		.ascii	"_scheduler_init\000"
 2255      6564756C 
 2255      65725F69 
 2255      6E697400 
 2256 0022 22050000 		.4byte	0x522
 2257 0026 63685363 		.ascii	"chSchReadyI\000"
 2257      68526561 
 2257      64794900 
ARM GAS  C:\DOCUME~1\z_80\LOCALS~1\Temp\ccW0M81v.s 			page 41


 2258 0032 90050000 		.4byte	0x590
 2259 0036 63685363 		.ascii	"chSchGoSleepS\000"
 2259      68476F53 
 2259      6C656570 
 2259      5300
 2260 0044 DB050000 		.4byte	0x5db
 2261 0048 63685363 		.ascii	"chSchGoSleepTimeoutS\000"
 2261      68476F53 
 2261      6C656570 
 2261      54696D65 
 2261      6F757453 
 2262 005d 2E060000 		.4byte	0x62e
 2263 0061 63685363 		.ascii	"chSchWakeupS\000"
 2263      6857616B 
 2263      65757053 
 2263      00
 2264 006e 8E060000 		.4byte	0x68e
 2265 0072 63685363 		.ascii	"chSchDoReschedule\000"
 2265      68446F52 
 2265      65736368 
 2265      6564756C 
 2265      6500
 2266 0084 CD060000 		.4byte	0x6cd
 2267 0088 63685363 		.ascii	"chSchRescheduleS\000"
 2267      68526573 
 2267      63686564 
 2267      756C6553 
 2267      00
 2268 0099 EF060000 		.4byte	0x6ef
 2269 009d 726C6973 		.ascii	"rlist\000"
 2269      7400
 2270 00a3 00000000 		.4byte	0x0
 2271              		.section	.debug_pubtypes,"",%progbits
 2272 0000 7A010000 		.4byte	0x17a
 2273 0004 0200     		.2byte	0x2
 2274 0006 00000000 		.4byte	.Ldebug_info0
 2275 000a 02070000 		.4byte	0x702
 2276 000e 3E000000 		.4byte	0x3e
 2277 0012 75696E74 		.ascii	"uint8_t\000"
 2277      385F7400 
 2278 001a 5E000000 		.4byte	0x5e
 2279 001e 696E7433 		.ascii	"int32_t\000"
 2279      325F7400 
 2280 0026 70000000 		.4byte	0x70
 2281 002a 75696E74 		.ascii	"uint32_t\000"
 2281      33325F74 
 2281      00
 2282 0033 89000000 		.4byte	0x89
 2283 0037 75696E74 		.ascii	"uint64_t\000"
 2283      36345F74 
 2283      00
 2284 0040 9B000000 		.4byte	0x9b
 2285 0044 746D6F64 		.ascii	"tmode_t\000"
 2285      655F7400 
 2286 004c A6000000 		.4byte	0xa6
 2287 0050 74737461 		.ascii	"tstate_t\000"
 2287      74655F74 
ARM GAS  C:\DOCUME~1\z_80\LOCALS~1\Temp\ccW0M81v.s 			page 42


 2287      00
 2288 0059 B1000000 		.4byte	0xb1
 2289 005d 74726566 		.ascii	"trefs_t\000"
 2289      735F7400 
 2290 0065 BC000000 		.4byte	0xbc
 2291 0069 74707269 		.ascii	"tprio_t\000"
 2291      6F5F7400 
 2292 0071 C7000000 		.4byte	0xc7
 2293 0075 6D73675F 		.ascii	"msg_t\000"
 2293      7400
 2294 007b D2000000 		.4byte	0xd2
 2295 007f 6576656E 		.ascii	"eventmask_t\000"
 2295      746D6173 
 2295      6B5F7400 
 2296 008b DD000000 		.4byte	0xdd
 2297 008f 73797374 		.ascii	"systime_t\000"
 2297      696D655F 
 2297      7400
 2298 0099 E8000000 		.4byte	0xe8
 2299 009d 636E745F 		.ascii	"cnt_t\000"
 2299      7400
 2300 00a3 F3000000 		.4byte	0xf3
 2301 00a7 54687265 		.ascii	"Thread\000"
 2301      616400
 2302 00ae 4E020000 		.4byte	0x24e
 2303 00b2 54687265 		.ascii	"ThreadsQueue\000"
 2303      61647351 
 2303      75657565 
 2303      00
 2304 00bf 70020000 		.4byte	0x270
 2305 00c3 54687265 		.ascii	"ThreadsList\000"
 2305      6164734C 
 2305      69737400 
 2306 00cf 7B020000 		.4byte	0x27b
 2307 00d3 72656761 		.ascii	"regarm_t\000"
 2307      726D5F74 
 2307      00
 2308 00dc 88020000 		.4byte	0x288
 2309 00e0 73746B61 		.ascii	"stkalign_t\000"
 2309      6C69676E 
 2309      5F7400
 2310 00eb 93020000 		.4byte	0x293
 2311 00ef 696E7463 		.ascii	"intctx\000"
 2311      747800
 2312 00f6 20030000 		.4byte	0x320
 2313 00fa 636F6E74 		.ascii	"context\000"
 2313      65787400 
 2314 0102 43030000 		.4byte	0x343
 2315 0106 76746675 		.ascii	"vtfunc_t\000"
 2315      6E635F74 
 2315      00
 2316 010f 60030000 		.4byte	0x360
 2317 0113 56697274 		.ascii	"VirtualTimer\000"
 2317      75616C54 
 2317      696D6572 
 2317      00
 2318 0120 6B030000 		.4byte	0x36b
ARM GAS  C:\DOCUME~1\z_80\LOCALS~1\Temp\ccW0M81v.s 			page 43


 2319 0124 56697274 		.ascii	"VirtualTimer\000"
 2319      75616C54 
 2319      696D6572 
 2319      00
 2320 0131 34040000 		.4byte	0x434
 2321 0135 52656164 		.ascii	"ReadyList\000"
 2321      794C6973 
 2321      7400
 2322 013f 3F040000 		.4byte	0x43f
 2323 0143 53656D61 		.ascii	"Semaphore\000"
 2323      70686F72 
 2323      6500
 2324 014d 68040000 		.4byte	0x468
 2325 0151 53656D61 		.ascii	"Semaphore\000"
 2325      70686F72 
 2325      6500
 2326 015b 73040000 		.4byte	0x473
 2327 015f 4D757465 		.ascii	"Mutex\000"
 2327      7800
 2328 0165 B0040000 		.4byte	0x4b0
 2329 0169 4D757465 		.ascii	"Mutex\000"
 2329      7800
 2330 016f FE000000 		.4byte	0xfe
 2331 0173 54687265 		.ascii	"Thread\000"
 2331      616400
 2332 017a 00000000 		.4byte	0x0
 2333              		.section	.debug_aranges,"",%progbits
 2334 0000 54000000 		.4byte	0x54
 2335 0004 0200     		.2byte	0x2
 2336 0006 00000000 		.4byte	.Ldebug_info0
 2337 000a 04       		.byte	0x4
 2338 000b 00       		.byte	0x0
 2339 000c 0000     		.2byte	0x0
 2340 000e 0000     		.2byte	0x0
 2341 0010 00000000 		.4byte	.LFB0
 2342 0014 18000000 		.4byte	.LFE0-.LFB0
 2343 0018 00000000 		.4byte	.LFB1
 2344 001c 40000000 		.4byte	.LFE1-.LFB1
 2345 0020 00000000 		.4byte	.LFB3
 2346 0024 3E000000 		.4byte	.LFE3-.LFB3
 2347 0028 00000000 		.4byte	.LFB2
 2348 002c 50000000 		.4byte	.LFE2-.LFB2
 2349 0030 00000000 		.4byte	.LFB4
 2350 0034 4C000000 		.4byte	.LFE4-.LFB4
 2351 0038 00000000 		.4byte	.LFB5
 2352 003c 60000000 		.4byte	.LFE5-.LFB5
 2353 0040 00000000 		.4byte	.LFB7
 2354 0044 4C000000 		.4byte	.LFE7-.LFB7
 2355 0048 00000000 		.4byte	.LFB6
 2356 004c 24000000 		.4byte	.LFE6-.LFB6
 2357 0050 00000000 		.4byte	0x0
 2358 0054 00000000 		.4byte	0x0
 2359              		.section	.debug_ranges,"",%progbits
 2360              	.Ldebug_ranges0:
 2361 0000 2A000000 		.4byte	.LBB2
 2362 0004 3E000000 		.4byte	.LBE2
 2363 0008 42000000 		.4byte	.LBB3
ARM GAS  C:\DOCUME~1\z_80\LOCALS~1\Temp\ccW0M81v.s 			page 44


 2364 000c 50000000 		.4byte	.LBE3
 2365 0010 00000000 		.4byte	0x0
 2366 0014 00000000 		.4byte	0x0
 2367 0018 18000000 		.4byte	.LBB5
 2368 001c 3C000000 		.4byte	.LBE5
 2369 0020 4E000000 		.4byte	.LBB10
 2370 0024 60000000 		.4byte	.LBE10
 2371 0028 40000000 		.4byte	.LBB9
 2372 002c 44000000 		.4byte	.LBE9
 2373 0030 00000000 		.4byte	0x0
 2374 0034 00000000 		.4byte	0x0
 2375 0038 2E000000 		.4byte	.LBB7
 2376 003c 3C000000 		.4byte	.LBE7
 2377 0040 4E000000 		.4byte	.LBB8
 2378 0044 60000000 		.4byte	.LBE8
 2379 0048 40000000 		.4byte	.LBB6
 2380 004c 44000000 		.4byte	.LBE6
 2381 0050 00000000 		.4byte	0x0
 2382 0054 00000000 		.4byte	0x0
 2383 0058 26000000 		.4byte	.LBB11
 2384 005c 3A000000 		.4byte	.LBE11
 2385 0060 3E000000 		.4byte	.LBB12
 2386 0064 4C000000 		.4byte	.LBE12
 2387 0068 00000000 		.4byte	0x0
 2388 006c 00000000 		.4byte	0x0
 2389 0070 00000000 		.4byte	.LFB0
 2390 0074 18000000 		.4byte	.LFE0
 2391 0078 00000000 		.4byte	.LFB1
 2392 007c 40000000 		.4byte	.LFE1
 2393 0080 00000000 		.4byte	.LFB3
 2394 0084 3E000000 		.4byte	.LFE3
 2395 0088 00000000 		.4byte	.LFB2
 2396 008c 50000000 		.4byte	.LFE2
 2397 0090 00000000 		.4byte	.LFB4
 2398 0094 4C000000 		.4byte	.LFE4
 2399 0098 00000000 		.4byte	.LFB5
 2400 009c 60000000 		.4byte	.LFE5
 2401 00a0 00000000 		.4byte	.LFB7
 2402 00a4 4C000000 		.4byte	.LFE7
 2403 00a8 00000000 		.4byte	.LFB6
 2404 00ac 24000000 		.4byte	.LFE6
 2405 00b0 00000000 		.4byte	0x0
 2406 00b4 00000000 		.4byte	0x0
 2407              		.section	.debug_str,"MS",%progbits,1
 2408              	.LASF36:
 2409 0000 705F6D73 		.ascii	"p_msg\000"
 2409      6700
 2410              	.LASF69:
 2411 0006 7264796D 		.ascii	"rdymsg\000"
 2411      736700
 2412              	.LASF11:
 2413 000d 75696E74 		.ascii	"uint64_t\000"
 2413      36345F74 
 2413      00
 2414              	.LASF86:
 2415 0016 433A5C70 		.ascii	"C:\\projects\\ipm\\soft\\firmware\\valve\000"
 2415      726F6A65 
ARM GAS  C:\DOCUME~1\z_80\LOCALS~1\Temp\ccW0M81v.s 			page 45


 2415      6374735C 
 2415      69706D5C 
 2415      736F6674 
 2416              	.LASF70:
 2417 003a 65786974 		.ascii	"exitcode\000"
 2417      636F6465 
 2417      00
 2418              	.LASF24:
 2419 0043 705F7072 		.ascii	"p_prio\000"
 2419      696F00
 2420              	.LASF81:
 2421 004a 5F736368 		.ascii	"_scheduler_init\000"
 2421      6564756C 
 2421      65725F69 
 2421      6E697400 
 2422              	.LASF10:
 2423 005a 6C6F6E67 		.ascii	"long long int\000"
 2423      206C6F6E 
 2423      6720696E 
 2423      7400
 2424              	.LASF1:
 2425 0068 7369676E 		.ascii	"signed char\000"
 2425      65642063 
 2425      68617200 
 2426              	.LASF40:
 2427 0074 705F6D70 		.ascii	"p_mpool\000"
 2427      6F6F6C00 
 2428              	.LASF12:
 2429 007c 6C6F6E67 		.ascii	"long long unsigned int\000"
 2429      206C6F6E 
 2429      6720756E 
 2429      7369676E 
 2429      65642069 
 2430              	.LASF66:
 2431 0093 6D5F7175 		.ascii	"m_queue\000"
 2431      65756500 
 2432              	.LASF7:
 2433 009b 6C6F6E67 		.ascii	"long int\000"
 2433      20696E74 
 2433      00
 2434              	.LASF14:
 2435 00a4 74737461 		.ascii	"tstate_t\000"
 2435      74655F74 
 2435      00
 2436              	.LASF26:
 2437 00ad 705F6E65 		.ascii	"p_newer\000"
 2437      77657200 
 2438              	.LASF63:
 2439 00b5 735F7175 		.ascii	"s_queue\000"
 2439      65756500 
 2440              	.LASF82:
 2441 00bd 63685363 		.ascii	"chSchRescheduleS\000"
 2441      68526573 
 2441      63686564 
 2441      756C6553 
 2441      00
 2442              	.LASF57:
ARM GAS  C:\DOCUME~1\z_80\LOCALS~1\Temp\ccW0M81v.s 			page 46


 2443 00ce 725F6E65 		.ascii	"r_newer\000"
 2443      77657200 
 2444              	.LASF43:
 2445 00d6 72656761 		.ascii	"regarm_t\000"
 2445      726D5F74 
 2445      00
 2446              	.LASF50:
 2447 00df 76745F70 		.ascii	"vt_prev\000"
 2447      72657600 
 2448              	.LASF80:
 2449 00e7 63685363 		.ascii	"chSchDoReschedule\000"
 2449      68446F52 
 2449      65736368 
 2449      6564756C 
 2449      6500
 2450              	.LASF20:
 2451 00f9 636E745F 		.ascii	"cnt_t\000"
 2451      7400
 2452              	.LASF29:
 2453 00ff 705F7374 		.ascii	"p_stklimit\000"
 2453      6B6C696D 
 2453      697400
 2454              	.LASF0:
 2455 010a 756E7369 		.ascii	"unsigned int\000"
 2455      676E6564 
 2455      20696E74 
 2455      00
 2456              	.LASF87:
 2457 0117 77616B65 		.ascii	"wakeup\000"
 2457      757000
 2458              	.LASF49:
 2459 011e 76745F6E 		.ascii	"vt_next\000"
 2459      65787400 
 2460              	.LASF9:
 2461 0126 6C6F6E67 		.ascii	"long unsigned int\000"
 2461      20756E73 
 2461      69676E65 
 2461      6420696E 
 2461      7400
 2462              	.LASF64:
 2463 0138 735F636E 		.ascii	"s_cnt\000"
 2463      7400
 2464              	.LASF85:
 2465 013e 2E2E2F63 		.ascii	"../chibios_2.4.x/os/kernel/src/chschd.c\000"
 2465      68696269 
 2465      6F735F32 
 2465      2E342E78 
 2465      2F6F732F 
 2466              	.LASF4:
 2467 0166 73686F72 		.ascii	"short unsigned int\000"
 2467      7420756E 
 2467      7369676E 
 2467      65642069 
 2467      6E7400
 2468              	.LASF79:
 2469 0179 63685363 		.ascii	"chSchWakeupS\000"
 2469      6857616B 
ARM GAS  C:\DOCUME~1\z_80\LOCALS~1\Temp\ccW0M81v.s 			page 47


 2469      65757053 
 2469      00
 2470              	.LASF17:
 2471 0186 6D73675F 		.ascii	"msg_t\000"
 2471      7400
 2472              	.LASF13:
 2473 018c 746D6F64 		.ascii	"tmode_t\000"
 2473      655F7400 
 2474              	.LASF42:
 2475 0194 54687265 		.ascii	"ThreadsList\000"
 2475      6164734C 
 2475      69737400 
 2476              	.LASF18:
 2477 01a0 6576656E 		.ascii	"eventmask_t\000"
 2477      746D6173 
 2477      6B5F7400 
 2478              	.LASF65:
 2479 01ac 4D757465 		.ascii	"Mutex\000"
 2479      7800
 2480              	.LASF44:
 2481 01b2 73746B61 		.ascii	"stkalign_t\000"
 2481      6C69676E 
 2481      5F7400
 2482              	.LASF51:
 2483 01bd 76745F74 		.ascii	"vt_time\000"
 2483      696D6500 
 2484              	.LASF52:
 2485 01c5 76745F66 		.ascii	"vt_func\000"
 2485      756E6300 
 2486              	.LASF27:
 2487 01cd 705F6F6C 		.ascii	"p_older\000"
 2487      64657200 
 2488              	.LASF56:
 2489 01d5 725F6374 		.ascii	"r_ctx\000"
 2489      7800
 2490              	.LASF41:
 2491 01db 54687265 		.ascii	"ThreadsQueue\000"
 2491      61647351 
 2491      75657565 
 2491      00
 2492              	.LASF77:
 2493 01e8 74696D65 		.ascii	"time\000"
 2493      00
 2494              	.LASF60:
 2495 01ed 725F6375 		.ascii	"r_current\000"
 2495      7272656E 
 2495      7400
 2496              	.LASF58:
 2497 01f7 725F6F6C 		.ascii	"r_older\000"
 2497      64657200 
 2498              	.LASF15:
 2499 01ff 74726566 		.ascii	"trefs_t\000"
 2499      735F7400 
 2500              	.LASF23:
 2501 0207 705F7072 		.ascii	"p_prev\000"
 2501      657600
 2502              	.LASF16:
ARM GAS  C:\DOCUME~1\z_80\LOCALS~1\Temp\ccW0M81v.s 			page 48


 2503 020e 74707269 		.ascii	"tprio_t\000"
 2503      6F5F7400 
 2504              	.LASF6:
 2505 0216 696E7433 		.ascii	"int32_t\000"
 2505      325F7400 
 2506              	.LASF2:
 2507 021e 756E7369 		.ascii	"unsigned char\000"
 2507      676E6564 
 2507      20636861 
 2507      7200
 2508              	.LASF74:
 2509 022c 6E657773 		.ascii	"newstate\000"
 2509      74617465 
 2509      00
 2510              	.LASF38:
 2511 0235 705F6D74 		.ascii	"p_mtxlist\000"
 2511      786C6973 
 2511      7400
 2512              	.LASF3:
 2513 023f 73686F72 		.ascii	"short int\000"
 2513      7420696E 
 2513      7400
 2514              	.LASF30:
 2515 0249 705F7374 		.ascii	"p_state\000"
 2515      61746500 
 2516              	.LASF55:
 2517 0251 725F7072 		.ascii	"r_prio\000"
 2517      696F00
 2518              	.LASF72:
 2519 0258 65776D61 		.ascii	"ewmask\000"
 2519      736B00
 2520              	.LASF22:
 2521 025f 705F6E65 		.ascii	"p_next\000"
 2521      787400
 2522              	.LASF31:
 2523 0266 705F666C 		.ascii	"p_flags\000"
 2523      61677300 
 2524              	.LASF21:
 2525 026e 54687265 		.ascii	"Thread\000"
 2525      616400
 2526              	.LASF78:
 2527 0275 63685363 		.ascii	"chSchGoSleepS\000"
 2527      68476F53 
 2527      6C656570 
 2527      5300
 2528              	.LASF37:
 2529 0283 705F6570 		.ascii	"p_epending\000"
 2529      656E6469 
 2529      6E6700
 2530              	.LASF8:
 2531 028e 75696E74 		.ascii	"uint32_t\000"
 2531      33325F74 
 2531      00
 2532              	.LASF54:
 2533 0297 725F7175 		.ascii	"r_queue\000"
 2533      65756500 
 2534              	.LASF48:
ARM GAS  C:\DOCUME~1\z_80\LOCALS~1\Temp\ccW0M81v.s 			page 49


 2535 029f 56697274 		.ascii	"VirtualTimer\000"
 2535      75616C54 
 2535      696D6572 
 2535      00
 2536              	.LASF73:
 2537 02ac 63686172 		.ascii	"char\000"
 2537      00
 2538              	.LASF75:
 2539 02b1 63685363 		.ascii	"chSchReadyI\000"
 2539      68526561 
 2539      64794900 
 2540              	.LASF68:
 2541 02bd 6D5F6E65 		.ascii	"m_next\000"
 2541      787400
 2542              	.LASF19:
 2543 02c4 73797374 		.ascii	"systime_t\000"
 2543      696D655F 
 2543      7400
 2544              	.LASF39:
 2545 02ce 705F7265 		.ascii	"p_realprio\000"
 2545      616C7072 
 2545      696F00
 2546              	.LASF47:
 2547 02d9 76746675 		.ascii	"vtfunc_t\000"
 2547      6E635F74 
 2547      00
 2548              	.LASF33:
 2549 02e2 705F7469 		.ascii	"p_time\000"
 2549      6D6500
 2550              	.LASF45:
 2551 02e9 696E7463 		.ascii	"intctx\000"
 2551      747800
 2552              	.LASF35:
 2553 02f0 705F6D73 		.ascii	"p_msgqueue\000"
 2553      67717565 
 2553      756500
 2554              	.LASF53:
 2555 02fb 76745F70 		.ascii	"vt_par\000"
 2555      617200
 2556              	.LASF62:
 2557 0302 53656D61 		.ascii	"Semaphore\000"
 2557      70686F72 
 2557      6500
 2558              	.LASF32:
 2559 030c 705F7265 		.ascii	"p_refs\000"
 2559      667300
 2560              	.LASF61:
 2561 0313 52656164 		.ascii	"ReadyList\000"
 2561      794C6973 
 2561      7400
 2562              	.LASF83:
 2563 031d 726C6973 		.ascii	"rlist\000"
 2563      7400
 2564              	.LASF5:
 2565 0323 75696E74 		.ascii	"uint8_t\000"
 2565      385F7400 
 2566              	.LASF71:
ARM GAS  C:\DOCUME~1\z_80\LOCALS~1\Temp\ccW0M81v.s 			page 50


 2567 032b 77746F62 		.ascii	"wtobjp\000"
 2567      6A7000
 2568              	.LASF84:
 2569 0332 474E5520 		.ascii	"GNU C 4.5.2\000"
 2569      4320342E 
 2569      352E3200 
 2570              	.LASF28:
 2571 033e 705F6E61 		.ascii	"p_name\000"
 2571      6D6500
 2572              	.LASF46:
 2573 0345 636F6E74 		.ascii	"context\000"
 2573      65787400 
 2574              	.LASF76:
 2575 034d 63685363 		.ascii	"chSchGoSleepTimeoutS\000"
 2575      68476F53 
 2575      6C656570 
 2575      54696D65 
 2575      6F757453 
 2576              	.LASF59:
 2577 0362 725F7072 		.ascii	"r_preempt\000"
 2577      65656D70 
 2577      7400
 2578              	.LASF67:
 2579 036c 6D5F6F77 		.ascii	"m_owner\000"
 2579      6E657200 
 2580              	.LASF25:
 2581 0374 705F6374 		.ascii	"p_ctx\000"
 2581      7800
 2582              	.LASF34:
 2583 037a 705F7761 		.ascii	"p_waiting\000"
 2583      6974696E 
 2583      6700
 2584              		.ident	"GCC: (Sourcery G++ Lite 2011.03-42) 4.5.2"
ARM GAS  C:\DOCUME~1\z_80\LOCALS~1\Temp\ccW0M81v.s 			page 51


DEFINED SYMBOLS
                            *ABS*:00000000 chschd.c
C:\DOCUME~1\z_80\LOCALS~1\Temp\ccW0M81v.s:24     .text._scheduler_init:00000000 $t
C:\DOCUME~1\z_80\LOCALS~1\Temp\ccW0M81v.s:30     .text._scheduler_init:00000000 _scheduler_init
C:\DOCUME~1\z_80\LOCALS~1\Temp\ccW0M81v.s:59     .text._scheduler_init:00000014 $d
C:\DOCUME~1\z_80\LOCALS~1\Temp\ccW0M81v.s:64     .text.chSchReadyI:00000000 $t
C:\DOCUME~1\z_80\LOCALS~1\Temp\ccW0M81v.s:70     .text.chSchReadyI:00000000 chSchReadyI
C:\DOCUME~1\z_80\LOCALS~1\Temp\ccW0M81v.s:131    .text.chSchReadyI:00000038 $d
C:\DOCUME~1\z_80\LOCALS~1\Temp\ccW0M81v.s:137    .text.wakeup:00000000 $t
C:\DOCUME~1\z_80\LOCALS~1\Temp\ccW0M81v.s:142    .text.wakeup:00000000 wakeup
C:\DOCUME~1\z_80\LOCALS~1\Temp\ccW0M81v.s:164    .text.wakeup:00000010 $d
C:\DOCUME~1\z_80\LOCALS~1\Temp\ccW0M81v.s:178    .text.wakeup:0000001e $t
C:\DOCUME~1\z_80\LOCALS~1\Temp\ccW0M81v.s:208    .text.chSchGoSleepS:00000000 $t
C:\DOCUME~1\z_80\LOCALS~1\Temp\ccW0M81v.s:214    .text.chSchGoSleepS:00000000 chSchGoSleepS
C:\DOCUME~1\z_80\LOCALS~1\Temp\ccW0M81v.s:282    .text.chSchGoSleepS:00000048 $d
C:\DOCUME~1\z_80\LOCALS~1\Temp\ccW0M81v.s:289    .text.chSchGoSleepTimeoutS:00000000 $t
C:\DOCUME~1\z_80\LOCALS~1\Temp\ccW0M81v.s:295    .text.chSchGoSleepTimeoutS:00000000 chSchGoSleepTimeoutS
C:\DOCUME~1\z_80\LOCALS~1\Temp\ccW0M81v.s:355    .text.chSchGoSleepTimeoutS:00000044 $d
C:\DOCUME~1\z_80\LOCALS~1\Temp\ccW0M81v.s:361    .text.chSchWakeupS:00000000 $t
C:\DOCUME~1\z_80\LOCALS~1\Temp\ccW0M81v.s:367    .text.chSchWakeupS:00000000 chSchWakeupS
C:\DOCUME~1\z_80\LOCALS~1\Temp\ccW0M81v.s:455    .text.chSchWakeupS:00000058 $d
C:\DOCUME~1\z_80\LOCALS~1\Temp\ccW0M81v.s:463    .text.chSchDoReschedule:00000000 $t
C:\DOCUME~1\z_80\LOCALS~1\Temp\ccW0M81v.s:469    .text.chSchDoReschedule:00000000 chSchDoReschedule
C:\DOCUME~1\z_80\LOCALS~1\Temp\ccW0M81v.s:531    .text.chSchDoReschedule:00000044 $d
C:\DOCUME~1\z_80\LOCALS~1\Temp\ccW0M81v.s:538    .text.chSchRescheduleS:00000000 $t
C:\DOCUME~1\z_80\LOCALS~1\Temp\ccW0M81v.s:544    .text.chSchRescheduleS:00000000 chSchRescheduleS
C:\DOCUME~1\z_80\LOCALS~1\Temp\ccW0M81v.s:574    .text.chSchRescheduleS:00000020 $d
C:\DOCUME~1\z_80\LOCALS~1\Temp\ccW0M81v.s:591    .bss.rlist:00000000 rlist
C:\DOCUME~1\z_80\LOCALS~1\Temp\ccW0M81v.s:580    .rodata.str1.4:00000000 $d
C:\DOCUME~1\z_80\LOCALS~1\Temp\ccW0M81v.s:587    .bss.rlist:00000000 $d
                     .debug_frame:00000010 $d
C:\DOCUME~1\z_80\LOCALS~1\Temp\ccW0M81v.s:63     .text._scheduler_init:00000018 $t
C:\DOCUME~1\z_80\LOCALS~1\Temp\ccW0M81v.s:360    .text.chSchGoSleepTimeoutS:0000004c $t
C:\DOCUME~1\z_80\LOCALS~1\Temp\ccW0M81v.s:537    .text.chSchDoReschedule:0000004c $t
C:\DOCUME~1\z_80\LOCALS~1\Temp\ccW0M81v.s:579    .text.chSchRescheduleS:00000024 $t

UNDEFINED SYMBOLS
chDbgPanic
dequeue
chDbgCheckClassS
fifo_remove
dbg_trace
_port_switch
chVTSetI
chVTResetI
