ARM GAS  C:\DOCUME~1\z_80\LOCALS~1\Temp\ccW0M81v.s 			page 1


   1              		.syntax unified
   2              		.cpu cortex-m3
   3              		.fpu softvfp
   4              		.eabi_attribute 20, 1
   5              		.eabi_attribute 21, 1
   6              		.eabi_attribute 23, 3
   7              		.eabi_attribute 24, 1
   8              		.eabi_attribute 25, 1
   9              		.eabi_attribute 26, 1
  10              		.eabi_attribute 30, 2
  11              		.eabi_attribute 18, 4
  12              		.thumb
  13              		.file	"chschd.c"
  20 0000 A8020000 		.text
  20      02006401 
  20      00000201 
  20      FB0E0D00 
  20      01010101 
  21              	.Ltext0:
  22              		.cfi_sections	.debug_frame
  23              		.section	.text._scheduler_init,"ax",%progbits
  24              		.align	2
  25              		.p2align 4,,15
  26              		.global	_scheduler_init
  27              		.thumb
  28              		.thumb_func
  29              		.type	_scheduler_init, %function
  30              	_scheduler_init:
  31              	.LFB0:
  32              		.file 1 "../chibios_2.4.x/os/kernel/src/chschd.c"
  33              		.loc 1 55 0
  34              		.cfi_startproc
  35              		@ args = 0, pretend = 0, frame = 0
  36              		@ frame_needed = 0, uses_anonymous_args = 0
  37              		@ link register save eliminated.
  38              		.loc 1 57 0
  39 0000 044B     		ldr	r3, .L2
  40              		.loc 1 58 0
  41 0002 0020     		movs	r0, #0
  42              		.loc 1 60 0
  43 0004 1422     		movs	r2, #20
  44              		.loc 1 57 0
  45 0006 5B60     		str	r3, [r3, #4]
  46 0008 1B60     		str	r3, [r3, #0]
  47              		.loc 1 58 0
  48 000a 9860     		str	r0, [r3, #8]
  49              		.loc 1 60 0
  50 000c 9A61     		str	r2, [r3, #24]
  51              		.loc 1 63 0
  52 000e 5B61     		str	r3, [r3, #20]
  53 0010 1B61     		str	r3, [r3, #16]
ARM GAS  C:\DOCUME~1\z_80\LOCALS~1\Temp\ccW0M81v.s 			page 2


  54              		.loc 1 65 0
  55 0012 7047     		bx	lr
  56              	.L3:
  57              		.align	2
  58              	.L2:
  59 0014 00000000 		.word	.LANCHOR0
  60              		.cfi_endproc
  61              	.LFE0:
  62              		.size	_scheduler_init, .-_scheduler_init
  63 0018 AFF30080 		.section	.text.chSchReadyI,"ax",%progbits
  63      AFF30080 
  64              		.align	2
  65              		.p2align 4,,15
  66              		.global	chSchReadyI
  67              		.thumb
  68              		.thumb_func
  69              		.type	chSchReadyI, %function
  70              	chSchReadyI:
  71              	.LFB1:
  72              		.loc 1 82 0
  73              		.cfi_startproc
  74              		@ args = 0, pretend = 0, frame = 0
  75              		@ frame_needed = 0, uses_anonymous_args = 0
  76              	.LVL0:
  77 0000 10B5     		push	{r4, lr}
  78              	.LCFI0:
  79              		.cfi_def_cfa_offset 8
  80              		.loc 1 86 0
  81 0002 90F82030 		ldrb	r3, [r0, #32]	@ zero_extendqisi2
  82              		.loc 1 82 0
  83 0006 0446     		mov	r4, r0
  84              		.cfi_offset 14, -4
  85              		.cfi_offset 4, -8
  86              		.loc 1 86 0
  87 0008 8BB1     		cbz	r3, .L5
  88              		.loc 1 86 0 is_stmt 0 discriminator 2
  89 000a 0E2B     		cmp	r3, #14
  90 000c 0FD0     		beq	.L5
  91              	.LVL1:
  92              	.L6:
  93              		.loc 1 91 0 is_stmt 1
  94 000e 0022     		movs	r2, #0
  95              		.loc 1 92 0
  96 0010 094B     		ldr	r3, .L10
  97              	.LVL2:
  98 0012 A168     		ldr	r1, [r4, #8]
  99              		.loc 1 91 0
 100 0014 84F82020 		strb	r2, [r4, #32]
 101              	.LVL3:
 102              	.L7:
 103              		.loc 1 94 0 discriminator 1
 104 0018 1B68     		ldr	r3, [r3, #0]
 105              	.LVL4:
 106              		.loc 1 95 0 discriminator 1
 107 001a 9868     		ldr	r0, [r3, #8]
 108 001c 8842     		cmp	r0, r1
 109 001e FBD2     		bcs	.L7
ARM GAS  C:\DOCUME~1\z_80\LOCALS~1\Temp\ccW0M81v.s 			page 3


 110              		.loc 1 98 0
 111 0020 5968     		ldr	r1, [r3, #4]
 112              		.loc 1 97 0
 113 0022 2360     		str	r3, [r4, #0]
 114              		.loc 1 98 0
 115 0024 6160     		str	r1, [r4, #4]
 116              		.loc 1 99 0
 117 0026 0C60     		str	r4, [r1, #0]
 118 0028 5C60     		str	r4, [r3, #4]
 119              		.loc 1 101 0
 120 002a 2046     		mov	r0, r4
 121 002c 10BD     		pop	{r4, pc}
 122              	.LVL5:
 123              	.L5:
 124              		.loc 1 86 0 discriminator 1
 125 002e 0348     		ldr	r0, .L10+4
 126 0030 FFF7FEFF 		bl	chDbgPanic
 127 0034 EBE7     		b	.L6
 128              	.L11:
 129 0036 00BF     		.align	2
 130              	.L10:
 131 0038 00000000 		.word	.LANCHOR0
 132 003c 00000000 		.word	.LC0
 133              		.cfi_endproc
 134              	.LFE1:
 135              		.size	chSchReadyI, .-chSchReadyI
 136              		.section	.text.wakeup,"ax",%progbits
 137              		.align	2
 138              		.p2align 4,,15
 139              		.thumb
 140              		.thumb_func
 141              		.type	wakeup, %function
 142              	wakeup:
 143              	.LFB3:
 144              		.loc 1 133 0
 145              		.cfi_startproc
 146              		@ args = 0, pretend = 0, frame = 0
 147              		@ frame_needed = 0, uses_anonymous_args = 0
 148              	.LVL6:
 149 0000 10B5     		push	{r4, lr}
 150              	.LCFI1:
 151              		.cfi_def_cfa_offset 8
 152              		.loc 1 136 0
 153 0002 90F82030 		ldrb	r3, [r0, #32]	@ zero_extendqisi2
 154              		.loc 1 133 0
 155 0006 0446     		mov	r4, r0
 156              		.cfi_offset 14, -4
 157              		.cfi_offset 4, -8
 158              	.LVL7:
 159              		.loc 1 136 0
 160 0008 0D2B     		cmp	r3, #13
 161 000a 0FD8     		bhi	.L13
 162 000c DFE803F0 		tbb	[pc, r3]
 163              	.L17:
 164 0010 16       		.byte	(.L12-.L17)/2
 165 0011 0E       		.byte	(.L13-.L17)/2
 166 0012 0E       		.byte	(.L13-.L17)/2
ARM GAS  C:\DOCUME~1\z_80\LOCALS~1\Temp\ccW0M81v.s 			page 4


 167 0013 07       		.byte	(.L15-.L17)/2
 168 0014 0E       		.byte	(.L13-.L17)/2
 169 0015 0B       		.byte	(.L16-.L17)/2
 170 0016 0E       		.byte	(.L13-.L17)/2
 171 0017 0E       		.byte	(.L13-.L17)/2
 172 0018 0E       		.byte	(.L13-.L17)/2
 173 0019 0E       		.byte	(.L13-.L17)/2
 174 001a 0E       		.byte	(.L13-.L17)/2
 175 001b 0E       		.byte	(.L13-.L17)/2
 176 001c 0E       		.byte	(.L13-.L17)/2
 177 001d 0B       		.byte	(.L16-.L17)/2
 178              		.align	1
 179              	.LVL8:
 180              	.L15:
 181              		.loc 1 145 0
 182 001e 806A     		ldr	r0, [r0, #40]
 183              	.LVL9:
 184 0020 8168     		ldr	r1, [r0, #8]
 185 0022 4A1C     		adds	r2, r1, #1
 186 0024 8260     		str	r2, [r0, #8]
 187              	.L16:
 188              		.loc 1 155 0
 189 0026 2046     		mov	r0, r4
 190 0028 FFF7FEFF 		bl	dequeue
 191              	.L13:
 192              		.loc 1 158 0
 193 002c 4FF0FF33 		mov	r3, #-1
 194              		.loc 1 159 0
 195 0030 2046     		mov	r0, r4
 196              		.loc 1 158 0
 197 0032 A362     		str	r3, [r4, #40]
 198              		.loc 1 160 0
 199 0034 BDE81040 		pop	{r4, lr}
 200              		.loc 1 159 0
 201 0038 FFF7FEBF 		b	chSchReadyI
 202              	.L12:
 203 003c 10BD     		pop	{r4, pc}
 204              		.cfi_endproc
 205              	.LFE3:
 206              		.size	wakeup, .-wakeup
 207 003e 00BF     		.section	.text.chSchGoSleepS,"ax",%progbits
 208              		.align	2
 209              		.p2align 4,,15
 210              		.global	chSchGoSleepS
 211              		.thumb
 212              		.thumb_func
 213              		.type	chSchGoSleepS, %function
 214              	chSchGoSleepS:
 215              	.LFB2:
 216              		.loc 1 114 0
 217              		.cfi_startproc
 218              		@ args = 0, pretend = 0, frame = 0
 219              		@ frame_needed = 0, uses_anonymous_args = 0
 220              	.LVL10:
 221 0000 70B5     		push	{r4, r5, r6, lr}
 222              	.LCFI2:
 223              		.cfi_def_cfa_offset 16
ARM GAS  C:\DOCUME~1\z_80\LOCALS~1\Temp\ccW0M81v.s 			page 5


 224              		.loc 1 119 0
 225 0002 114C     		ldr	r4, .L20
 226              		.cfi_offset 14, -4
 227              		.cfi_offset 6, -8
 228              		.cfi_offset 5, -12
 229              		.cfi_offset 4, -16
 230              		.loc 1 114 0
 231 0004 0646     		mov	r6, r0
 232              		.loc 1 117 0
 233 0006 FFF7FEFF 		bl	chDbgCheckClassS
 234              	.LVL11:
 235              		.loc 1 119 0
 236 000a E569     		ldr	r5, [r4, #28]
 237              	.LVL12:
 238              		.loc 1 121 0
 239 000c 1423     		movs	r3, #20
 240              		.loc 1 119 0
 241 000e 85F82060 		strb	r6, [r5, #32]
 242              		.loc 1 123 0
 243 0012 2046     		mov	r0, r4
 244              		.loc 1 121 0
 245 0014 A361     		str	r3, [r4, #24]
 246              		.loc 1 123 0
 247 0016 FFF7FEFF 		bl	fifo_remove
 248              	.LVL13:
 249              		.loc 1 124 0
 250 001a 0122     		movs	r2, #1
 251              		.loc 1 123 0
 252 001c 0146     		mov	r1, r0
 253              		.loc 1 124 0
 254 001e 80F82020 		strb	r2, [r0, #32]
 255              		.loc 1 125 0
 256 0022 2846     		mov	r0, r5
 257              		.loc 1 123 0
 258 0024 E161     		str	r1, [r4, #28]
 259              		.loc 1 125 0
 260 0026 FFF7FEFF 		bl	dbg_trace
 261              	.LBB2:
 262 002a EA69     		ldr	r2, [r5, #28]
 263 002c ADF12403 		sub	r3, sp, #36
 264 0030 9A42     		cmp	r2, r3
 265 0032 02D9     		bls	.L19
 266              		.loc 1 125 0 is_stmt 0 discriminator 1
 267 0034 0548     		ldr	r0, .L20+4
 268 0036 FFF7FEFF 		bl	chDbgPanic
 269              	.L19:
 270              		.loc 1 125 0 discriminator 2
 271 003a E069     		ldr	r0, [r4, #28]
 272 003c 2946     		mov	r1, r5
 273              	.LBE2:
 274              		.loc 1 126 0 is_stmt 1 discriminator 2
 275 003e BDE87040 		pop	{r4, r5, r6, lr}
 276              	.LBB3:
 277              		.loc 1 125 0 discriminator 2
 278 0042 FFF7FEBF 		b	_port_switch
 279              	.L21:
 280 0046 00BF     		.align	2
ARM GAS  C:\DOCUME~1\z_80\LOCALS~1\Temp\ccW0M81v.s 			page 6


 281              	.L20:
 282 0048 00000000 		.word	.LANCHOR0
 283 004c 14000000 		.word	.LC1
 284              	.LBE3:
 285              		.cfi_endproc
 286              	.LFE2:
 287              		.size	chSchGoSleepS, .-chSchGoSleepS
 288              		.section	.text.chSchGoSleepTimeoutS,"ax",%progbits
 289              		.align	2
 290              		.p2align 4,,15
 291              		.global	chSchGoSleepTimeoutS
 292              		.thumb
 293              		.thumb_func
 294              		.type	chSchGoSleepTimeoutS, %function
 295              	chSchGoSleepTimeoutS:
 296              	.LFB4:
 297              		.loc 1 183 0
 298              		.cfi_startproc
 299              		@ args = 0, pretend = 0, frame = 24
 300              		@ frame_needed = 0, uses_anonymous_args = 0
 301              	.LVL14:
 302 0000 70B5     		push	{r4, r5, r6, lr}
 303              	.LCFI3:
 304              		.cfi_def_cfa_offset 16
 305 0002 0E46     		mov	r6, r1
 306              		.cfi_offset 14, -4
 307              		.cfi_offset 6, -8
 308              		.cfi_offset 5, -12
 309              		.cfi_offset 4, -16
 310 0004 86B0     		sub	sp, sp, #24
 311              	.LCFI4:
 312              		.cfi_def_cfa_offset 40
 313              		.loc 1 183 0
 314 0006 0546     		mov	r5, r0
 315              		.loc 1 185 0
 316 0008 FFF7FEFF 		bl	chDbgCheckClassS
 317              	.LVL15:
 318              		.loc 1 187 0
 319 000c B6F1FF3F 		cmp	r6, #-1
 320 0010 12D0     		beq	.L23
 321              	.LBB4:
 322              		.loc 1 190 0
 323 0012 0C4C     		ldr	r4, .L25
 324 0014 3146     		mov	r1, r6
 325 0016 E369     		ldr	r3, [r4, #28]
 326 0018 0B4A     		ldr	r2, .L25+4
 327 001a 01A8     		add	r0, sp, #4
 328 001c FFF7FEFF 		bl	chVTSetI
 329              		.loc 1 191 0
 330 0020 2846     		mov	r0, r5
 331 0022 FFF7FEFF 		bl	chSchGoSleepS
 332              		.loc 1 192 0
 333 0026 049B     		ldr	r3, [sp, #16]
 334 0028 13B1     		cbz	r3, .L24
 335              		.loc 1 193 0
 336 002a 01A8     		add	r0, sp, #4
 337 002c FFF7FEFF 		bl	chVTResetI
ARM GAS  C:\DOCUME~1\z_80\LOCALS~1\Temp\ccW0M81v.s 			page 7


 338              	.L24:
 339              	.LBE4:
 340              		.loc 1 197 0
 341 0030 E069     		ldr	r0, [r4, #28]
 342              		.loc 1 198 0
 343 0032 806A     		ldr	r0, [r0, #40]
 344 0034 06B0     		add	sp, sp, #24
 345 0036 70BD     		pop	{r4, r5, r6, pc}
 346              	.L23:
 347              		.loc 1 196 0
 348 0038 2846     		mov	r0, r5
 349 003a FFF7FEFF 		bl	chSchGoSleepS
 350 003e 014C     		ldr	r4, .L25
 351 0040 F6E7     		b	.L24
 352              	.L26:
 353 0042 00BF     		.align	2
 354              	.L25:
 355 0044 00000000 		.word	.LANCHOR0
 356 0048 00000000 		.word	wakeup
 357              		.cfi_endproc
 358              	.LFE4:
 359              		.size	chSchGoSleepTimeoutS, .-chSchGoSleepTimeoutS
 360 004c AFF30080 		.section	.text.chSchWakeupS,"ax",%progbits
 361              		.align	2
 362              		.p2align 4,,15
 363              		.global	chSchWakeupS
 364              		.thumb
 365              		.thumb_func
 366              		.type	chSchWakeupS, %function
 367              	chSchWakeupS:
 368              	.LFB5:
 369              		.loc 1 219 0
 370              		.cfi_startproc
 371              		@ args = 0, pretend = 0, frame = 0
 372              		@ frame_needed = 0, uses_anonymous_args = 0
 373              	.LVL16:
 374 0000 70B5     		push	{r4, r5, r6, lr}
 375              	.LCFI5:
 376              		.cfi_def_cfa_offset 16
 377              		.loc 1 228 0
 378 0002 154D     		ldr	r5, .L32
 379              		.cfi_offset 14, -4
 380              		.cfi_offset 6, -8
 381              		.cfi_offset 5, -12
 382              		.cfi_offset 4, -16
 383              		.loc 1 219 0
 384 0004 0446     		mov	r4, r0
 385 0006 0E46     		mov	r6, r1
 386              		.loc 1 221 0
 387 0008 FFF7FEFF 		bl	chDbgCheckClassS
 388              	.LVL17:
 389              		.loc 1 228 0
 390 000c E869     		ldr	r0, [r5, #28]
 391 000e A268     		ldr	r2, [r4, #8]
 392 0010 8368     		ldr	r3, [r0, #8]
 393              		.loc 1 223 0
 394 0012 A662     		str	r6, [r4, #40]
ARM GAS  C:\DOCUME~1\z_80\LOCALS~1\Temp\ccW0M81v.s 			page 8


 395              		.loc 1 228 0
 396 0014 9A42     		cmp	r2, r3
 397 0016 15D9     		bls	.L30
 398              	.LBB5:
 399              		.loc 1 231 0
 400 0018 FFF7FEFF 		bl	chSchReadyI
 401              		.loc 1 236 0
 402 001c 0123     		movs	r3, #1
 403              		.loc 1 233 0
 404 001e 1422     		movs	r2, #20
 405              		.loc 1 231 0
 406 0020 0646     		mov	r6, r0
 407              	.LVL18:
 408              		.loc 1 236 0
 409 0022 84F82030 		strb	r3, [r4, #32]
 410              		.loc 1 233 0
 411 0026 AA61     		str	r2, [r5, #24]
 412              		.loc 1 235 0
 413 0028 EC61     		str	r4, [r5, #28]
 414              		.loc 1 237 0
 415 002a FFF7FEFF 		bl	dbg_trace
 416              	.LVL19:
 417              	.LBB7:
 418 002e F069     		ldr	r0, [r6, #28]
 419 0030 ADF12401 		sub	r1, sp, #36
 420 0034 8842     		cmp	r0, r1
 421 0036 0AD8     		bhi	.L31
 422              	.L29:
 423              		.loc 1 237 0 is_stmt 0 discriminator 2
 424 0038 2046     		mov	r0, r4
 425 003a 3146     		mov	r1, r6
 426              	.LBE7:
 427              	.LBE5:
 428              		.loc 1 239 0 is_stmt 1 discriminator 2
 429 003c BDE87040 		pop	{r4, r5, r6, lr}
 430              	.LBB9:
 431              	.LBB6:
 432              		.loc 1 237 0 discriminator 2
 433 0040 FFF7FEBF 		b	_port_switch
 434              	.LVL20:
 435              	.L30:
 436              	.LBE6:
 437              	.LBE9:
 438              		.loc 1 229 0
 439 0044 2046     		mov	r0, r4
 440              		.loc 1 239 0
 441 0046 BDE87040 		pop	{r4, r5, r6, lr}
 442              		.loc 1 229 0
 443 004a FFF7FEBF 		b	chSchReadyI
 444              	.LVL21:
 445              	.L31:
 446              	.LBB10:
 447              	.LBB8:
 448              		.loc 1 237 0 discriminator 1
 449 004e 0348     		ldr	r0, .L32+4
 450 0050 FFF7FEFF 		bl	chDbgPanic
 451 0054 F0E7     		b	.L29
ARM GAS  C:\DOCUME~1\z_80\LOCALS~1\Temp\ccW0M81v.s 			page 9


 452              	.L33:
 453 0056 00BF     		.align	2
 454              	.L32:
 455 0058 00000000 		.word	.LANCHOR0
 456 005c 14000000 		.word	.LC1
 457              	.LBE8:
 458              	.LBE10:
 459              		.cfi_endproc
 460              	.LFE5:
 461              		.size	chSchWakeupS, .-chSchWakeupS
 462              		.section	.text.chSchDoReschedule,"ax",%progbits
 463              		.align	2
 464              		.p2align 4,,15
 465              		.global	chSchDoReschedule
 466              		.thumb
 467              		.thumb_func
 468              		.type	chSchDoReschedule, %function
 469              	chSchDoReschedule:
 470              	.LFB7:
 471              		.loc 1 298 0
 472              		.cfi_startproc
 473              		@ args = 0, pretend = 0, frame = 0
 474              		@ frame_needed = 0, uses_anonymous_args = 0
 475 0000 70B5     		push	{r4, r5, r6, lr}
 476              	.LCFI6:
 477              		.cfi_def_cfa_offset 16
 478              		.loc 1 302 0
 479 0002 104C     		ldr	r4, .L36
 480              		.cfi_offset 14, -4
 481              		.cfi_offset 6, -8
 482              		.cfi_offset 5, -12
 483              		.cfi_offset 4, -16
 484 0004 1423     		movs	r3, #20
 485              		.loc 1 306 0
 486 0006 2046     		mov	r0, r4
 487              		.loc 1 304 0
 488 0008 E569     		ldr	r5, [r4, #28]
 489              	.LVL22:
 490              		.loc 1 302 0
 491 000a A361     		str	r3, [r4, #24]
 492              		.loc 1 306 0
 493 000c FFF7FEFF 		bl	fifo_remove
 494              	.LVL23:
 495              		.loc 1 307 0
 496 0010 0122     		movs	r2, #1
 497              		.loc 1 306 0
 498 0012 0146     		mov	r1, r0
 499              		.loc 1 307 0
 500 0014 80F82020 		strb	r2, [r0, #32]
 501              		.loc 1 308 0
 502 0018 2846     		mov	r0, r5
 503              		.loc 1 306 0
 504 001a E161     		str	r1, [r4, #28]
 505              		.loc 1 308 0
 506 001c FFF7FEFF 		bl	chSchReadyI
 507              		.loc 1 309 0
 508 0020 2846     		mov	r0, r5
ARM GAS  C:\DOCUME~1\z_80\LOCALS~1\Temp\ccW0M81v.s 			page 10


 509 0022 FFF7FEFF 		bl	dbg_trace
 510              	.LBB11:
 511 0026 EA69     		ldr	r2, [r5, #28]
 512 0028 ADF12403 		sub	r3, sp, #36
 513 002c 9A42     		cmp	r2, r3
 514 002e 02D9     		bls	.L35
 515              		.loc 1 309 0 is_stmt 0 discriminator 1
 516 0030 0548     		ldr	r0, .L36+4
 517 0032 FFF7FEFF 		bl	chDbgPanic
 518              	.L35:
 519              		.loc 1 309 0 discriminator 2
 520 0036 E069     		ldr	r0, [r4, #28]
 521 0038 2946     		mov	r1, r5
 522              	.LBE11:
 523              		.loc 1 310 0 is_stmt 1 discriminator 2
 524 003a BDE87040 		pop	{r4, r5, r6, lr}
 525              	.LBB12:
 526              		.loc 1 309 0 discriminator 2
 527 003e FFF7FEBF 		b	_port_switch
 528              	.L37:
 529 0042 00BF     		.align	2
 530              	.L36:
 531 0044 00000000 		.word	.LANCHOR0
 532 0048 14000000 		.word	.LC1
 533              	.LBE12:
 534              		.cfi_endproc
 535              	.LFE7:
 536              		.size	chSchDoReschedule, .-chSchDoReschedule
 537 004c AFF30080 		.section	.text.chSchRescheduleS,"ax",%progbits
 538              		.align	2
 539              		.p2align 4,,15
 540              		.global	chSchRescheduleS
 541              		.thumb
 542              		.thumb_func
 543              		.type	chSchRescheduleS, %function
 544              	chSchRescheduleS:
 545              	.LFB6:
 546              		.loc 1 250 0
 547              		.cfi_startproc
 548              		@ args = 0, pretend = 0, frame = 0
 549              		@ frame_needed = 0, uses_anonymous_args = 0
 550 0000 10B5     		push	{r4, lr}
 551              	.LCFI7:
 552              		.cfi_def_cfa_offset 8
 553              		.loc 1 252 0
 554              		.cfi_offset 14, -4
 555              		.cfi_offset 4, -8
 556 0002 FFF7FEFF 		bl	chDbgCheckClassS
 557              		.loc 1 254 0
 558 0006 064A     		ldr	r2, .L41
 559 0008 D069     		ldr	r0, [r2, #28]
 560 000a 1168     		ldr	r1, [r2, #0]
 561 000c 8368     		ldr	r3, [r0, #8]
 562 000e 8A68     		ldr	r2, [r1, #8]
 563 0010 9A42     		cmp	r2, r3
 564 0012 00D8     		bhi	.L40
 565 0014 10BD     		pop	{r4, pc}
ARM GAS  C:\DOCUME~1\z_80\LOCALS~1\Temp\ccW0M81v.s 			page 11


 566              	.L40:
 567              		.loc 1 256 0
 568 0016 BDE81040 		pop	{r4, lr}
 569              		.loc 1 255 0
 570 001a FFF7FEBF 		b	chSchDoReschedule
 571              	.L42:
 572 001e 00BF     		.align	2
 573              	.L41:
 574 0020 00000000 		.word	.LANCHOR0
 575              		.cfi_endproc
 576              	.LFE6:
 577              		.size	chSchRescheduleS, .-chSchRescheduleS
 578              		.global	rlist
 579 0024 AFF30080 		.section	.rodata.str1.4,"aMS",%progbits,1
 579      AFF30080 
 579      AFF30080 
 580              		.align	2
 581              	.LC0:
 582 0000 63685363 		.ascii	"chSchReadyI(), #1\000"
 582      68526561 
 582      64794928 
 582      292C2023 
 582      3100
 583 0012 0000     		.space	2
 584              	.LC1:
 585 0014 73746163 		.ascii	"stack overflow\000"
 585      6B206F76 
 585      6572666C 
 585      6F7700
 586 0023 00       		.section	.bss.rlist,"aw",%nobits
 587              		.align	2
 588              		.set	.LANCHOR0,. + 0
 589              		.type	rlist, %object
 590              		.size	rlist, 32
 591              	rlist:
 592 0000 00000000 		.space	32
 592      00000000 
 592      00000000 
 592      00000000 
 592      00000000 
 593              		.text
 594              	.Letext0: