ARM GAS  C:\DOCUME~1\z_80\LOCALS~1\Temp\ccR1wRZe.s 			page 1


   1              		.syntax unified
   2              		.cpu cortex-m3
   3              		.fpu softvfp
   4              		.eabi_attribute 20, 1
   5              		.eabi_attribute 21, 1
   6              		.eabi_attribute 23, 3
   7              		.eabi_attribute 24, 1
   8              		.eabi_attribute 25, 1
   9              		.eabi_attribute 26, 1
  10              		.eabi_attribute 30, 2
  11              		.eabi_attribute 18, 4
  12              		.thumb
  13              		.file	"chsem.c"
  20 0000 97030000 		.text
  20      02005901 
  20      00000201 
  20      FB0E0D00 
  20      01010101 
  21              	.Ltext0:
  22              		.cfi_sections	.debug_frame
  23              		.section	.text.chSemInit,"ax",%progbits
  24              		.align	2
  25              		.p2align 4,,15
  26              		.global	chSemInit
  27              		.thumb
  28              		.thumb_func
  29              		.type	chSemInit, %function
  30              	chSemInit:
  31              	.LFB0:
  32              		.file 1 "../chibios_2.4.x/os/kernel/src/chsem.c"
  33              		.loc 1 86 0
  34              		.cfi_startproc
  35              		@ args = 0, pretend = 0, frame = 0
  36              		@ frame_needed = 0, uses_anonymous_args = 0
  37              	.LVL0:
  38 0000 38B5     		push	{r3, r4, r5, lr}
  39              	.LCFI0:
  40              		.cfi_def_cfa_offset 16
  41              		.loc 1 88 0
  42 0002 0446     		mov	r4, r0
  43              		.cfi_offset 14, -4
  44              		.cfi_offset 5, -8
  45              		.cfi_offset 4, -12
  46              		.cfi_offset 3, -16
  47              		.loc 1 86 0
  48 0004 0D46     		mov	r5, r1
  49              		.loc 1 88 0
  50 0006 28B1     		cbz	r0, .L2
  51              		.loc 1 88 0 is_stmt 0 discriminator 2
  52 0008 0029     		cmp	r1, #0
  53 000a 03DB     		blt	.L2
ARM GAS  C:\DOCUME~1\z_80\LOCALS~1\Temp\ccR1wRZe.s 			page 2


  54              		.loc 1 90 0 is_stmt 1
  55 000c 6460     		str	r4, [r4, #4]
  56 000e 2460     		str	r4, [r4, #0]
  57              		.loc 1 91 0
  58 0010 A560     		str	r5, [r4, #8]
  59              		.loc 1 92 0
  60 0012 38BD     		pop	{r3, r4, r5, pc}
  61              	.L2:
  62              		.loc 1 88 0 discriminator 1
  63 0014 0348     		ldr	r0, .L5
  64              	.LVL1:
  65 0016 FFF7FEFF 		bl	chDbgPanic
  66              	.LVL2:
  67              		.loc 1 90 0 discriminator 1
  68 001a 6460     		str	r4, [r4, #4]
  69 001c 2460     		str	r4, [r4, #0]
  70              		.loc 1 91 0 discriminator 1
  71 001e A560     		str	r5, [r4, #8]
  72              		.loc 1 92 0 discriminator 1
  73 0020 38BD     		pop	{r3, r4, r5, pc}
  74              	.L6:
  75 0022 00BF     		.align	2
  76              	.L5:
  77 0024 00000000 		.word	.LC0
  78              		.cfi_endproc
  79              	.LFE0:
  80              		.size	chSemInit, .-chSemInit
  81 0028 AFF30080 		.section	.text.chSemResetI,"ax",%progbits
  81      AFF30080 
  82              		.align	2
  83              		.p2align 4,,15
  84              		.global	chSemResetI
  85              		.thumb
  86              		.thumb_func
  87              		.type	chSemResetI, %function
  88              	chSemResetI:
  89              	.LFB2:
  90              		.loc 1 136 0
  91              		.cfi_startproc
  92              		@ args = 0, pretend = 0, frame = 0
  93              		@ frame_needed = 0, uses_anonymous_args = 0
  94              	.LVL3:
  95 0000 F8B5     		push	{r3, r4, r5, r6, r7, lr}
  96              	.LCFI1:
  97              		.cfi_def_cfa_offset 24
  98              		.loc 1 136 0
  99 0002 0446     		mov	r4, r0
 100              		.cfi_offset 14, -4
 101              		.cfi_offset 7, -8
 102              		.cfi_offset 6, -12
 103              		.cfi_offset 5, -16
 104              		.cfi_offset 4, -20
 105              		.cfi_offset 3, -24
 106 0004 0D46     		mov	r5, r1
 107              		.loc 1 139 0
 108 0006 FFF7FEFF 		bl	chDbgCheckClassI
 109              	.LVL4:
ARM GAS  C:\DOCUME~1\z_80\LOCALS~1\Temp\ccR1wRZe.s 			page 3


 110              		.loc 1 140 0
 111 000a 002C     		cmp	r4, #0
 112 000c 3AD0     		beq	.L8
 113              		.loc 1 140 0 is_stmt 0 discriminator 2
 114 000e 002D     		cmp	r5, #0
 115 0010 38DB     		blt	.L8
 116              	.L9:
 117              		.loc 1 141 0 is_stmt 1
 118 0012 A768     		ldr	r7, [r4, #8]
 119 0014 002F     		cmp	r7, #0
 120 0016 31DB     		blt	.L10
 121              		.loc 1 141 0 is_stmt 0 discriminator 2
 122 0018 2368     		ldr	r3, [r4, #0]
 123 001a A342     		cmp	r3, r4
 124 001c 03D0     		beq	.L12
 125              	.L11:
 126              		.loc 1 141 0 discriminator 3
 127 001e 1C48     		ldr	r0, .L24
 128 0020 FFF7FEFF 		bl	chDbgPanic
 129 0024 A768     		ldr	r7, [r4, #8]
 130              	.L12:
 131              	.LVL5:
 132              		.loc 1 148 0 is_stmt 1
 133 0026 0137     		adds	r7, r7, #1
 134              	.LVL6:
 135 0028 002F     		cmp	r7, #0
 136              		.loc 1 147 0
 137 002a A560     		str	r5, [r4, #8]
 138              	.LVL7:
 139              		.loc 1 148 0
 140 002c 25DC     		bgt	.L7
 141              		.loc 1 149 0
 142 002e 2046     		mov	r0, r4
 143 0030 FFF7FEFF 		bl	lifo_remove
 144 0034 FFF7FEFF 		bl	chSchReadyI
 145 0038 6FF00106 		mvn	r6, #1
 146 003c 07F00103 		and	r3, r7, #1
 147 0040 8662     		str	r6, [r0, #40]
 148              	.LVL8:
 149              		.loc 1 148 0
 150 0042 7D1C     		adds	r5, r7, #1
 151              	.LVL9:
 152 0044 17B3     		cbz	r7, .L22
 153 0046 43B1     		cbz	r3, .L15
 154              		.loc 1 149 0
 155 0048 2046     		mov	r0, r4
 156 004a FFF7FEFF 		bl	lifo_remove
 157 004e FFF7FEFF 		bl	chSchReadyI
 158              		.loc 1 148 0
 159 0052 0135     		adds	r5, r5, #1
 160 0054 012D     		cmp	r5, #1
 161              		.loc 1 149 0
 162 0056 8662     		str	r6, [r0, #40]
 163              		.loc 1 148 0
 164 0058 19D0     		beq	.L23
 165              	.L15:
 166              		.loc 1 149 0
ARM GAS  C:\DOCUME~1\z_80\LOCALS~1\Temp\ccR1wRZe.s 			page 4


 167 005a 2046     		mov	r0, r4
 168 005c FFF7FEFF 		bl	lifo_remove
 169 0060 FFF7FEFF 		bl	chSchReadyI
 170 0064 8662     		str	r6, [r0, #40]
 171 0066 2046     		mov	r0, r4
 172 0068 FFF7FEFF 		bl	lifo_remove
 173 006c FFF7FEFF 		bl	chSchReadyI
 174              		.loc 1 148 0
 175 0070 691C     		adds	r1, r5, #1
 176              		.loc 1 149 0
 177 0072 8662     		str	r6, [r0, #40]
 178              		.loc 1 148 0
 179 0074 0235     		adds	r5, r5, #2
 180 0076 0029     		cmp	r1, #0
 181 0078 EFD1     		bne	.L15
 182              	.L7:
 183 007a F8BD     		pop	{r3, r4, r5, r6, r7, pc}
 184              	.LVL10:
 185              	.L10:
 186              		.loc 1 141 0 discriminator 4
 187 007c 2068     		ldr	r0, [r4, #0]
 188 007e A042     		cmp	r0, r4
 189 0080 D1D1     		bne	.L12
 190 0082 CCE7     		b	.L11
 191              	.L8:
 192              		.loc 1 140 0 discriminator 1
 193 0084 0348     		ldr	r0, .L24+4
 194 0086 FFF7FEFF 		bl	chDbgPanic
 195 008a C2E7     		b	.L9
 196              	.LVL11:
 197              	.L22:
 198 008c F8BD     		pop	{r3, r4, r5, r6, r7, pc}
 199              	.L23:
 200 008e F8BD     		pop	{r3, r4, r5, r6, r7, pc}
 201              	.L25:
 202              		.align	2
 203              	.L24:
 204 0090 20000000 		.word	.LC2
 205 0094 10000000 		.word	.LC1
 206              		.cfi_endproc
 207              	.LFE2:
 208              		.size	chSemResetI, .-chSemResetI
 209 0098 AFF30080 		.section	.text.chSemReset,"ax",%progbits
 209      AFF30080 
 210              		.align	2
 211              		.p2align 4,,15
 212              		.global	chSemReset
 213              		.thumb
 214              		.thumb_func
 215              		.type	chSemReset, %function
 216              	chSemReset:
 217              	.LFB1:
 218              		.loc 1 109 0
 219              		.cfi_startproc
 220              		@ args = 0, pretend = 0, frame = 0
 221              		@ frame_needed = 0, uses_anonymous_args = 0
 222              	.LVL12:
ARM GAS  C:\DOCUME~1\z_80\LOCALS~1\Temp\ccR1wRZe.s 			page 5


 223 0000 38B5     		push	{r3, r4, r5, lr}
 224              	.LCFI2:
 225              		.cfi_def_cfa_offset 16
 226              		.loc 1 109 0
 227 0002 0546     		mov	r5, r0
 228              		.cfi_offset 14, -4
 229              		.cfi_offset 5, -8
 230              		.cfi_offset 4, -12
 231              		.cfi_offset 3, -16
 232 0004 0C46     		mov	r4, r1
 233              		.loc 1 111 0
 234              	@ 111 "../chibios_2.4.x/os/kernel/src/chsem.c" 1
 235 0006 FFF7FEFF 		bl      _port_lock
 236              	@ 0 "" 2
 237              		.thumb
 238 000a FFF7FEFF 		bl	dbg_check_lock
 239              	.LVL13:
 240              		.loc 1 112 0
 241 000e 2846     		mov	r0, r5
 242 0010 2146     		mov	r1, r4
 243 0012 FFF7FEFF 		bl	chSemResetI
 244              		.loc 1 113 0
 245 0016 FFF7FEFF 		bl	chSchRescheduleS
 246              		.loc 1 114 0
 247 001a FFF7FEFF 		bl	dbg_check_unlock
 248              	@ 114 "../chibios_2.4.x/os/kernel/src/chsem.c" 1
 249 001e FFF7FEFF 		bl      _port_unlock
 250              	@ 0 "" 2
 251              		.loc 1 115 0
 252              		.thumb
 253 0022 38BD     		pop	{r3, r4, r5, pc}
 254              		.cfi_endproc
 255              	.LFE1:
 256              		.size	chSemReset, .-chSemReset
 257 0024 AFF30080 		.section	.text.chSemWaitS,"ax",%progbits
 257      AFF30080 
 257      AFF30080 
 258              		.align	2
 259              		.p2align 4,,15
 260              		.global	chSemWaitS
 261              		.thumb
 262              		.thumb_func
 263              		.type	chSemWaitS, %function
 264              	chSemWaitS:
 265              	.LFB4:
 266              		.loc 1 185 0
 267              		.cfi_startproc
 268              		@ args = 0, pretend = 0, frame = 0
 269              		@ frame_needed = 0, uses_anonymous_args = 0
 270              	.LVL14:
 271 0000 38B5     		push	{r3, r4, r5, lr}
 272              	.LCFI3:
 273              		.cfi_def_cfa_offset 16
 274              		.loc 1 185 0
 275 0002 0446     		mov	r4, r0
 276              		.cfi_offset 14, -4
 277              		.cfi_offset 5, -8
ARM GAS  C:\DOCUME~1\z_80\LOCALS~1\Temp\ccR1wRZe.s 			page 6


 278              		.cfi_offset 4, -12
 279              		.cfi_offset 3, -16
 280              		.loc 1 187 0
 281 0004 FFF7FEFF 		bl	chDbgCheckClassS
 282              	.LVL15:
 283              		.loc 1 188 0
 284 0008 002C     		cmp	r4, #0
 285 000a 23D0     		beq	.L35
 286              	.L28:
 287              		.loc 1 189 0
 288 000c A368     		ldr	r3, [r4, #8]
 289 000e 002B     		cmp	r3, #0
 290 0010 0CDB     		blt	.L29
 291              		.loc 1 189 0 is_stmt 0 discriminator 2
 292 0012 2268     		ldr	r2, [r4, #0]
 293 0014 A242     		cmp	r2, r4
 294 0016 03D0     		beq	.L31
 295              	.L30:
 296              		.loc 1 189 0 discriminator 3
 297 0018 1048     		ldr	r0, .L37
 298 001a FFF7FEFF 		bl	chDbgPanic
 299 001e A368     		ldr	r3, [r4, #8]
 300              	.L31:
 301              		.loc 1 194 0 is_stmt 1
 302 0020 013B     		subs	r3, r3, #1
 303 0022 002B     		cmp	r3, #0
 304 0024 A360     		str	r3, [r4, #8]
 305 0026 08DB     		blt	.L36
 306              	.L33:
 307              		.loc 1 200 0
 308 0028 0020     		movs	r0, #0
 309              		.loc 1 201 0
 310 002a 38BD     		pop	{r3, r4, r5, pc}
 311              	.L29:
 312              		.loc 1 189 0 discriminator 4
 313 002c 2068     		ldr	r0, [r4, #0]
 314 002e A042     		cmp	r0, r4
 315 0030 F2D0     		beq	.L30
 316              		.loc 1 194 0
 317 0032 013B     		subs	r3, r3, #1
 318 0034 002B     		cmp	r3, #0
 319 0036 A360     		str	r3, [r4, #8]
 320 0038 F6DA     		bge	.L33
 321              	.L36:
 322              		.loc 1 195 0
 323 003a 094D     		ldr	r5, .L37+4
 324              		.loc 1 196 0
 325 003c 2146     		mov	r1, r4
 326              		.loc 1 195 0
 327 003e EA69     		ldr	r2, [r5, #28]
 328              		.loc 1 196 0
 329 0040 1046     		mov	r0, r2
 330              		.loc 1 195 0
 331 0042 9462     		str	r4, [r2, #40]
 332              		.loc 1 196 0
 333 0044 FFF7FEFF 		bl	queue_insert
 334              		.loc 1 197 0
ARM GAS  C:\DOCUME~1\z_80\LOCALS~1\Temp\ccR1wRZe.s 			page 7


 335 0048 0320     		movs	r0, #3
 336 004a FFF7FEFF 		bl	chSchGoSleepS
 337              		.loc 1 198 0
 338 004e E969     		ldr	r1, [r5, #28]
 339 0050 886A     		ldr	r0, [r1, #40]
 340 0052 38BD     		pop	{r3, r4, r5, pc}
 341              	.L35:
 342              		.loc 1 188 0 discriminator 1
 343 0054 0348     		ldr	r0, .L37+8
 344 0056 FFF7FEFF 		bl	chDbgPanic
 345 005a D7E7     		b	.L28
 346              	.L38:
 347              		.align	2
 348              	.L37:
 349 005c 44000000 		.word	.LC4
 350 0060 00000000 		.word	rlist
 351 0064 34000000 		.word	.LC3
 352              		.cfi_endproc
 353              	.LFE4:
 354              		.size	chSemWaitS, .-chSemWaitS
 355 0068 AFF30080 		.section	.text.chSemWait,"ax",%progbits
 355      AFF30080 
 356              		.align	2
 357              		.p2align 4,,15
 358              		.global	chSemWait
 359              		.thumb
 360              		.thumb_func
 361              		.type	chSemWait, %function
 362              	chSemWait:
 363              	.LFB3:
 364              		.loc 1 164 0
 365              		.cfi_startproc
 366              		@ args = 0, pretend = 0, frame = 0
 367              		@ frame_needed = 0, uses_anonymous_args = 0
 368              	.LVL16:
 369 0000 10B5     		push	{r4, lr}
 370              	.LCFI4:
 371              		.cfi_def_cfa_offset 8
 372              		.loc 1 164 0
 373 0002 0446     		mov	r4, r0
 374              		.cfi_offset 14, -4
 375              		.cfi_offset 4, -8
 376              		.loc 1 167 0
 377              	@ 167 "../chibios_2.4.x/os/kernel/src/chsem.c" 1
 378 0004 FFF7FEFF 		bl      _port_lock
 379              	@ 0 "" 2
 380              		.thumb
 381 0008 FFF7FEFF 		bl	dbg_check_lock
 382              	.LVL17:
 383              		.loc 1 168 0
 384 000c 2046     		mov	r0, r4
 385 000e FFF7FEFF 		bl	chSemWaitS
 386 0012 0446     		mov	r4, r0
 387              	.LVL18:
 388              		.loc 1 169 0
 389 0014 FFF7FEFF 		bl	dbg_check_unlock
 390              	.LVL19:
ARM GAS  C:\DOCUME~1\z_80\LOCALS~1\Temp\ccR1wRZe.s 			page 8


 391              	@ 169 "../chibios_2.4.x/os/kernel/src/chsem.c" 1
 392 0018 FFF7FEFF 		bl      _port_unlock
 393              	@ 0 "" 2
 394              		.loc 1 171 0
 395              		.thumb
 396 001c 2046     		mov	r0, r4
 397 001e 10BD     		pop	{r4, pc}
 398              		.cfi_endproc
 399              	.LFE3:
 400              		.size	chSemWait, .-chSemWait
 401              		.section	.text.chSemWaitTimeoutS,"ax",%progbits
 402              		.align	2
 403              		.p2align 4,,15
 404              		.global	chSemWaitTimeoutS
 405              		.thumb
 406              		.thumb_func
 407              		.type	chSemWaitTimeoutS, %function
 408              	chSemWaitTimeoutS:
 409              	.LFB6:
 410              		.loc 1 250 0
 411              		.cfi_startproc
 412              		@ args = 0, pretend = 0, frame = 0
 413              		@ frame_needed = 0, uses_anonymous_args = 0
 414              	.LVL20:
 415 0000 70B5     		push	{r4, r5, r6, lr}
 416              	.LCFI5:
 417              		.cfi_def_cfa_offset 16
 418              		.loc 1 250 0
 419 0002 0446     		mov	r4, r0
 420              		.cfi_offset 14, -4
 421              		.cfi_offset 6, -8
 422              		.cfi_offset 5, -12
 423              		.cfi_offset 4, -16
 424 0004 0D46     		mov	r5, r1
 425              		.loc 1 252 0
 426 0006 FFF7FEFF 		bl	chDbgCheckClassS
 427              	.LVL21:
 428              		.loc 1 253 0
 429 000a 002C     		cmp	r4, #0
 430 000c 24D0     		beq	.L49
 431              	.L41:
 432              		.loc 1 254 0
 433 000e A368     		ldr	r3, [r4, #8]
 434 0010 002B     		cmp	r3, #0
 435 0012 0CDB     		blt	.L42
 436              		.loc 1 254 0 is_stmt 0 discriminator 2
 437 0014 2268     		ldr	r2, [r4, #0]
 438 0016 A242     		cmp	r2, r4
 439 0018 03D0     		beq	.L44
 440              	.L43:
 441              		.loc 1 254 0 discriminator 3
 442 001a 1348     		ldr	r0, .L52
 443 001c FFF7FEFF 		bl	chDbgPanic
 444 0020 A368     		ldr	r3, [r4, #8]
 445              	.L44:
 446              		.loc 1 259 0 is_stmt 1
 447 0022 591E     		subs	r1, r3, #1
ARM GAS  C:\DOCUME~1\z_80\LOCALS~1\Temp\ccR1wRZe.s 			page 9


 448 0024 0029     		cmp	r1, #0
 449 0026 A160     		str	r1, [r4, #8]
 450 0028 08DB     		blt	.L50
 451              	.L47:
 452              		.loc 1 268 0
 453 002a 0020     		movs	r0, #0
 454              		.loc 1 269 0
 455 002c 70BD     		pop	{r4, r5, r6, pc}
 456              	.L42:
 457              		.loc 1 254 0 discriminator 4
 458 002e 2068     		ldr	r0, [r4, #0]
 459 0030 A042     		cmp	r0, r4
 460 0032 F2D0     		beq	.L43
 461              		.loc 1 259 0
 462 0034 591E     		subs	r1, r3, #1
 463 0036 0029     		cmp	r1, #0
 464 0038 A160     		str	r1, [r4, #8]
 465 003a F6DA     		bge	.L47
 466              	.L50:
 467              		.loc 1 260 0
 468 003c 85B1     		cbz	r5, .L51
 469              		.loc 1 264 0
 470 003e 0B4A     		ldr	r2, .L52+4
 471              		.loc 1 265 0
 472 0040 2146     		mov	r1, r4
 473              		.loc 1 264 0
 474 0042 D369     		ldr	r3, [r2, #28]
 475              		.loc 1 265 0
 476 0044 1846     		mov	r0, r3
 477              		.loc 1 264 0
 478 0046 9C62     		str	r4, [r3, #40]
 479              		.loc 1 265 0
 480 0048 FFF7FEFF 		bl	queue_insert
 481              		.loc 1 266 0
 482 004c 0320     		movs	r0, #3
 483 004e 2946     		mov	r1, r5
 484              		.loc 1 269 0
 485 0050 BDE87040 		pop	{r4, r5, r6, lr}
 486              		.loc 1 266 0
 487 0054 FFF7FEBF 		b	chSchGoSleepTimeoutS
 488              	.L49:
 489              		.loc 1 253 0 discriminator 1
 490 0058 0548     		ldr	r0, .L52+8
 491 005a FFF7FEFF 		bl	chDbgPanic
 492 005e D6E7     		b	.L41
 493              	.L51:
 494              		.loc 1 261 0
 495 0060 A360     		str	r3, [r4, #8]
 496              		.loc 1 262 0
 497 0062 4FF0FF30 		mov	r0, #-1
 498 0066 70BD     		pop	{r4, r5, r6, pc}
 499              	.L53:
 500              		.align	2
 501              	.L52:
 502 0068 70000000 		.word	.LC6
 503 006c 00000000 		.word	rlist
 504 0070 58000000 		.word	.LC5
ARM GAS  C:\DOCUME~1\z_80\LOCALS~1\Temp\ccR1wRZe.s 			page 10


 505              		.cfi_endproc
 506              	.LFE6:
 507              		.size	chSemWaitTimeoutS, .-chSemWaitTimeoutS
 508 0074 AFF30080 		.section	.text.chSemWaitTimeout,"ax",%progbits
 508      AFF30080 
 508      AFF30080 
 509              		.align	2
 510              		.p2align 4,,15
 511              		.global	chSemWaitTimeout
 512              		.thumb
 513              		.thumb_func
 514              		.type	chSemWaitTimeout, %function
 515              	chSemWaitTimeout:
 516              	.LFB5:
 517              		.loc 1 222 0
 518              		.cfi_startproc
 519              		@ args = 0, pretend = 0, frame = 0
 520              		@ frame_needed = 0, uses_anonymous_args = 0
 521              	.LVL22:
 522 0000 38B5     		push	{r3, r4, r5, lr}
 523              	.LCFI6:
 524              		.cfi_def_cfa_offset 16
 525              		.loc 1 222 0
 526 0002 0546     		mov	r5, r0
 527              		.cfi_offset 14, -4
 528              		.cfi_offset 5, -8
 529              		.cfi_offset 4, -12
 530              		.cfi_offset 3, -16
 531 0004 0C46     		mov	r4, r1
 532              		.loc 1 225 0
 533              	@ 225 "../chibios_2.4.x/os/kernel/src/chsem.c" 1
 534 0006 FFF7FEFF 		bl      _port_lock
 535              	@ 0 "" 2
 536              		.thumb
 537 000a FFF7FEFF 		bl	dbg_check_lock
 538              	.LVL23:
 539              		.loc 1 226 0
 540 000e 2146     		mov	r1, r4
 541 0010 2846     		mov	r0, r5
 542 0012 FFF7FEFF 		bl	chSemWaitTimeoutS
 543 0016 0446     		mov	r4, r0
 544              	.LVL24:
 545              		.loc 1 227 0
 546 0018 FFF7FEFF 		bl	dbg_check_unlock
 547              	.LVL25:
 548              	@ 227 "../chibios_2.4.x/os/kernel/src/chsem.c" 1
 549 001c FFF7FEFF 		bl      _port_unlock
 550              	@ 0 "" 2
 551              		.loc 1 229 0
 552              		.thumb
 553 0020 2046     		mov	r0, r4
 554 0022 38BD     		pop	{r3, r4, r5, pc}
 555              		.cfi_endproc
 556              	.LFE5:
 557              		.size	chSemWaitTimeout, .-chSemWaitTimeout
 558 0024 AFF30080 		.section	.text.chSemSignal,"ax",%progbits
 558      AFF30080 
ARM GAS  C:\DOCUME~1\z_80\LOCALS~1\Temp\ccR1wRZe.s 			page 11


 558      AFF30080 
 559              		.align	2
 560              		.p2align 4,,15
 561              		.global	chSemSignal
 562              		.thumb
 563              		.thumb_func
 564              		.type	chSemSignal, %function
 565              	chSemSignal:
 566              	.LFB7:
 567              		.loc 1 278 0
 568              		.cfi_startproc
 569              		@ args = 0, pretend = 0, frame = 0
 570              		@ frame_needed = 0, uses_anonymous_args = 0
 571              	.LVL26:
 572 0000 10B5     		push	{r4, lr}
 573              	.LCFI7:
 574              		.cfi_def_cfa_offset 8
 575              		.loc 1 280 0
 576 0002 0446     		mov	r4, r0
 577              		.cfi_offset 14, -4
 578              		.cfi_offset 4, -8
 579 0004 0028     		cmp	r0, #0
 580 0006 2DD0     		beq	.L62
 581              	.LVL27:
 582              	.L56:
 583              		.loc 1 281 0
 584 0008 A368     		ldr	r3, [r4, #8]
 585 000a 002B     		cmp	r3, #0
 586 000c 13DB     		blt	.L57
 587              		.loc 1 281 0 is_stmt 0 discriminator 2
 588 000e 2068     		ldr	r0, [r4, #0]
 589 0010 A042     		cmp	r0, r4
 590 0012 02D0     		beq	.L59
 591              	.L58:
 592              		.loc 1 281 0 discriminator 3
 593 0014 1548     		ldr	r0, .L64
 594 0016 FFF7FEFF 		bl	chDbgPanic
 595              	.L59:
 596              		.loc 1 286 0 is_stmt 1
 597              	@ 286 "../chibios_2.4.x/os/kernel/src/chsem.c" 1
 598 001a FFF7FEFF 		bl      _port_lock
 599              	@ 0 "" 2
 600              		.thumb
 601 001e FFF7FEFF 		bl	dbg_check_lock
 602              		.loc 1 287 0
 603 0022 A368     		ldr	r3, [r4, #8]
 604 0024 5A1C     		adds	r2, r3, #1
 605 0026 002A     		cmp	r2, #0
 606 0028 A260     		str	r2, [r4, #8]
 607 002a 10DD     		ble	.L63
 608              	.L60:
 609              		.loc 1 289 0
 610 002c FFF7FEFF 		bl	dbg_check_unlock
 611              	@ 289 "../chibios_2.4.x/os/kernel/src/chsem.c" 1
 612 0030 FFF7FEFF 		bl      _port_unlock
 613              	@ 0 "" 2
 614              		.loc 1 290 0
ARM GAS  C:\DOCUME~1\z_80\LOCALS~1\Temp\ccR1wRZe.s 			page 12


 615              		.thumb
 616 0034 10BD     		pop	{r4, pc}
 617              	.L57:
 618              		.loc 1 281 0 discriminator 4
 619 0036 2168     		ldr	r1, [r4, #0]
 620 0038 A142     		cmp	r1, r4
 621 003a EBD0     		beq	.L58
 622              		.loc 1 286 0
 623              	@ 286 "../chibios_2.4.x/os/kernel/src/chsem.c" 1
 624 003c FFF7FEFF 		bl      _port_lock
 625              	@ 0 "" 2
 626              		.thumb
 627 0040 FFF7FEFF 		bl	dbg_check_lock
 628              		.loc 1 287 0
 629 0044 A368     		ldr	r3, [r4, #8]
 630 0046 5A1C     		adds	r2, r3, #1
 631 0048 002A     		cmp	r2, #0
 632 004a A260     		str	r2, [r4, #8]
 633 004c EEDC     		bgt	.L60
 634              	.L63:
 635              		.loc 1 288 0
 636 004e 2046     		mov	r0, r4
 637 0050 FFF7FEFF 		bl	fifo_remove
 638 0054 0021     		movs	r1, #0
 639 0056 FFF7FEFF 		bl	chSchWakeupS
 640              		.loc 1 289 0
 641 005a FFF7FEFF 		bl	dbg_check_unlock
 642              	@ 289 "../chibios_2.4.x/os/kernel/src/chsem.c" 1
 643 005e FFF7FEFF 		bl      _port_unlock
 644              	@ 0 "" 2
 645              		.loc 1 290 0
 646              		.thumb
 647 0062 10BD     		pop	{r4, pc}
 648              	.L62:
 649              		.loc 1 280 0 discriminator 1
 650 0064 0248     		ldr	r0, .L64+4
 651 0066 FFF7FEFF 		bl	chDbgPanic
 652 006a CDE7     		b	.L56
 653              	.L65:
 654              		.align	2
 655              	.L64:
 656 006c 98000000 		.word	.LC8
 657 0070 88000000 		.word	.LC7
 658              		.cfi_endproc
 659              	.LFE7:
 660              		.size	chSemSignal, .-chSemSignal
 661 0074 AFF30080 		.section	.text.chSemSignalI,"ax",%progbits
 661      AFF30080 
 661      AFF30080 
 662              		.align	2
 663              		.p2align 4,,15
 664              		.global	chSemSignalI
 665              		.thumb
 666              		.thumb_func
 667              		.type	chSemSignalI, %function
 668              	chSemSignalI:
 669              	.LFB8:
ARM GAS  C:\DOCUME~1\z_80\LOCALS~1\Temp\ccR1wRZe.s 			page 13


 670              		.loc 1 303 0
 671              		.cfi_startproc
 672              		@ args = 0, pretend = 0, frame = 0
 673              		@ frame_needed = 0, uses_anonymous_args = 0
 674              	.LVL28:
 675 0000 10B5     		push	{r4, lr}
 676              	.LCFI8:
 677              		.cfi_def_cfa_offset 8
 678              		.loc 1 303 0
 679 0002 0446     		mov	r4, r0
 680              		.cfi_offset 14, -4
 681              		.cfi_offset 4, -8
 682              		.loc 1 305 0
 683 0004 FFF7FEFF 		bl	chDbgCheckClassI
 684              	.LVL29:
 685              		.loc 1 306 0
 686 0008 002C     		cmp	r4, #0
 687 000a 1ED0     		beq	.L73
 688              	.L67:
 689              		.loc 1 307 0
 690 000c A368     		ldr	r3, [r4, #8]
 691 000e 002B     		cmp	r3, #0
 692 0010 0BDB     		blt	.L68
 693              		.loc 1 307 0 is_stmt 0 discriminator 2
 694 0012 2268     		ldr	r2, [r4, #0]
 695 0014 A242     		cmp	r2, r4
 696 0016 03D0     		beq	.L70
 697              	.L69:
 698              		.loc 1 307 0 discriminator 3
 699 0018 0E48     		ldr	r0, .L75
 700 001a FFF7FEFF 		bl	chDbgPanic
 701 001e A368     		ldr	r3, [r4, #8]
 702              	.L70:
 703              		.loc 1 312 0 is_stmt 1
 704 0020 0133     		adds	r3, r3, #1
 705 0022 002B     		cmp	r3, #0
 706 0024 A360     		str	r3, [r4, #8]
 707 0026 07DD     		ble	.L74
 708              	.L66:
 709 0028 10BD     		pop	{r4, pc}
 710              	.L68:
 711              		.loc 1 307 0 discriminator 4
 712 002a 2068     		ldr	r0, [r4, #0]
 713 002c A042     		cmp	r0, r4
 714 002e F3D0     		beq	.L69
 715              		.loc 1 312 0
 716 0030 0133     		adds	r3, r3, #1
 717 0032 002B     		cmp	r3, #0
 718 0034 A360     		str	r3, [r4, #8]
 719 0036 F7DC     		bgt	.L66
 720              	.L74:
 721              	.LBB2:
 722              		.loc 1 315 0
 723 0038 2046     		mov	r0, r4
 724 003a FFF7FEFF 		bl	fifo_remove
 725              		.loc 1 316 0
 726 003e 0021     		movs	r1, #0
ARM GAS  C:\DOCUME~1\z_80\LOCALS~1\Temp\ccR1wRZe.s 			page 14


 727 0040 8162     		str	r1, [r0, #40]
 728              	.LBE2:
 729              		.loc 1 319 0
 730 0042 BDE81040 		pop	{r4, lr}
 731              	.LBB3:
 732              		.loc 1 317 0
 733 0046 FFF7FEBF 		b	chSchReadyI
 734              	.L73:
 735              	.LBE3:
 736              		.loc 1 306 0 discriminator 1
 737 004a 0348     		ldr	r0, .L75+4
 738 004c FFF7FEFF 		bl	chDbgPanic
 739 0050 DCE7     		b	.L67
 740              	.L76:
 741 0052 00BF     		.align	2
 742              	.L75:
 743 0054 C0000000 		.word	.LC10
 744 0058 AC000000 		.word	.LC9
 745              		.cfi_endproc
 746              	.LFE8:
 747              		.size	chSemSignalI, .-chSemSignalI
 748 005c AFF30080 		.section	.text.chSemAddCounterI,"ax",%progbits
 749              		.align	2
 750              		.p2align 4,,15
 751              		.global	chSemAddCounterI
 752              		.thumb
 753              		.thumb_func
 754              		.type	chSemAddCounterI, %function
 755              	chSemAddCounterI:
 756              	.LFB9:
 757              		.loc 1 334 0
 758              		.cfi_startproc
 759              		@ args = 0, pretend = 0, frame = 0
 760              		@ frame_needed = 0, uses_anonymous_args = 0
 761              	.LVL30:
 762 0000 F8B5     		push	{r3, r4, r5, r6, r7, lr}
 763              	.LCFI9:
 764              		.cfi_def_cfa_offset 24
 765              		.loc 1 334 0
 766 0002 0446     		mov	r4, r0
 767              		.cfi_offset 14, -4
 768              		.cfi_offset 7, -8
 769              		.cfi_offset 6, -12
 770              		.cfi_offset 5, -16
 771              		.cfi_offset 4, -20
 772              		.cfi_offset 3, -24
 773 0004 0D46     		mov	r5, r1
 774              		.loc 1 336 0
 775 0006 FFF7FEFF 		bl	chDbgCheckClassI
 776              	.LVL31:
 777              		.loc 1 337 0
 778 000a 002C     		cmp	r4, #0
 779 000c 46D0     		beq	.L78
 780              		.loc 1 337 0 is_stmt 0 discriminator 2
 781 000e 002D     		cmp	r5, #0
 782 0010 44DD     		ble	.L78
 783              	.L79:
ARM GAS  C:\DOCUME~1\z_80\LOCALS~1\Temp\ccR1wRZe.s 			page 15


 784              		.loc 1 338 0 is_stmt 1
 785 0012 A368     		ldr	r3, [r4, #8]
 786 0014 002B     		cmp	r3, #0
 787 0016 3DDB     		blt	.L80
 788              		.loc 1 338 0 is_stmt 0 discriminator 2
 789 0018 2068     		ldr	r0, [r4, #0]
 790 001a A042     		cmp	r0, r4
 791 001c 02D0     		beq	.L82
 792              	.L81:
 793              		.loc 1 338 0 discriminator 3
 794 001e 2948     		ldr	r0, .L104
 795 0020 FFF7FEFF 		bl	chDbgPanic
 796              	.L82:
 797              		.loc 1 343 0 is_stmt 1 discriminator 1
 798 0024 002D     		cmp	r5, #0
 799 0026 34DD     		ble	.L77
 800              		.loc 1 344 0
 801 0028 A668     		ldr	r6, [r4, #8]
 802 002a 6F1E     		subs	r7, r5, #1
 803 002c 721C     		adds	r2, r6, #1
 804              		.loc 1 345 0
 805 002e 0026     		movs	r6, #0
 806              		.loc 1 344 0
 807 0030 B242     		cmp	r2, r6
 808 0032 A260     		str	r2, [r4, #8]
 809 0034 07F00107 		and	r7, r7, #1
 810 0038 34DD     		ble	.L98
 811              	.L88:
 812              	.LVL32:
 813              		.loc 1 343 0
 814 003a 013D     		subs	r5, r5, #1
 815 003c 29D0     		beq	.L77
 816 003e 77B1     		cbz	r7, .L86
 817              		.loc 1 344 0
 818 0040 A068     		ldr	r0, [r4, #8]
 819 0042 431C     		adds	r3, r0, #1
 820 0044 002B     		cmp	r3, #0
 821 0046 A360     		str	r3, [r4, #8]
 822 0048 33DD     		ble	.L99
 823              	.L90:
 824              		.loc 1 343 0
 825 004a 013D     		subs	r5, r5, #1
 826 004c 07D1     		bne	.L86
 827 004e 37E0     		b	.L103
 828              	.L84:
 829              		.loc 1 344 0
 830 0050 A268     		ldr	r2, [r4, #8]
 831 0052 511C     		adds	r1, r2, #1
 832 0054 0029     		cmp	r1, #0
 833 0056 A160     		str	r1, [r4, #8]
 834 0058 12DD     		ble	.L101
 835              	.L93:
 836              		.loc 1 343 0
 837 005a 013D     		subs	r5, r5, #1
 838 005c 18D0     		beq	.L102
 839              	.L86:
 840              		.loc 1 344 0
ARM GAS  C:\DOCUME~1\z_80\LOCALS~1\Temp\ccR1wRZe.s 			page 16


 841 005e A068     		ldr	r0, [r4, #8]
 842              		.loc 1 346 0
 843 0060 013D     		subs	r5, r5, #1
 844              		.loc 1 344 0
 845 0062 431C     		adds	r3, r0, #1
 846 0064 002B     		cmp	r3, #0
 847 0066 A360     		str	r3, [r4, #8]
 848 0068 F2DC     		bgt	.L84
 849              		.loc 1 345 0
 850 006a 2046     		mov	r0, r4
 851 006c FFF7FEFF 		bl	fifo_remove
 852 0070 FFF7FEFF 		bl	chSchReadyI
 853 0074 8662     		str	r6, [r0, #40]
 854              		.loc 1 344 0
 855 0076 A268     		ldr	r2, [r4, #8]
 856 0078 511C     		adds	r1, r2, #1
 857 007a 0029     		cmp	r1, #0
 858 007c A160     		str	r1, [r4, #8]
 859 007e ECDC     		bgt	.L93
 860              	.L101:
 861              		.loc 1 345 0
 862 0080 2046     		mov	r0, r4
 863 0082 FFF7FEFF 		bl	fifo_remove
 864 0086 FFF7FEFF 		bl	chSchReadyI
 865              		.loc 1 343 0
 866 008a 013D     		subs	r5, r5, #1
 867              		.loc 1 345 0
 868 008c 8662     		str	r6, [r0, #40]
 869              		.loc 1 343 0
 870 008e E6D1     		bne	.L86
 871              	.L102:
 872 0090 F8BD     		pop	{r3, r4, r5, r6, r7, pc}
 873              	.L77:
 874 0092 F8BD     		pop	{r3, r4, r5, r6, r7, pc}
 875              	.LVL33:
 876              	.L80:
 877              		.loc 1 338 0 discriminator 4
 878 0094 2168     		ldr	r1, [r4, #0]
 879 0096 A142     		cmp	r1, r4
 880 0098 C4D1     		bne	.L82
 881 009a C0E7     		b	.L81
 882              	.L78:
 883              		.loc 1 337 0 discriminator 1
 884 009c 0A48     		ldr	r0, .L104+4
 885 009e FFF7FEFF 		bl	chDbgPanic
 886 00a2 B6E7     		b	.L79
 887              	.L98:
 888              		.loc 1 345 0
 889 00a4 2046     		mov	r0, r4
 890 00a6 FFF7FEFF 		bl	fifo_remove
 891 00aa FFF7FEFF 		bl	chSchReadyI
 892 00ae 8662     		str	r6, [r0, #40]
 893 00b0 C3E7     		b	.L88
 894              	.LVL34:
 895              	.L99:
 896 00b2 2046     		mov	r0, r4
 897 00b4 FFF7FEFF 		bl	fifo_remove
ARM GAS  C:\DOCUME~1\z_80\LOCALS~1\Temp\ccR1wRZe.s 			page 17


 898 00b8 FFF7FEFF 		bl	chSchReadyI
 899 00bc 8662     		str	r6, [r0, #40]
 900 00be C4E7     		b	.L90
 901              	.L103:
 902 00c0 F8BD     		pop	{r3, r4, r5, r6, r7, pc}
 903              	.L105:
 904 00c2 00BF     		.align	2
 905              	.L104:
 906 00c4 EC000000 		.word	.LC12
 907 00c8 D4000000 		.word	.LC11
 908              		.cfi_endproc
 909              	.LFE9:
 910              		.size	chSemAddCounterI, .-chSemAddCounterI
 911 00cc AFF30080 		.section	.text.chSemSignalWait,"ax",%progbits
 912              		.align	2
 913              		.p2align 4,,15
 914              		.global	chSemSignalWait
 915              		.thumb
 916              		.thumb_func
 917              		.type	chSemSignalWait, %function
 918              	chSemSignalWait:
 919              	.LFB10:
 920              		.loc 1 366 0
 921              		.cfi_startproc
 922              		@ args = 0, pretend = 0, frame = 0
 923              		@ frame_needed = 0, uses_anonymous_args = 0
 924              	.LVL35:
 925 0000 38B5     		push	{r3, r4, r5, lr}
 926              	.LCFI10:
 927              		.cfi_def_cfa_offset 16
 928              		.loc 1 369 0
 929 0002 0546     		mov	r5, r0
 930              		.cfi_offset 14, -4
 931              		.cfi_offset 5, -8
 932              		.cfi_offset 4, -12
 933              		.cfi_offset 3, -16
 934              		.loc 1 366 0
 935 0004 0C46     		mov	r4, r1
 936              		.loc 1 369 0
 937 0006 0028     		cmp	r0, #0
 938 0008 59D0     		beq	.L107
 939              		.loc 1 369 0 is_stmt 0 discriminator 2
 940 000a 0029     		cmp	r1, #0
 941 000c 57D0     		beq	.L107
 942              	.LVL36:
 943              	.L108:
 944              		.loc 1 370 0 is_stmt 1
 945 000e AB68     		ldr	r3, [r5, #8]
 946 0010 002B     		cmp	r3, #0
 947 0012 25DB     		blt	.L109
 948              		.loc 1 370 0 is_stmt 0 discriminator 2
 949 0014 2868     		ldr	r0, [r5, #0]
 950 0016 A842     		cmp	r0, r5
 951 0018 02D0     		beq	.L111
 952              	.L110:
 953              		.loc 1 370 0 discriminator 3
 954 001a 2B48     		ldr	r0, .L123
ARM GAS  C:\DOCUME~1\z_80\LOCALS~1\Temp\ccR1wRZe.s 			page 18


 955 001c FFF7FEFF 		bl	chDbgPanic
 956              	.L111:
 957              		.loc 1 374 0 is_stmt 1
 958 0020 A268     		ldr	r2, [r4, #8]
 959 0022 002A     		cmp	r2, #0
 960 0024 22DB     		blt	.L112
 961              	.L122:
 962              		.loc 1 374 0 is_stmt 0 discriminator 2
 963 0026 2368     		ldr	r3, [r4, #0]
 964 0028 A342     		cmp	r3, r4
 965 002a 02D0     		beq	.L114
 966              	.L113:
 967              		.loc 1 374 0 discriminator 3
 968 002c 2748     		ldr	r0, .L123+4
 969 002e FFF7FEFF 		bl	chDbgPanic
 970              	.L114:
 971              		.loc 1 379 0 is_stmt 1
 972              	@ 379 "../chibios_2.4.x/os/kernel/src/chsem.c" 1
 973 0032 FFF7FEFF 		bl      _port_lock
 974              	@ 0 "" 2
 975              		.thumb
 976 0036 FFF7FEFF 		bl	dbg_check_lock
 977              		.loc 1 380 0
 978 003a AA68     		ldr	r2, [r5, #8]
 979 003c 511C     		adds	r1, r2, #1
 980 003e 0029     		cmp	r1, #0
 981 0040 A960     		str	r1, [r5, #8]
 982 0042 1FDD     		ble	.L120
 983              	.L115:
 984              		.loc 1 382 0
 985 0044 A168     		ldr	r1, [r4, #8]
 986 0046 481E     		subs	r0, r1, #1
 987 0048 0028     		cmp	r0, #0
 988 004a A060     		str	r0, [r4, #8]
 989 004c 26DB     		blt	.L121
 990              	.L116:
 991              		.loc 1 390 0
 992 004e FFF7FEFF 		bl	chSchRescheduleS
 993              	.LVL37:
 994              		.loc 1 391 0
 995 0052 0024     		movs	r4, #0
 996              	.LVL38:
 997              		.loc 1 393 0
 998 0054 FFF7FEFF 		bl	dbg_check_unlock
 999              	@ 393 "../chibios_2.4.x/os/kernel/src/chsem.c" 1
 1000 0058 FFF7FEFF 		bl      _port_unlock
 1001              	@ 0 "" 2
 1002              		.loc 1 395 0
 1003              		.thumb
 1004 005c 2046     		mov	r0, r4
 1005 005e 38BD     		pop	{r3, r4, r5, pc}
 1006              	.LVL39:
 1007              	.L109:
 1008              		.loc 1 370 0 discriminator 4
 1009 0060 2968     		ldr	r1, [r5, #0]
 1010 0062 A942     		cmp	r1, r5
 1011 0064 D9D0     		beq	.L110
ARM GAS  C:\DOCUME~1\z_80\LOCALS~1\Temp\ccR1wRZe.s 			page 19


 1012              		.loc 1 374 0
 1013 0066 A268     		ldr	r2, [r4, #8]
 1014 0068 002A     		cmp	r2, #0
 1015 006a DCDA     		bge	.L122
 1016              	.L112:
 1017              		.loc 1 374 0 is_stmt 0 discriminator 4
 1018 006c 2068     		ldr	r0, [r4, #0]
 1019 006e A042     		cmp	r0, r4
 1020 0070 DCD0     		beq	.L113
 1021              		.loc 1 379 0 is_stmt 1
 1022              	@ 379 "../chibios_2.4.x/os/kernel/src/chsem.c" 1
 1023 0072 FFF7FEFF 		bl      _port_lock
 1024              	@ 0 "" 2
 1025              		.thumb
 1026 0076 FFF7FEFF 		bl	dbg_check_lock
 1027              		.loc 1 380 0
 1028 007a AA68     		ldr	r2, [r5, #8]
 1029 007c 511C     		adds	r1, r2, #1
 1030 007e 0029     		cmp	r1, #0
 1031 0080 A960     		str	r1, [r5, #8]
 1032 0082 DFDC     		bgt	.L115
 1033              	.L120:
 1034              		.loc 1 381 0
 1035 0084 2846     		mov	r0, r5
 1036 0086 FFF7FEFF 		bl	fifo_remove
 1037 008a FFF7FEFF 		bl	chSchReadyI
 1038 008e 0023     		movs	r3, #0
 1039 0090 8362     		str	r3, [r0, #40]
 1040              		.loc 1 382 0
 1041 0092 A168     		ldr	r1, [r4, #8]
 1042 0094 481E     		subs	r0, r1, #1
 1043 0096 0028     		cmp	r0, #0
 1044 0098 A060     		str	r0, [r4, #8]
 1045 009a D8DA     		bge	.L116
 1046              	.L121:
 1047              	.LBB4:
 1048              		.loc 1 383 0
 1049 009c 0C4D     		ldr	r5, .L123+8
 1050              	.LVL40:
 1051              		.loc 1 384 0
 1052 009e 2146     		mov	r1, r4
 1053              		.loc 1 383 0
 1054 00a0 ED69     		ldr	r5, [r5, #28]
 1055              	.LVL41:
 1056              		.loc 1 384 0
 1057 00a2 2846     		mov	r0, r5
 1058 00a4 FFF7FEFF 		bl	queue_insert
 1059              	.LVL42:
 1060              		.loc 1 385 0
 1061 00a8 AC62     		str	r4, [r5, #40]
 1062              		.loc 1 386 0
 1063 00aa 0320     		movs	r0, #3
 1064 00ac FFF7FEFF 		bl	chSchGoSleepS
 1065              		.loc 1 387 0
 1066 00b0 AC6A     		ldr	r4, [r5, #40]
 1067              	.LVL43:
 1068              	.LBE4:
ARM GAS  C:\DOCUME~1\z_80\LOCALS~1\Temp\ccR1wRZe.s 			page 20


 1069              		.loc 1 393 0
 1070 00b2 FFF7FEFF 		bl	dbg_check_unlock
 1071              	.LVL44:
 1072              	@ 393 "../chibios_2.4.x/os/kernel/src/chsem.c" 1
 1073 00b6 FFF7FEFF 		bl      _port_unlock
 1074              	@ 0 "" 2
 1075              		.loc 1 395 0
 1076              		.thumb
 1077 00ba 2046     		mov	r0, r4
 1078 00bc 38BD     		pop	{r3, r4, r5, pc}
 1079              	.LVL45:
 1080              	.L107:
 1081              		.loc 1 369 0 discriminator 1
 1082 00be 0548     		ldr	r0, .L123+12
 1083              	.LVL46:
 1084 00c0 FFF7FEFF 		bl	chDbgPanic
 1085              	.LVL47:
 1086 00c4 A3E7     		b	.L108
 1087              	.L124:
 1088 00c6 00BF     		.align	2
 1089              	.L123:
 1090 00c8 18010000 		.word	.LC14
 1091 00cc 30010000 		.word	.LC15
 1092 00d0 00000000 		.word	rlist
 1093 00d4 04010000 		.word	.LC13
 1094              		.cfi_endproc
 1095              	.LFE10:
 1096              		.size	chSemSignalWait, .-chSemSignalWait
 1097 00d8 AFF30080 		.section	.rodata.str1.4,"aMS",%progbits,1
 1097      AFF30080 
 1098              		.align	2
 1099              	.LC0:
 1100 0000 22636853 		.ascii	"\"chSemInit\"()\000"
 1100      656D496E 
 1100      69742228 
 1100      2900
 1101 000e 0000     		.space	2
 1102              	.LC1:
 1103 0010 22636853 		.ascii	"\"chSemResetI\"()\000"
 1103      656D5265 
 1103      73657449 
 1103      22282900 
 1104              	.LC2:
 1105 0020 63685365 		.ascii	"chSemResetI(), #1\000"
 1105      6D526573 
 1105      65744928 
 1105      292C2023 
 1105      3100
 1106 0032 0000     		.space	2
 1107              	.LC3:
 1108 0034 22636853 		.ascii	"\"chSemWaitS\"()\000"
 1108      656D5761 
 1108      69745322 
 1108      282900
 1109 0043 00       		.space	1
 1110              	.LC4:
 1111 0044 63685365 		.ascii	"chSemWaitS(), #1\000"
ARM GAS  C:\DOCUME~1\z_80\LOCALS~1\Temp\ccR1wRZe.s 			page 21


 1111      6D576169 
 1111      74532829 
 1111      2C202331 
 1111      00
 1112 0055 000000   		.space	3
 1113              	.LC5:
 1114 0058 22636853 		.ascii	"\"chSemWaitTimeoutS\"()\000"
 1114      656D5761 
 1114      69745469 
 1114      6D656F75 
 1114      74532228 
 1115 006e 0000     		.space	2
 1116              	.LC6:
 1117 0070 63685365 		.ascii	"chSemWaitTimeoutS(), #1\000"
 1117      6D576169 
 1117      7454696D 
 1117      656F7574 
 1117      5328292C 
 1118              	.LC7:
 1119 0088 22636853 		.ascii	"\"chSemSignal\"()\000"
 1119      656D5369 
 1119      676E616C 
 1119      22282900 
 1120              	.LC8:
 1121 0098 63685365 		.ascii	"chSemSignal(), #1\000"
 1121      6D536967 
 1121      6E616C28 
 1121      292C2023 
 1121      3100
 1122 00aa 0000     		.space	2
 1123              	.LC9:
 1124 00ac 22636853 		.ascii	"\"chSemSignalI\"()\000"
 1124      656D5369 
 1124      676E616C 
 1124      49222829 
 1124      00
 1125 00bd 000000   		.space	3
 1126              	.LC10:
 1127 00c0 63685365 		.ascii	"chSemSignalI(), #1\000"
 1127      6D536967 
 1127      6E616C49 
 1127      28292C20 
 1127      233100
 1128 00d3 00       		.space	1
 1129              	.LC11:
 1130 00d4 22636853 		.ascii	"\"chSemAddCounterI\"()\000"
 1130      656D4164 
 1130      64436F75 
 1130      6E746572 
 1130      49222829 
 1131 00e9 000000   		.space	3
 1132              	.LC12:
 1133 00ec 63685365 		.ascii	"chSemAddCounterI(), #1\000"
 1133      6D416464 
 1133      436F756E 
 1133      74657249 
 1133      28292C20 
ARM GAS  C:\DOCUME~1\z_80\LOCALS~1\Temp\ccR1wRZe.s 			page 22


 1134 0103 00       		.space	1
 1135              	.LC13:
 1136 0104 22636853 		.ascii	"\"chSemSignalWait\"()\000"
 1136      656D5369 
 1136      676E616C 
 1136      57616974 
 1136      22282900 
 1137              	.LC14:
 1138 0118 63685365 		.ascii	"chSemSignalWait(), #1\000"
 1138      6D536967 
 1138      6E616C57 
 1138      61697428 
 1138      292C2023 
 1139 012e 0000     		.space	2
 1140              	.LC15:
 1141 0130 63685365 		.ascii	"chSemSignalWait(), #2\000"
 1141      6D536967 
 1141      6E616C57 
 1141      61697428 
 1141      292C2023 
 1142 0146 0000     		.text
 1143              	.Letext0: