ARM GAS  /tmp/ccXBsLlb.s 			page 1


   1              		.syntax unified
   2              		.cpu cortex-m3
   3              		.fpu softvfp
   4              		.eabi_attribute 20, 1
   5              		.eabi_attribute 21, 1
   6              		.eabi_attribute 23, 3
   7              		.eabi_attribute 24, 1
   8              		.eabi_attribute 25, 1
   9              		.eabi_attribute 26, 1
  10              		.eabi_attribute 30, 2
  11              		.eabi_attribute 18, 4
  12              		.thumb
  13              		.file	"chsys.c"
  20 0000 C6010000 		.text
  20      02006401 
  20      00000201 
  20      FB0E0D00 
  20      01010101 
  21              	.Ltext0:
  22              		.cfi_sections	.debug_frame
  23              		.section	.text._idle_thread,"ax",%progbits
  24              		.align	2
  25              		.p2align 4,,15
  26              		.global	_idle_thread
  27              		.thumb
  28              		.thumb_func
  29              		.type	_idle_thread, %function
  30              	_idle_thread:
  31              	.LFB0:
  32              		.file 1 "../chibios_2.4.x/os/kernel/src/chsys.c"
  33              		.loc 1 59 0
  34              		.cfi_startproc
  35              		@ args = 0, pretend = 0, frame = 0
  36              		@ frame_needed = 0, uses_anonymous_args = 0
  37              		@ link register save eliminated.
  38              	.LVL0:
  39              		.loc 1 62 0
  40 0000 0248     		ldr	r0, .L4
  41              	.LVL1:
  42 0002 034A     		ldr	r2, .L4+4
  43 0004 C369     		ldr	r3, [r0, #28]
  44 0006 9A61     		str	r2, [r3, #24]
  45              	.L2:
  46 0008 FEE7     		b	.L2
  47              	.L5:
  48 000a 00BF     		.align	2
  49              	.L4:
  50 000c 00000000 		.word	rlist
  51 0010 00000000 		.word	.LC0
  52              		.cfi_endproc
  53              	.LFE0:
ARM GAS  /tmp/ccXBsLlb.s 			page 2


  54              		.size	_idle_thread, .-_idle_thread
  55 0014 AFF30080 		.section	.text.chSysInit,"ax",%progbits
  55      AFF30080 
  55      AFF30080 
  56              		.align	2
  57              		.p2align 4,,15
  58              		.global	chSysInit
  59              		.thumb
  60              		.thumb_func
  61              		.type	chSysInit, %function
  62              	chSysInit:
  63              	.LFB1:
  64              		.loc 1 82 0
  65              		.cfi_startproc
  66              		@ args = 0, pretend = 0, frame = 0
  67              		@ frame_needed = 0, uses_anonymous_args = 0
  68 0000 30B5     		push	{r4, r5, lr}
  69              	.LCFI0:
  70              		.cfi_def_cfa_offset 12
  71 0002 83B0     		sub	sp, sp, #12
  72              	.LCFI1:
  73              		.cfi_def_cfa_offset 24
  74              		.loc 1 88 0
  75              		.cfi_offset 14, -4
  76              		.cfi_offset 5, -8
  77              		.cfi_offset 4, -12
  78 0004 FFF7FEFF 		bl	_port_init
  79              		.loc 1 89 0
  80 0008 FFF7FEFF 		bl	_scheduler_init
  81              		.loc 1 90 0
  82 000c FFF7FEFF 		bl	_vt_init
  83              		.loc 1 92 0
  84 0010 FFF7FEFF 		bl	_core_init
  85              		.loc 1 95 0
  86 0014 FFF7FEFF 		bl	_heap_init
  87              		.loc 1 98 0
  88 0018 FFF7FEFF 		bl	_trace_init
  89              		.loc 1 102 0
  90 001c 4021     		movs	r1, #64
  91 001e 0E48     		ldr	r0, .L7
  92 0020 FFF7FEFF 		bl	_thread_init
  93 0024 0D4D     		ldr	r5, .L7+4
  94              		.loc 1 107 0
  95 0026 0E49     		ldr	r1, .L7+8
  96              		.loc 1 103 0
  97 0028 0124     		movs	r4, #1
  98              		.loc 1 102 0
  99 002a E861     		str	r0, [r5, #28]
 100              		.loc 1 103 0
 101 002c 80F82040 		strb	r4, [r0, #32]
 102              		.loc 1 107 0
 103 0030 C161     		str	r1, [r0, #28]
 104              		.loc 1 109 0
 105 0032 FFF7FEFF 		bl	dbg_check_enable
 106              	.LBB2:
 107 0036 0023     		movs	r3, #0
 108              	.LVL2:
ARM GAS  /tmp/ccXBsLlb.s 			page 3


 109              	@ 109 "../chibios_2.4.x/os/kernel/src/chsys.c" 1
 110 0038 83F31188 		msr     BASEPRI, r3                    
 111 003c 62B6     		cpsie   i
 112              	@ 0 "" 2
 113              	.LVL3:
 114              		.thumb
 115              	.LBE2:
 116              		.loc 1 111 0
 117 003e EA69     		ldr	r2, [r5, #28]
 118              		.loc 1 117 0
 119 0040 1D46     		mov	r5, r3
 120              		.loc 1 111 0
 121 0042 084B     		ldr	r3, .L7+12
 122              	.LVL4:
 123              		.loc 1 117 0
 124 0044 C021     		movs	r1, #192
 125              		.loc 1 111 0
 126 0046 9361     		str	r3, [r2, #24]
 127              		.loc 1 117 0
 128 0048 0748     		ldr	r0, .L7+16
 129 004a 2246     		mov	r2, r4
 130 004c 074B     		ldr	r3, .L7+20
 131 004e 0095     		str	r5, [sp, #0]
 132              	.LVL5:
 133 0050 FFF7FEFF 		bl	chThdCreateStatic
 134              		.loc 1 120 0
 135 0054 03B0     		add	sp, sp, #12
 136 0056 30BD     		pop	{r4, r5, pc}
 137              	.L8:
 138              		.align	2
 139              	.L7:
 140 0058 00000000 		.word	.LANCHOR0
 141 005c 00000000 		.word	rlist
 142 0060 00000000 		.word	__main_thread_stack_base__
 143 0064 08000000 		.word	.LC1
 144 0068 00000000 		.word	.LANCHOR1
 145 006c 00000000 		.word	_idle_thread
 146              		.cfi_endproc
 147              	.LFE1:
 148              		.size	chSysInit, .-chSysInit
 149              		.section	.text.chSysTimerHandlerI,"ax",%progbits
 150              		.align	2
 151              		.p2align 4,,15
 152              		.global	chSysTimerHandlerI
 153              		.thumb
 154              		.thumb_func
 155              		.type	chSysTimerHandlerI, %function
 156              	chSysTimerHandlerI:
 157              	.LFB2:
 158              		.loc 1 133 0
 159              		.cfi_startproc
 160              		@ args = 0, pretend = 0, frame = 0
 161              		@ frame_needed = 0, uses_anonymous_args = 0
 162 0000 70B5     		push	{r4, r5, r6, lr}
 163              	.LCFI2:
 164              		.cfi_def_cfa_offset 16
 165              		.loc 1 135 0
ARM GAS  /tmp/ccXBsLlb.s 			page 4


 166              		.cfi_offset 14, -4
 167              		.cfi_offset 6, -8
 168              		.cfi_offset 5, -12
 169              		.cfi_offset 4, -16
 170 0002 FFF7FEFF 		bl	chDbgCheckClassI
 171              		.loc 1 139 0
 172 0006 114B     		ldr	r3, .L14
 173 0008 9A69     		ldr	r2, [r3, #24]
 174 000a 002A     		cmp	r2, #0
 175 000c 01DD     		ble	.L10
 176              		.loc 1 141 0
 177 000e 013A     		subs	r2, r2, #1
 178 0010 9A61     		str	r2, [r3, #24]
 179              	.L10:
 180              		.loc 1 144 0
 181 0012 DA69     		ldr	r2, [r3, #28]
 182              		.loc 1 146 0
 183 0014 0E4C     		ldr	r4, .L14+4
 184              		.loc 1 144 0
 185 0016 516A     		ldr	r1, [r2, #36]
 186              		.loc 1 146 0
 187 0018 2368     		ldr	r3, [r4, #0]
 188              		.loc 1 144 0
 189 001a 481C     		adds	r0, r1, #1
 190 001c 5062     		str	r0, [r2, #36]
 191              		.loc 1 146 0
 192 001e E168     		ldr	r1, [r4, #12]
 193 0020 481C     		adds	r0, r1, #1
 194 0022 A342     		cmp	r3, r4
 195 0024 E060     		str	r0, [r4, #12]
 196 0026 0FD0     		beq	.L9
 197              	.LBB3:
 198              		.loc 1 146 0 is_stmt 0 discriminator 1
 199 0028 9D68     		ldr	r5, [r3, #8]
 200 002a 013D     		subs	r5, r5, #1
 201 002c 9D60     		str	r5, [r3, #8]
 202              	.LVL6:
 203 002e 5DB9     		cbnz	r5, .L9
 204              		.loc 1 146 0
 205 0030 2646     		mov	r6, r4
 206              	.LVL7:
 207              	.L12:
 208              	.LBB4:
 209              		.loc 1 146 0 discriminator 3
 210 0032 1968     		ldr	r1, [r3, #0]
 211 0034 DA68     		ldr	r2, [r3, #12]
 212              	.LVL8:
 213 0036 1869     		ldr	r0, [r3, #16]
 214 0038 DD60     		str	r5, [r3, #12]
 215 003a 4E60     		str	r6, [r1, #4]
 216 003c 2160     		str	r1, [r4, #0]
 217 003e 9047     		blx	r2
 218              	.LVL9:
 219              	.LBE4:
 220 0040 2368     		ldr	r3, [r4, #0]
 221              	.LVL10:
 222 0042 9868     		ldr	r0, [r3, #8]
ARM GAS  /tmp/ccXBsLlb.s 			page 5


 223 0044 0028     		cmp	r0, #0
 224 0046 F4D0     		beq	.L12
 225              	.LVL11:
 226              	.L9:
 227 0048 70BD     		pop	{r4, r5, r6, pc}
 228              	.L15:
 229 004a 00BF     		.align	2
 230              	.L14:
 231 004c 00000000 		.word	rlist
 232 0050 00000000 		.word	vtlist
 233              	.LBE3:
 234              		.cfi_endproc
 235              	.LFE2:
 236              		.size	chSysTimerHandlerI, .-chSysTimerHandlerI
 237              		.global	_idle_thread_wa
 238 0054 AFF30080 		.section	.bss.mainthread.4697,"aw",%nobits
 238      AFF30080 
 238      AFF30080 
 239              		.align	2
 240              		.set	.LANCHOR0,. + 0
 241              		.type	mainthread.4697, %object
 242              		.size	mainthread.4697, 76
 243              	mainthread.4697:
 244 0000 00000000 		.space	76
 244      00000000 
 244      00000000 
 244      00000000 
 244      00000000 
 245              		.section	.rodata.str1.4,"aMS",%progbits,1
 246              		.align	2
 247              	.LC0:
 248 0000 69646C65 		.ascii	"idle\000"
 248      00
 249 0005 000000   		.space	3
 250              	.LC1:
 251 0008 6D61696E 		.ascii	"main\000"
 251      00
 252 000d 000000   		.section	.bss._idle_thread_wa,"aw",%nobits
 253              		.align	3
 254              		.set	.LANCHOR1,. + 0
 255              		.type	_idle_thread_wa, %object
 256              		.size	_idle_thread_wa, 192
 257              	_idle_thread_wa:
 258 0000 00000000 		.space	192
 258      00000000 
 258      00000000 
 258      00000000 
 258      00000000 
 259              		.text
 260              	.Letext0: