ARM GAS  /tmp/cc6pJwBM.s 			page 1


   1              		.syntax unified
   2              		.cpu cortex-m3
   3              		.fpu softvfp
   4              		.eabi_attribute 20, 1
   5              		.eabi_attribute 21, 1
   6              		.eabi_attribute 23, 3
   7              		.eabi_attribute 24, 1
   8              		.eabi_attribute 25, 1
   9              		.eabi_attribute 26, 1
  10              		.eabi_attribute 30, 2
  11              		.eabi_attribute 18, 4
  12              		.thumb
  13              		.file	"chthreads.c"
  20 0000 B7030000 		.text
  20      0200C301 
  20      00000201 
  20      FB0E0D00 
  20      01010101 
  21              	.Ltext0:
  22              		.cfi_sections	.debug_frame
  23              		.section	.text._thread_init,"ax",%progbits
  24              		.align	2
  25              		.p2align 4,,15
  26              		.global	_thread_init
  27              		.thumb
  28              		.thumb_func
  29              		.type	_thread_init, %function
  30              	_thread_init:
  31              	.LFB0:
  32              		.file 1 "../chibios_2.4.x/os/kernel/src/chthreads.c"
  33              		.loc 1 76 0
  34              		.cfi_startproc
  35              		@ args = 0, pretend = 0, frame = 0
  36              		@ frame_needed = 0, uses_anonymous_args = 0
  37              		@ link register save eliminated.
  38              	.LVL0:
  39 0000 F0B4     		push	{r4, r5, r6, r7}
  40              	.LCFI0:
  41              		.cfi_def_cfa_offset 16
  42              		.loc 1 80 0
  43 0002 0022     		movs	r2, #0
  44              		.loc 1 96 0
  45 0004 104C     		ldr	r4, .L2
  46              		.cfi_offset 7, -4
  47              		.cfi_offset 6, -8
  48              		.cfi_offset 5, -12
  49              		.cfi_offset 4, -16
  50              		.loc 1 92 0
  51 0006 0125     		movs	r5, #1
  52              		.loc 1 79 0
  53 0008 0223     		movs	r3, #2
ARM GAS  /tmp/cc6pJwBM.s 			page 2


  54 000a 80F82030 		strb	r3, [r0, #32]
  55              		.loc 1 80 0
  56 000e 80F82120 		strb	r2, [r0, #33]
  57              		.loc 1 92 0
  58 0012 80F82250 		strb	r5, [r0, #34]
  59              		.loc 1 96 0
  60 0016 6569     		ldr	r5, [r4, #20]
  61              		.loc 1 102 0
  62 0018 00F13006 		add	r6, r0, #48
  63              		.loc 1 99 0
  64 001c 00F12C0C 		add	ip, r0, #44
  65              		.loc 1 105 0
  66 0020 00F14C07 		add	r7, r0, #76
  67              		.loc 1 96 0
  68 0024 0461     		str	r4, [r0, #16]
  69              		.loc 1 78 0
  70 0026 8160     		str	r1, [r0, #8]
  71              		.loc 1 96 0
  72 0028 4561     		str	r5, [r0, #20]
  73              		.loc 1 82 0
  74 002a 4164     		str	r1, [r0, #68]
  75              		.loc 1 96 0
  76 002c 6061     		str	r0, [r4, #20]
  77              		.loc 1 83 0
  78 002e 0264     		str	r2, [r0, #64]
  79              		.loc 1 86 0
  80 0030 C263     		str	r2, [r0, #60]
  81              		.loc 1 89 0
  82 0032 4262     		str	r2, [r0, #36]
  83              		.loc 1 95 0
  84 0034 8261     		str	r2, [r0, #24]
  85              		.loc 1 96 0
  86 0036 2861     		str	r0, [r5, #16]
  87              		.loc 1 99 0
  88 0038 C0F82CC0 		str	ip, [r0, #44]
  89              		.loc 1 102 0
  90 003c 4663     		str	r6, [r0, #52]
  91 003e 0663     		str	r6, [r0, #48]
  92              		.loc 1 105 0
  93 0040 C761     		str	r7, [r0, #28]
  94              		.loc 1 111 0
  95 0042 F0BC     		pop	{r4, r5, r6, r7}
  96 0044 7047     		bx	lr
  97              	.L3:
  98 0046 00BF     		.align	2
  99              	.L2:
 100 0048 00000000 		.word	rlist
 101              		.cfi_endproc
 102              	.LFE0:
 103              		.size	_thread_init, .-_thread_init
 104 004c AFF30080 		.section	.text._thread_memfill,"ax",%progbits
 105              		.align	2
 106              		.p2align 4,,15
 107              		.global	_thread_memfill
 108              		.thumb
 109              		.thumb_func
 110              		.type	_thread_memfill, %function
ARM GAS  /tmp/cc6pJwBM.s 			page 3


 111              	_thread_memfill:
 112              	.LFB1:
 113              		.loc 1 123 0
 114              		.cfi_startproc
 115              		@ args = 0, pretend = 0, frame = 0
 116              		@ frame_needed = 0, uses_anonymous_args = 0
 117              		@ link register save eliminated.
 118              	.LVL1:
 119              		.loc 1 125 0
 120 0000 8842     		cmp	r0, r1
 121 0002 13D2     		bcs	.L4
 122 0004 C343     		mvns	r3, r0
 123              		.loc 1 126 0
 124 0006 00F8012B 		strb	r2, [r0], #1
 125              	.LVL2:
 126 000a CB18     		adds	r3, r1, r3
 127              		.loc 1 125 0
 128 000c 8842     		cmp	r0, r1
 129 000e 03F00103 		and	r3, r3, #1
 130 0012 0CD0     		beq	.L15
 131 0014 1BB1     		cbz	r3, .L7
 132              		.loc 1 126 0
 133 0016 00F8012B 		strb	r2, [r0], #1
 134              		.loc 1 125 0
 135 001a 8842     		cmp	r0, r1
 136 001c 08D0     		beq	.L16
 137              	.L7:
 138              		.loc 1 126 0
 139 001e 0346     		mov	r3, r0
 140 0020 03F8012B 		strb	r2, [r3], #1
 141 0024 4270     		strb	r2, [r0, #1]
 142 0026 581C     		adds	r0, r3, #1
 143              		.loc 1 125 0
 144 0028 8842     		cmp	r0, r1
 145 002a F8D1     		bne	.L7
 146              	.L4:
 147 002c 7047     		bx	lr
 148              	.L15:
 149 002e 7047     		bx	lr
 150              	.L16:
 151 0030 7047     		bx	lr
 152              		.cfi_endproc
 153              	.LFE1:
 154              		.size	_thread_memfill, .-_thread_memfill
 155 0032 00BFAFF3 		.section	.text.chThdCreateI,"ax",%progbits
 155      0080AFF3 
 155      0080AFF3 
 155      0080
 156              		.align	2
 157              		.p2align 4,,15
 158              		.global	chThdCreateI
 159              		.thumb
 160              		.thumb_func
 161              		.type	chThdCreateI, %function
 162              	chThdCreateI:
 163              	.LFB2:
 164              		.loc 1 155 0
ARM GAS  /tmp/cc6pJwBM.s 			page 4


 165              		.cfi_startproc
 166              		@ args = 4, pretend = 0, frame = 0
 167              		@ frame_needed = 0, uses_anonymous_args = 0
 168              	.LVL3:
 169 0000 F8B5     		push	{r3, r4, r5, r6, r7, lr}
 170              	.LCFI1:
 171              		.cfi_def_cfa_offset 24
 172              		.loc 1 155 0
 173 0002 0446     		mov	r4, r0
 174              		.cfi_offset 14, -4
 175              		.cfi_offset 7, -8
 176              		.cfi_offset 6, -12
 177              		.cfi_offset 5, -16
 178              		.cfi_offset 4, -20
 179              		.cfi_offset 3, -24
 180              	.LVL4:
 181 0004 0D46     		mov	r5, r1
 182 0006 1646     		mov	r6, r2
 183 0008 1F46     		mov	r7, r3
 184              		.loc 1 159 0
 185 000a FFF7FEFF 		bl	chDbgCheckClassI
 186              	.LVL5:
 187              		.loc 1 161 0
 188 000e 0CB1     		cbz	r4, .L18
 189              		.loc 1 161 0 is_stmt 0 discriminator 2
 190 0010 AF2D     		cmp	r5, #175
 191 0012 2BD8     		bhi	.L20
 192              	.L18:
 193              		.loc 1 161 0 discriminator 1
 194 0014 1848     		ldr	r0, .L21
 195 0016 FFF7FEFF 		bl	chDbgPanic
 196              	.L19:
 197              		.loc 1 164 0 is_stmt 1
 198 001a 243D     		subs	r5, r5, #36
 199              	.LVL6:
 200 001c 6119     		adds	r1, r4, r5
 201 001e E160     		str	r1, [r4, #12]
 202 0020 6751     		str	r7, [r4, r5]
 203 0022 069D     		ldr	r5, [sp, #24]
 204              	.LVL7:
 205 0024 1548     		ldr	r0, .L21+4
 206 0026 4D60     		str	r5, [r1, #4]
 207              	.LBB8:
 208              	.LBB9:
 209              		.loc 1 80 0
 210 0028 0023     		movs	r3, #0
 211              		.loc 1 96 0
 212 002a 154A     		ldr	r2, .L21+8
 213              		.loc 1 79 0
 214 002c 0227     		movs	r7, #2
 215              	.LVL8:
 216              		.loc 1 92 0
 217 002e 0125     		movs	r5, #1
 218              	.LBE9:
 219              	.LBE8:
 220              		.loc 1 164 0
 221 0030 0862     		str	r0, [r1, #32]
ARM GAS  /tmp/cc6pJwBM.s 			page 5


 222              	.LVL9:
 223              	.LBB11:
 224              	.LBB10:
 225              		.loc 1 79 0
 226 0032 84F82070 		strb	r7, [r4, #32]
 227              		.loc 1 92 0
 228 0036 84F82250 		strb	r5, [r4, #34]
 229              		.loc 1 80 0
 230 003a 84F82130 		strb	r3, [r4, #33]
 231              		.loc 1 96 0
 232 003e 5069     		ldr	r0, [r2, #20]
 233              		.loc 1 102 0
 234 0040 04F13001 		add	r1, r4, #48
 235              	.LVL10:
 236              		.loc 1 99 0
 237 0044 04F12C07 		add	r7, r4, #44
 238              		.loc 1 105 0
 239 0048 04F14C05 		add	r5, r4, #76
 240              		.loc 1 96 0
 241 004c 2261     		str	r2, [r4, #16]
 242 004e 6061     		str	r0, [r4, #20]
 243              		.loc 1 78 0
 244 0050 A660     		str	r6, [r4, #8]
 245              		.loc 1 82 0
 246 0052 6664     		str	r6, [r4, #68]
 247              		.loc 1 96 0
 248 0054 5461     		str	r4, [r2, #20]
 249              		.loc 1 83 0
 250 0056 2364     		str	r3, [r4, #64]
 251              		.loc 1 96 0
 252 0058 0461     		str	r4, [r0, #16]
 253              		.loc 1 86 0
 254 005a E363     		str	r3, [r4, #60]
 255              		.loc 1 89 0
 256 005c 6362     		str	r3, [r4, #36]
 257              		.loc 1 95 0
 258 005e A361     		str	r3, [r4, #24]
 259              		.loc 1 99 0
 260 0060 E762     		str	r7, [r4, #44]
 261              		.loc 1 102 0
 262 0062 6163     		str	r1, [r4, #52]
 263 0064 2163     		str	r1, [r4, #48]
 264              		.loc 1 105 0
 265 0066 E561     		str	r5, [r4, #28]
 266              	.LBE10:
 267              	.LBE11:
 268              		.loc 1 166 0
 269 0068 2046     		mov	r0, r4
 270 006a F8BD     		pop	{r3, r4, r5, r6, r7, pc}
 271              	.LVL11:
 272              	.L20:
 273              		.loc 1 161 0 discriminator 3
 274 006c 7F2E     		cmp	r6, #127
 275 006e D1D8     		bhi	.L18
 276              		.loc 1 161 0 is_stmt 0 discriminator 4
 277 0070 002F     		cmp	r7, #0
 278 0072 D2D1     		bne	.L19
ARM GAS  /tmp/cc6pJwBM.s 			page 6


 279 0074 CEE7     		b	.L18
 280              	.L22:
 281 0076 00BF     		.align	2
 282              	.L21:
 283 0078 00000000 		.word	.LC0
 284 007c 00000000 		.word	_port_thread_start
 285 0080 00000000 		.word	rlist
 286              		.cfi_endproc
 287              	.LFE2:
 288              		.size	chThdCreateI, .-chThdCreateI
 289 0084 AFF30080 		.section	.text.chThdCreateStatic,"ax",%progbits
 289      AFF30080 
 289      AFF30080 
 290              		.align	2
 291              		.p2align 4,,15
 292              		.global	chThdCreateStatic
 293              		.thumb
 294              		.thumb_func
 295              		.type	chThdCreateStatic, %function
 296              	chThdCreateStatic:
 297              	.LFB3:
 298              		.loc 1 185 0 is_stmt 1
 299              		.cfi_startproc
 300              		@ args = 4, pretend = 0, frame = 0
 301              		@ frame_needed = 0, uses_anonymous_args = 0
 302              	.LVL12:
 303 0000 F0B5     		push	{r4, r5, r6, r7, lr}
 304              	.LCFI2:
 305              		.cfi_def_cfa_offset 20
 306 0002 0446     		mov	r4, r0
 307              		.cfi_offset 14, -4
 308              		.cfi_offset 7, -8
 309              		.cfi_offset 6, -12
 310              		.cfi_offset 5, -16
 311              		.cfi_offset 4, -20
 312 0004 0D46     		mov	r5, r1
 313 0006 1E46     		mov	r6, r3
 314 0008 83B0     		sub	sp, sp, #12
 315              	.LCFI3:
 316              		.cfi_def_cfa_offset 32
 317              		.loc 1 185 0
 318 000a 1746     		mov	r7, r2
 319              		.loc 1 189 0
 320 000c 4C30     		adds	r0, r0, #76
 321              	.LVL13:
 322              		.loc 1 184 0
 323 000e 2346     		mov	r3, r4
 324              	.LVL14:
 325              	.LBB12:
 326              	.LBB13:
 327              		.loc 1 126 0
 328 0010 FF21     		movs	r1, #255
 329              	.LVL15:
 330              	.L24:
 331 0012 1A46     		mov	r2, r3
 332 0014 02F8011B 		strb	r1, [r2], #1
 333              	.LVL16:
ARM GAS  /tmp/cc6pJwBM.s 			page 7


 334 0018 5970     		strb	r1, [r3, #1]
 335 001a 531C     		adds	r3, r2, #1
 336              	.LVL17:
 337              		.loc 1 125 0
 338 001c 8342     		cmp	r3, r0
 339 001e F8D1     		bne	.L24
 340              	.LBE13:
 341              	.LBE12:
 342              		.loc 1 192 0
 343 0020 6019     		adds	r0, r4, r5
 344              	.LVL18:
 345              	.LBB14:
 346              	.LBB15:
 347              		.loc 1 125 0
 348 0022 8342     		cmp	r3, r0
 349 0024 15D2     		bcs	.L25
 350              		.loc 1 126 0
 351 0026 5521     		movs	r1, #85
 352 0028 DA43     		mvns	r2, r3
 353 002a 03F8011B 		strb	r1, [r3], #1
 354              	.LVL19:
 355 002e 00EB020C 		add	ip, r0, r2
 356              		.loc 1 125 0
 357 0032 8342     		cmp	r3, r0
 358 0034 0CF00102 		and	r2, ip, #1
 359 0038 0BD0     		beq	.L25
 360 003a 1AB1     		cbz	r2, .L27
 361              		.loc 1 126 0
 362 003c 03F8011B 		strb	r1, [r3], #1
 363              	.LVL20:
 364              		.loc 1 125 0
 365 0040 8342     		cmp	r3, r0
 366 0042 06D0     		beq	.L25
 367              	.LVL21:
 368              	.L27:
 369              		.loc 1 126 0
 370 0044 1A46     		mov	r2, r3
 371 0046 02F8011B 		strb	r1, [r2], #1
 372 004a 5970     		strb	r1, [r3, #1]
 373 004c 531C     		adds	r3, r2, #1
 374              		.loc 1 125 0
 375 004e 8342     		cmp	r3, r0
 376 0050 F8D1     		bne	.L27
 377              	.L25:
 378              	.LBE15:
 379              	.LBE14:
 380              		.loc 1 196 0
 381              	@ 196 "../chibios_2.4.x/os/kernel/src/chthreads.c" 1
 382 0052 FFF7FEFF 		bl      _port_lock
 383              	@ 0 "" 2
 384              		.thumb
 385 0056 FFF7FEFF 		bl	dbg_check_lock
 386              	.LVL22:
 387              		.loc 1 197 0
 388 005a 2046     		mov	r0, r4
 389 005c 089C     		ldr	r4, [sp, #32]
 390              	.LVL23:
ARM GAS  /tmp/cc6pJwBM.s 			page 8


 391 005e 3A46     		mov	r2, r7
 392 0060 3346     		mov	r3, r6
 393 0062 2946     		mov	r1, r5
 394 0064 0094     		str	r4, [sp, #0]
 395 0066 FFF7FEFF 		bl	chThdCreateI
 396              	.LVL24:
 397 006a 0021     		movs	r1, #0
 398 006c 0446     		mov	r4, r0
 399              	.LVL25:
 400 006e FFF7FEFF 		bl	chSchWakeupS
 401              	.LVL26:
 402              		.loc 1 198 0
 403 0072 FFF7FEFF 		bl	dbg_check_unlock
 404              	@ 198 "../chibios_2.4.x/os/kernel/src/chthreads.c" 1
 405 0076 FFF7FEFF 		bl      _port_unlock
 406              	@ 0 "" 2
 407              		.loc 1 200 0
 408              		.thumb
 409 007a 2046     		mov	r0, r4
 410 007c 03B0     		add	sp, sp, #12
 411 007e F0BD     		pop	{r4, r5, r6, r7, pc}
 412              		.cfi_endproc
 413              	.LFE3:
 414              		.size	chThdCreateStatic, .-chThdCreateStatic
 415              		.section	.text.chThdSetPriority,"ax",%progbits
 416              		.align	2
 417              		.p2align 4,,15
 418              		.global	chThdSetPriority
 419              		.thumb
 420              		.thumb_func
 421              		.type	chThdSetPriority, %function
 422              	chThdSetPriority:
 423              	.LFB4:
 424              		.loc 1 214 0
 425              		.cfi_startproc
 426              		@ args = 0, pretend = 0, frame = 0
 427              		@ frame_needed = 0, uses_anonymous_args = 0
 428              	.LVL27:
 429              		.loc 1 217 0
 430 0000 7F28     		cmp	r0, #127
 431              		.loc 1 214 0
 432 0002 38B5     		push	{r3, r4, r5, lr}
 433              	.LCFI4:
 434              		.cfi_def_cfa_offset 16
 435              		.loc 1 214 0
 436 0004 0446     		mov	r4, r0
 437              		.cfi_offset 14, -4
 438              		.cfi_offset 5, -8
 439              		.cfi_offset 4, -12
 440              		.cfi_offset 3, -16
 441              		.loc 1 217 0
 442 0006 15D8     		bhi	.L40
 443              	.LVL28:
 444              	.L37:
 445              		.loc 1 219 0
 446              	@ 219 "../chibios_2.4.x/os/kernel/src/chthreads.c" 1
 447 0008 FFF7FEFF 		bl      _port_lock
ARM GAS  /tmp/cc6pJwBM.s 			page 9


 448              	@ 0 "" 2
 449              		.thumb
 450 000c FFF7FEFF 		bl	dbg_check_lock
 451              		.loc 1 221 0
 452 0010 0A4B     		ldr	r3, .L41
 453 0012 DB69     		ldr	r3, [r3, #28]
 454 0014 5D6C     		ldr	r5, [r3, #68]
 455              	.LVL29:
 456              		.loc 1 222 0
 457 0016 9A68     		ldr	r2, [r3, #8]
 458 0018 9542     		cmp	r5, r2
 459 001a 01D0     		beq	.L38
 460              		.loc 1 222 0 is_stmt 0 discriminator 1
 461 001c 9442     		cmp	r4, r2
 462 001e 00D9     		bls	.L39
 463              	.L38:
 464              		.loc 1 223 0 is_stmt 1
 465 0020 9C60     		str	r4, [r3, #8]
 466              	.L39:
 467              		.loc 1 224 0
 468 0022 5C64     		str	r4, [r3, #68]
 469              		.loc 1 229 0
 470 0024 FFF7FEFF 		bl	chSchRescheduleS
 471              		.loc 1 230 0
 472 0028 FFF7FEFF 		bl	dbg_check_unlock
 473              	@ 230 "../chibios_2.4.x/os/kernel/src/chthreads.c" 1
 474 002c FFF7FEFF 		bl      _port_unlock
 475              	@ 0 "" 2
 476              		.loc 1 232 0
 477              		.thumb
 478 0030 2846     		mov	r0, r5
 479 0032 38BD     		pop	{r3, r4, r5, pc}
 480              	.LVL30:
 481              	.L40:
 482              		.loc 1 217 0 discriminator 1
 483 0034 0248     		ldr	r0, .L41+4
 484 0036 FFF7FEFF 		bl	chDbgPanic
 485 003a E5E7     		b	.L37
 486              	.L42:
 487              		.align	2
 488              	.L41:
 489 003c 00000000 		.word	rlist
 490 0040 14000000 		.word	.LC1
 491              		.cfi_endproc
 492              	.LFE4:
 493              		.size	chThdSetPriority, .-chThdSetPriority
 494 0044 AFF30080 		.section	.text.chThdResume,"ax",%progbits
 494      AFF30080 
 494      AFF30080 
 495              		.align	2
 496              		.p2align 4,,15
 497              		.global	chThdResume
 498              		.thumb
 499              		.thumb_func
 500              		.type	chThdResume, %function
 501              	chThdResume:
 502              	.LFB5:
ARM GAS  /tmp/cc6pJwBM.s 			page 10


 503              		.loc 1 247 0
 504              		.cfi_startproc
 505              		@ args = 0, pretend = 0, frame = 0
 506              		@ frame_needed = 0, uses_anonymous_args = 0
 507              	.LVL31:
 508 0000 10B5     		push	{r4, lr}
 509              	.LCFI5:
 510              		.cfi_def_cfa_offset 8
 511              		.loc 1 247 0
 512 0002 0446     		mov	r4, r0
 513              		.cfi_offset 14, -4
 514              		.cfi_offset 4, -8
 515              		.loc 1 249 0
 516              	@ 249 "../chibios_2.4.x/os/kernel/src/chthreads.c" 1
 517 0004 FFF7FEFF 		bl      _port_lock
 518              	@ 0 "" 2
 519              		.thumb
 520 0008 FFF7FEFF 		bl	dbg_check_lock
 521              	.LVL32:
 522              		.loc 1 250 0
 523 000c 94F82030 		ldrb	r3, [r4, #32]	@ zero_extendqisi2
 524 0010 022B     		cmp	r3, #2
 525 0012 02D0     		beq	.L44
 526              		.loc 1 250 0 is_stmt 0 discriminator 1
 527 0014 0648     		ldr	r0, .L45
 528 0016 FFF7FEFF 		bl	chDbgPanic
 529              	.L44:
 530              		.loc 1 253 0 is_stmt 1
 531 001a 2046     		mov	r0, r4
 532 001c 0021     		movs	r1, #0
 533 001e FFF7FEFF 		bl	chSchWakeupS
 534              		.loc 1 254 0
 535 0022 FFF7FEFF 		bl	dbg_check_unlock
 536              	@ 254 "../chibios_2.4.x/os/kernel/src/chthreads.c" 1
 537 0026 FFF7FEFF 		bl      _port_unlock
 538              	@ 0 "" 2
 539              		.loc 1 256 0
 540              		.thumb
 541 002a 2046     		mov	r0, r4
 542 002c 10BD     		pop	{r4, pc}
 543              	.L46:
 544 002e 00BF     		.align	2
 545              	.L45:
 546 0030 2C000000 		.word	.LC2
 547              		.cfi_endproc
 548              	.LFE5:
 549              		.size	chThdResume, .-chThdResume
 550 0034 AFF30080 		.section	.text.chThdTerminate,"ax",%progbits
 550      AFF30080 
 550      AFF30080 
 551              		.align	2
 552              		.p2align 4,,15
 553              		.global	chThdTerminate
 554              		.thumb
 555              		.thumb_func
 556              		.type	chThdTerminate, %function
 557              	chThdTerminate:
ARM GAS  /tmp/cc6pJwBM.s 			page 11


 558              	.LFB6:
 559              		.loc 1 270 0
 560              		.cfi_startproc
 561              		@ args = 0, pretend = 0, frame = 0
 562              		@ frame_needed = 0, uses_anonymous_args = 0
 563              	.LVL33:
 564 0000 10B5     		push	{r4, lr}
 565              	.LCFI6:
 566              		.cfi_def_cfa_offset 8
 567              		.loc 1 270 0
 568 0002 0446     		mov	r4, r0
 569              		.cfi_offset 14, -4
 570              		.cfi_offset 4, -8
 571              		.loc 1 272 0
 572              	@ 272 "../chibios_2.4.x/os/kernel/src/chthreads.c" 1
 573 0004 FFF7FEFF 		bl      _port_lock
 574              	@ 0 "" 2
 575              		.thumb
 576 0008 FFF7FEFF 		bl	dbg_check_lock
 577              	.LVL34:
 578              		.loc 1 273 0
 579 000c 94F82100 		ldrb	r0, [r4, #33]	@ zero_extendqisi2
 580 0010 40F00403 		orr	r3, r0, #4
 581 0014 84F82130 		strb	r3, [r4, #33]
 582              		.loc 1 274 0
 583 0018 FFF7FEFF 		bl	dbg_check_unlock
 584              	@ 274 "../chibios_2.4.x/os/kernel/src/chthreads.c" 1
 585 001c FFF7FEFF 		bl      _port_unlock
 586              	@ 0 "" 2
 587              		.loc 1 275 0
 588              		.thumb
 589 0020 10BD     		pop	{r4, pc}
 590              		.cfi_endproc
 591              	.LFE6:
 592              		.size	chThdTerminate, .-chThdTerminate
 593 0022 00BFAFF3 		.section	.text.chThdSleep,"ax",%progbits
 593      0080AFF3 
 593      0080AFF3 
 593      0080
 594              		.align	2
 595              		.p2align 4,,15
 596              		.global	chThdSleep
 597              		.thumb
 598              		.thumb_func
 599              		.type	chThdSleep, %function
 600              	chThdSleep:
 601              	.LFB7:
 602              		.loc 1 289 0
 603              		.cfi_startproc
 604              		@ args = 0, pretend = 0, frame = 0
 605              		@ frame_needed = 0, uses_anonymous_args = 0
 606              	.LVL35:
 607 0000 10B5     		push	{r4, lr}
 608              	.LCFI7:
 609              		.cfi_def_cfa_offset 8
 610              		.loc 1 291 0
 611 0002 0446     		mov	r4, r0
ARM GAS  /tmp/cc6pJwBM.s 			page 12


 612              		.cfi_offset 14, -4
 613              		.cfi_offset 4, -8
 614 0004 10B9     		cbnz	r0, .L49
 615              		.loc 1 291 0 is_stmt 0 discriminator 1
 616 0006 0848     		ldr	r0, .L50
 617              	.LVL36:
 618 0008 FFF7FEFF 		bl	chDbgPanic
 619              	.L49:
 620              		.loc 1 293 0 is_stmt 1
 621              	@ 293 "../chibios_2.4.x/os/kernel/src/chthreads.c" 1
 622 000c FFF7FEFF 		bl      _port_lock
 623              	@ 0 "" 2
 624              		.thumb
 625 0010 FFF7FEFF 		bl	dbg_check_lock
 626              		.loc 1 294 0
 627 0014 2146     		mov	r1, r4
 628 0016 0620     		movs	r0, #6
 629 0018 FFF7FEFF 		bl	chSchGoSleepTimeoutS
 630              		.loc 1 295 0
 631 001c FFF7FEFF 		bl	dbg_check_unlock
 632              	@ 295 "../chibios_2.4.x/os/kernel/src/chthreads.c" 1
 633 0020 FFF7FEFF 		bl      _port_unlock
 634              	@ 0 "" 2
 635              		.loc 1 296 0
 636              		.thumb
 637 0024 10BD     		pop	{r4, pc}
 638              	.L51:
 639 0026 00BF     		.align	2
 640              	.L50:
 641 0028 40000000 		.word	.LC3
 642              		.cfi_endproc
 643              	.LFE7:
 644              		.size	chThdSleep, .-chThdSleep
 645 002c AFF30080 		.section	.text.chThdSleepUntil,"ax",%progbits
 646              		.align	2
 647              		.p2align 4,,15
 648              		.global	chThdSleepUntil
 649              		.thumb
 650              		.thumb_func
 651              		.type	chThdSleepUntil, %function
 652              	chThdSleepUntil:
 653              	.LFB8:
 654              		.loc 1 306 0
 655              		.cfi_startproc
 656              		@ args = 0, pretend = 0, frame = 0
 657              		@ frame_needed = 0, uses_anonymous_args = 0
 658              	.LVL37:
 659 0000 10B5     		push	{r4, lr}
 660              	.LCFI8:
 661              		.cfi_def_cfa_offset 8
 662              		.loc 1 306 0
 663 0002 0446     		mov	r4, r0
 664              		.cfi_offset 14, -4
 665              		.cfi_offset 4, -8
 666              		.loc 1 308 0
 667              	@ 308 "../chibios_2.4.x/os/kernel/src/chthreads.c" 1
 668 0004 FFF7FEFF 		bl      _port_lock
ARM GAS  /tmp/cc6pJwBM.s 			page 13


 669              	@ 0 "" 2
 670              		.thumb
 671 0008 FFF7FEFF 		bl	dbg_check_lock
 672              	.LVL38:
 673              		.loc 1 309 0
 674 000c 054B     		ldr	r3, .L54
 675 000e D968     		ldr	r1, [r3, #12]
 676              	.LVL39:
 677 0010 611A     		subs	r1, r4, r1
 678              	.LVL40:
 679 0012 02D0     		beq	.L53
 680              		.loc 1 310 0
 681 0014 0620     		movs	r0, #6
 682 0016 FFF7FEFF 		bl	chSchGoSleepTimeoutS
 683              	.LVL41:
 684              	.L53:
 685              		.loc 1 311 0
 686 001a FFF7FEFF 		bl	dbg_check_unlock
 687              	@ 311 "../chibios_2.4.x/os/kernel/src/chthreads.c" 1
 688 001e FFF7FEFF 		bl      _port_unlock
 689              	@ 0 "" 2
 690              		.loc 1 312 0
 691              		.thumb
 692 0022 10BD     		pop	{r4, pc}
 693              	.L55:
 694              		.align	2
 695              	.L54:
 696 0024 00000000 		.word	vtlist
 697              		.cfi_endproc
 698              	.LFE8:
 699              		.size	chThdSleepUntil, .-chThdSleepUntil
 700 0028 AFF30080 		.section	.text.chThdYield,"ax",%progbits
 700      AFF30080 
 701              		.align	2
 702              		.p2align 4,,15
 703              		.global	chThdYield
 704              		.thumb
 705              		.thumb_func
 706              		.type	chThdYield, %function
 707              	chThdYield:
 708              	.LFB9:
 709              		.loc 1 321 0
 710              		.cfi_startproc
 711              		@ args = 0, pretend = 0, frame = 0
 712              		@ frame_needed = 0, uses_anonymous_args = 0
 713 0000 08B5     		push	{r3, lr}
 714              	.LCFI9:
 715              		.cfi_def_cfa_offset 8
 716              		.loc 1 323 0
 717              	@ 323 "../chibios_2.4.x/os/kernel/src/chthreads.c" 1
 718 0002 FFF7FEFF 		bl      _port_lock
 719              	@ 0 "" 2
 720              		.thumb
 721              		.cfi_offset 14, -4
 722              		.cfi_offset 3, -8
 723 0006 FFF7FEFF 		bl	dbg_check_lock
 724              		.loc 1 324 0
ARM GAS  /tmp/cc6pJwBM.s 			page 14


 725 000a 074A     		ldr	r2, .L58
 726 000c D069     		ldr	r0, [r2, #28]
 727 000e 1168     		ldr	r1, [r2, #0]
 728 0010 8368     		ldr	r3, [r0, #8]
 729 0012 8A68     		ldr	r2, [r1, #8]
 730 0014 9A42     		cmp	r2, r3
 731 0016 01D3     		bcc	.L57
 732              		.loc 1 324 0 is_stmt 0 discriminator 1
 733 0018 FFF7FEFF 		bl	chSchDoReschedule
 734              	.L57:
 735              		.loc 1 325 0 is_stmt 1
 736 001c FFF7FEFF 		bl	dbg_check_unlock
 737              	@ 325 "../chibios_2.4.x/os/kernel/src/chthreads.c" 1
 738 0020 FFF7FEFF 		bl      _port_unlock
 739              	@ 0 "" 2
 740              		.loc 1 326 0
 741              		.thumb
 742 0024 08BD     		pop	{r3, pc}
 743              	.L59:
 744 0026 00BF     		.align	2
 745              	.L58:
 746 0028 00000000 		.word	rlist
 747              		.cfi_endproc
 748              	.LFE9:
 749              		.size	chThdYield, .-chThdYield
 750 002c AFF30080 		.section	.text.chThdExitS,"ax",%progbits
 751              		.align	2
 752              		.p2align 4,,15
 753              		.global	chThdExitS
 754              		.thumb
 755              		.thumb_func
 756              		.type	chThdExitS, %function
 757              	chThdExitS:
 758              	.LFB11:
 759              		.loc 1 363 0
 760              		.cfi_startproc
 761              		@ args = 0, pretend = 0, frame = 0
 762              		@ frame_needed = 0, uses_anonymous_args = 0
 763              	.LVL42:
 764              		.loc 1 364 0
 765 0000 1149     		ldr	r1, .L66
 766              		.loc 1 363 0
 767 0002 70B5     		push	{r4, r5, r6, lr}
 768              	.LCFI10:
 769              		.cfi_def_cfa_offset 16
 770              		.loc 1 364 0
 771 0004 CD69     		ldr	r5, [r1, #28]
 772              		.cfi_offset 14, -4
 773              		.cfi_offset 6, -8
 774              		.cfi_offset 5, -12
 775              		.cfi_offset 4, -16
 776              	.LVL43:
 777              		.loc 1 371 0
 778 0006 EB6A     		ldr	r3, [r5, #44]
 779 0008 05F12C04 		add	r4, r5, #44
 780 000c A342     		cmp	r3, r4
 781              		.loc 1 366 0
ARM GAS  /tmp/cc6pJwBM.s 			page 15


 782 000e A862     		str	r0, [r5, #40]
 783              		.loc 1 371 0
 784 0010 07D0     		beq	.L61
 785              	.LVL44:
 786              	.L64:
 787              		.loc 1 372 0
 788 0012 2046     		mov	r0, r4
 789 0014 FFF7FEFF 		bl	list_remove
 790 0018 FFF7FEFF 		bl	chSchReadyI
 791              		.loc 1 371 0
 792 001c E86A     		ldr	r0, [r5, #44]
 793 001e A042     		cmp	r0, r4
 794 0020 F7D1     		bne	.L64
 795              	.L61:
 796              		.loc 1 377 0
 797 0022 95F82120 		ldrb	r2, [r5, #33]	@ zero_extendqisi2
 798 0026 12F0030F 		tst	r2, #3
 799 002a 04D1     		bne	.L63
 800              		.loc 1 378 0
 801 002c 6B69     		ldr	r3, [r5, #20]
 802 002e 2869     		ldr	r0, [r5, #16]
 803 0030 1861     		str	r0, [r3, #16]
 804 0032 2969     		ldr	r1, [r5, #16]
 805 0034 4B61     		str	r3, [r1, #20]
 806              	.L63:
 807              		.loc 1 380 0
 808 0036 0E20     		movs	r0, #14
 809 0038 FFF7FEFF 		bl	chSchGoSleepS
 810              		.loc 1 382 0
 811 003c 0348     		ldr	r0, .L66+4
 812              		.loc 1 383 0
 813 003e BDE87040 		pop	{r4, r5, r6, lr}
 814              		.loc 1 382 0
 815 0042 FFF7FEBF 		b	chDbgPanic
 816              	.L67:
 817 0046 00BF     		.align	2
 818              	.L66:
 819 0048 00000000 		.word	rlist
 820 004c 50000000 		.word	.LC4
 821              		.cfi_endproc
 822              	.LFE11:
 823              		.size	chThdExitS, .-chThdExitS
 824              		.section	.text.chThdExit,"ax",%progbits
 825              		.align	2
 826              		.p2align 4,,15
 827              		.global	chThdExit
 828              		.thumb
 829              		.thumb_func
 830              		.type	chThdExit, %function
 831              	chThdExit:
 832              	.LFB10:
 833              		.loc 1 342 0
 834              		.cfi_startproc
 835              		@ args = 0, pretend = 0, frame = 0
 836              		@ frame_needed = 0, uses_anonymous_args = 0
 837              	.LVL45:
 838 0000 10B5     		push	{r4, lr}
ARM GAS  /tmp/cc6pJwBM.s 			page 16


 839              	.LCFI11:
 840              		.cfi_def_cfa_offset 8
 841              		.loc 1 342 0
 842 0002 0446     		mov	r4, r0
 843              		.cfi_offset 14, -4
 844              		.cfi_offset 4, -8
 845              		.loc 1 344 0
 846              	@ 344 "../chibios_2.4.x/os/kernel/src/chthreads.c" 1
 847 0004 FFF7FEFF 		bl      _port_lock
 848              	@ 0 "" 2
 849              		.thumb
 850 0008 FFF7FEFF 		bl	dbg_check_lock
 851              	.LVL46:
 852              		.loc 1 345 0
 853 000c 2046     		mov	r0, r4
 854              		.loc 1 347 0
 855 000e BDE81040 		pop	{r4, lr}
 856              		.loc 1 345 0
 857 0012 FFF7FEBF 		b	chThdExitS
 858              		.cfi_endproc
 859              	.LFE10:
 860              		.size	chThdExit, .-chThdExit
 861 0016 00BFAFF3 		.section	.text.chThdWait,"ax",%progbits
 861      0080AFF3 
 861      0080
 862              		.align	2
 863              		.p2align 4,,15
 864              		.global	chThdWait
 865              		.thumb
 866              		.thumb_func
 867              		.type	chThdWait, %function
 868              	chThdWait:
 869              	.LFB12:
 870              		.loc 1 417 0
 871              		.cfi_startproc
 872              		@ args = 0, pretend = 0, frame = 0
 873              		@ frame_needed = 0, uses_anonymous_args = 0
 874              	.LVL47:
 875 0000 38B5     		push	{r3, r4, r5, lr}
 876              	.LCFI12:
 877              		.cfi_def_cfa_offset 16
 878              		.loc 1 420 0
 879 0002 0446     		mov	r4, r0
 880              		.cfi_offset 14, -4
 881              		.cfi_offset 5, -8
 882              		.cfi_offset 4, -12
 883              		.cfi_offset 3, -16
 884 0004 40B3     		cbz	r0, .L74
 885              	.LVL48:
 886              	.L70:
 887              		.loc 1 422 0
 888              	@ 422 "../chibios_2.4.x/os/kernel/src/chthreads.c" 1
 889 0006 FFF7FEFF 		bl      _port_lock
 890              	@ 0 "" 2
 891              		.loc 1 423 0
 892              		.thumb
 893 000a 154D     		ldr	r5, .L77
ARM GAS  /tmp/cc6pJwBM.s 			page 17


 894              		.loc 1 422 0
 895 000c FFF7FEFF 		bl	dbg_check_lock
 896              		.loc 1 423 0
 897 0010 EB69     		ldr	r3, [r5, #28]
 898 0012 A342     		cmp	r3, r4
 899 0014 1CD0     		beq	.L75
 900              	.L71:
 901              		.loc 1 425 0
 902 0016 94F82200 		ldrb	r0, [r4, #34]	@ zero_extendqisi2
 903 001a A8B1     		cbz	r0, .L76
 904              	.L72:
 905              		.loc 1 427 0
 906 001c 94F82010 		ldrb	r1, [r4, #32]	@ zero_extendqisi2
 907 0020 0E29     		cmp	r1, #14
 908 0022 07D0     		beq	.L73
 909              		.loc 1 428 0
 910 0024 E869     		ldr	r0, [r5, #28]
 911 0026 04F12C01 		add	r1, r4, #44
 912 002a FFF7FEFF 		bl	list_insert
 913              		.loc 1 429 0
 914 002e 0720     		movs	r0, #7
 915 0030 FFF7FEFF 		bl	chSchGoSleepS
 916              	.L73:
 917              		.loc 1 431 0
 918 0034 A56A     		ldr	r5, [r4, #40]
 919              	.LVL49:
 920              		.loc 1 432 0
 921 0036 FFF7FEFF 		bl	dbg_check_unlock
 922              	.LVL50:
 923              	@ 432 "../chibios_2.4.x/os/kernel/src/chthreads.c" 1
 924 003a FFF7FEFF 		bl      _port_unlock
 925              	@ 0 "" 2
 926              		.loc 1 434 0
 927              		.thumb
 928 003e 2046     		mov	r0, r4
 929 0040 FFF7FEFF 		bl	chThdRelease
 930              		.loc 1 437 0
 931 0044 2846     		mov	r0, r5
 932 0046 38BD     		pop	{r3, r4, r5, pc}
 933              	.LVL51:
 934              	.L76:
 935              		.loc 1 425 0 discriminator 1
 936 0048 0648     		ldr	r0, .L77+4
 937 004a FFF7FEFF 		bl	chDbgPanic
 938 004e E5E7     		b	.L72
 939              	.L75:
 940              		.loc 1 423 0 discriminator 1
 941 0050 0548     		ldr	r0, .L77+8
 942 0052 FFF7FEFF 		bl	chDbgPanic
 943 0056 DEE7     		b	.L71
 944              	.L74:
 945              		.loc 1 420 0 discriminator 1
 946 0058 0448     		ldr	r0, .L77+12
 947 005a FFF7FEFF 		bl	chDbgPanic
 948 005e D2E7     		b	.L70
 949              	.L78:
 950              		.align	2
ARM GAS  /tmp/cc6pJwBM.s 			page 18


 951              	.L77:
 952 0060 00000000 		.word	rlist
 953 0064 84000000 		.word	.LC7
 954 0068 74000000 		.word	.LC6
 955 006c 64000000 		.word	.LC5
 956              		.cfi_endproc
 957              	.LFE12:
 958              		.size	chThdWait, .-chThdWait
 959              		.section	.rodata.str1.4,"aMS",%progbits,1
 960              		.align	2
 961              	.LC0:
 962 0000 22636854 		.ascii	"\"chThdCreateI\"()\000"
 962      68644372 
 962      65617465 
 962      49222829 
 962      00
 963 0011 000000   		.space	3
 964              	.LC1:
 965 0014 22636854 		.ascii	"\"chThdSetPriority\"()\000"
 965      68645365 
 965      74507269 
 965      6F726974 
 965      79222829 
 966 0029 000000   		.space	3
 967              	.LC2:
 968 002c 63685468 		.ascii	"chThdResume(), #1\000"
 968      64526573 
 968      756D6528 
 968      292C2023 
 968      3100
 969 003e 0000     		.space	2
 970              	.LC3:
 971 0040 22636854 		.ascii	"\"chThdSleep\"()\000"
 971      6864536C 
 971      65657022 
 971      282900
 972 004f 00       		.space	1
 973              	.LC4:
 974 0050 63685468 		.ascii	"chThdExitS(), #1\000"
 974      64457869 
 974      74532829 
 974      2C202331 
 974      00
 975 0061 000000   		.space	3
 976              	.LC5:
 977 0064 22636854 		.ascii	"\"chThdWait\"()\000"
 977      68645761 
 977      69742228 
 977      2900
 978 0072 0000     		.space	2
 979              	.LC6:
 980 0074 63685468 		.ascii	"chThdWait(), #1\000"
 980      64576169 
 980      7428292C 
 980      20233100 
 981              	.LC7:
 982 0084 63685468 		.ascii	"chThdWait(), #2\000"
ARM GAS  /tmp/cc6pJwBM.s 			page 19


 982      64576169 
 982      7428292C 
 982      20233200 
 983              		.text
 984              	.Letext0: