ARM GAS  C:\DOCUME~1\z_80\LOCALS~1\Temp\ccXGW5k0.s 			page 1


   1              		.syntax unified
   2              		.cpu cortex-m3
   3              		.fpu softvfp
   4              		.eabi_attribute 20, 1
   5              		.eabi_attribute 21, 1
   6              		.eabi_attribute 23, 3
   7              		.eabi_attribute 24, 1
   8              		.eabi_attribute 25, 1
   9              		.eabi_attribute 26, 1
  10              		.eabi_attribute 30, 2
  11              		.eabi_attribute 18, 4
  12              		.thumb
  13              		.file	"chvt.c"
  20 0000 B2010000 		.text
  20      02001401 
  20      00000201 
  20      FB0E0D00 
  20      01010101 
  21              	.Ltext0:
  22              		.cfi_sections	.debug_frame
  23              		.section	.text._vt_init,"ax",%progbits
  24              		.align	2
  25              		.p2align 4,,15
  26              		.global	_vt_init
  27              		.thumb
  28              		.thumb_func
  29              		.type	_vt_init, %function
  30              	_vt_init:
  31              	.LFB0:
  32              		.file 1 "../chibios_2.4.x/os/kernel/src/chvt.c"
  33              		.loc 1 50 0
  34              		.cfi_startproc
  35              		@ args = 0, pretend = 0, frame = 0
  36              		@ frame_needed = 0, uses_anonymous_args = 0
  37              		@ link register save eliminated.
  38              		.loc 1 52 0
  39 0000 044B     		ldr	r3, .L2
  40              		.loc 1 53 0
  41 0002 4FF0FF30 		mov	r0, #-1
  42              		.loc 1 54 0
  43 0006 0022     		movs	r2, #0
  44              		.loc 1 52 0
  45 0008 5B60     		str	r3, [r3, #4]
  46 000a 1B60     		str	r3, [r3, #0]
  47              		.loc 1 53 0
  48 000c 9860     		str	r0, [r3, #8]
  49              		.loc 1 54 0
  50 000e DA60     		str	r2, [r3, #12]
  51              		.loc 1 55 0
  52 0010 7047     		bx	lr
  53              	.L3:
ARM GAS  C:\DOCUME~1\z_80\LOCALS~1\Temp\ccXGW5k0.s 			page 2


  54 0012 00BF     		.align	2
  55              	.L2:
  56 0014 00000000 		.word	.LANCHOR0
  57              		.cfi_endproc
  58              	.LFE0:
  59              		.size	_vt_init, .-_vt_init
  60 0018 AFF30080 		.section	.text.chVTSetI,"ax",%progbits
  60      AFF30080 
  61              		.align	2
  62              		.p2align 4,,15
  63              		.global	chVTSetI
  64              		.thumb
  65              		.thumb_func
  66              		.type	chVTSetI, %function
  67              	chVTSetI:
  68              	.LFB1:
  69              		.loc 1 77 0
  70              		.cfi_startproc
  71              		@ args = 0, pretend = 0, frame = 0
  72              		@ frame_needed = 0, uses_anonymous_args = 0
  73              	.LVL0:
  74 0000 F8B5     		push	{r3, r4, r5, r6, r7, lr}
  75              	.LCFI0:
  76              		.cfi_def_cfa_offset 24
  77              		.loc 1 77 0
  78 0002 0446     		mov	r4, r0
  79              		.cfi_offset 14, -4
  80              		.cfi_offset 7, -8
  81              		.cfi_offset 6, -12
  82              		.cfi_offset 5, -16
  83              		.cfi_offset 4, -20
  84              		.cfi_offset 3, -24
  85 0004 0D46     		mov	r5, r1
  86 0006 1646     		mov	r6, r2
  87 0008 1F46     		mov	r7, r3
  88              		.loc 1 80 0
  89 000a FFF7FEFF 		bl	chDbgCheckClassI
  90              	.LVL1:
  91              		.loc 1 81 0
  92 000e CCB1     		cbz	r4, .L5
  93              		.loc 1 81 0 is_stmt 0 discriminator 2
  94 0010 C6B1     		cbz	r6, .L5
  95              		.loc 1 81 0 discriminator 3
  96 0012 BDB1     		cbz	r5, .L5
  97              	.L6:
  98              		.loc 1 86 0 is_stmt 1
  99 0014 0D49     		ldr	r1, .L13
 100              		.loc 1 84 0
 101 0016 2761     		str	r7, [r4, #16]
 102              		.loc 1 86 0
 103 0018 0B68     		ldr	r3, [r1, #0]
 104              	.LVL2:
 105              		.loc 1 85 0
 106 001a E660     		str	r6, [r4, #12]
 107              		.loc 1 87 0
 108 001c 9A68     		ldr	r2, [r3, #8]
 109 001e 9542     		cmp	r5, r2
ARM GAS  C:\DOCUME~1\z_80\LOCALS~1\Temp\ccXGW5k0.s 			page 3


 110 0020 04D9     		bls	.L7
 111              	.LVL3:
 112              	.L10:
 113              		.loc 1 89 0
 114 0022 1B68     		ldr	r3, [r3, #0]
 115              	.LVL4:
 116              		.loc 1 88 0
 117 0024 AD1A     		subs	r5, r5, r2
 118              	.LVL5:
 119              		.loc 1 87 0
 120 0026 9A68     		ldr	r2, [r3, #8]
 121 0028 AA42     		cmp	r2, r5
 122 002a FAD3     		bcc	.L10
 123              	.L7:
 124              		.loc 1 92 0
 125 002c 5A68     		ldr	r2, [r3, #4]
 126              		.loc 1 95 0
 127 002e 8B42     		cmp	r3, r1
 128              		.loc 1 92 0
 129 0030 2360     		str	r3, [r4, #0]
 130 0032 6260     		str	r2, [r4, #4]
 131              		.loc 1 93 0
 132 0034 1460     		str	r4, [r2, #0]
 133 0036 5C60     		str	r4, [r3, #4]
 134              		.loc 1 94 0
 135 0038 A560     		str	r5, [r4, #8]
 136              		.loc 1 95 0
 137 003a 02D0     		beq	.L4
 138              		.loc 1 96 0
 139 003c 9868     		ldr	r0, [r3, #8]
 140 003e 451B     		subs	r5, r0, r5
 141              	.LVL6:
 142 0040 9D60     		str	r5, [r3, #8]
 143              	.L4:
 144 0042 F8BD     		pop	{r3, r4, r5, r6, r7, pc}
 145              	.LVL7:
 146              	.L5:
 147              		.loc 1 81 0 discriminator 1
 148 0044 0248     		ldr	r0, .L13+4
 149 0046 FFF7FEFF 		bl	chDbgPanic
 150 004a E3E7     		b	.L6
 151              	.L14:
 152              		.align	2
 153              	.L13:
 154 004c 00000000 		.word	.LANCHOR0
 155 0050 00000000 		.word	.LC0
 156              		.cfi_endproc
 157              	.LFE1:
 158              		.size	chVTSetI, .-chVTSetI
 159 0054 AFF30080 		.section	.text.chVTResetI,"ax",%progbits
 159      AFF30080 
 159      AFF30080 
 160              		.align	2
 161              		.p2align 4,,15
 162              		.global	chVTResetI
 163              		.thumb
 164              		.thumb_func
ARM GAS  C:\DOCUME~1\z_80\LOCALS~1\Temp\ccXGW5k0.s 			page 4


 165              		.type	chVTResetI, %function
 166              	chVTResetI:
 167              	.LFB2:
 168              		.loc 1 107 0
 169              		.cfi_startproc
 170              		@ args = 0, pretend = 0, frame = 0
 171              		@ frame_needed = 0, uses_anonymous_args = 0
 172              	.LVL8:
 173 0000 10B5     		push	{r4, lr}
 174              	.LCFI1:
 175              		.cfi_def_cfa_offset 8
 176              		.loc 1 107 0
 177 0002 0446     		mov	r4, r0
 178              		.cfi_offset 14, -4
 179              		.cfi_offset 4, -8
 180              		.loc 1 109 0
 181 0004 FFF7FEFF 		bl	chDbgCheckClassI
 182              	.LVL9:
 183              		.loc 1 110 0
 184 0008 84B1     		cbz	r4, .L19
 185              	.L16:
 186              		.loc 1 111 0
 187 000a E368     		ldr	r3, [r4, #12]
 188 000c 93B1     		cbz	r3, .L20
 189              	.L17:
 190              		.loc 1 115 0
 191 000e 2368     		ldr	r3, [r4, #0]
 192 0010 0A4A     		ldr	r2, .L21
 193 0012 9342     		cmp	r3, r2
 194 0014 03D0     		beq	.L18
 195              		.loc 1 116 0
 196 0016 9968     		ldr	r1, [r3, #8]
 197 0018 A268     		ldr	r2, [r4, #8]
 198 001a 8818     		adds	r0, r1, r2
 199 001c 9860     		str	r0, [r3, #8]
 200              	.L18:
 201              		.loc 1 117 0
 202 001e 6068     		ldr	r0, [r4, #4]
 203              		.loc 1 119 0
 204 0020 0022     		movs	r2, #0
 205              		.loc 1 117 0
 206 0022 0360     		str	r3, [r0, #0]
 207              		.loc 1 118 0
 208 0024 2368     		ldr	r3, [r4, #0]
 209              		.loc 1 119 0
 210 0026 E260     		str	r2, [r4, #12]
 211              		.loc 1 118 0
 212 0028 5860     		str	r0, [r3, #4]
 213              		.loc 1 120 0
 214 002a 10BD     		pop	{r4, pc}
 215              	.L19:
 216              		.loc 1 110 0 discriminator 1
 217 002c 0448     		ldr	r0, .L21+4
 218 002e FFF7FEFF 		bl	chDbgPanic
 219 0032 EAE7     		b	.L16
 220              	.L20:
 221              		.loc 1 111 0 discriminator 1
ARM GAS  C:\DOCUME~1\z_80\LOCALS~1\Temp\ccXGW5k0.s 			page 5


 222 0034 0348     		ldr	r0, .L21+8
 223 0036 FFF7FEFF 		bl	chDbgPanic
 224 003a E8E7     		b	.L17
 225              	.L22:
 226              		.align	2
 227              	.L21:
 228 003c 00000000 		.word	.LANCHOR0
 229 0040 10000000 		.word	.LC1
 230 0044 20000000 		.word	.LC2
 231              		.cfi_endproc
 232              	.LFE2:
 233              		.size	chVTResetI, .-chVTResetI
 234 0048 AFF30080 		.section	.text.chTimeIsWithin,"ax",%progbits
 234      AFF30080 
 235              		.align	2
 236              		.p2align 4,,15
 237              		.global	chTimeIsWithin
 238              		.thumb
 239              		.thumb_func
 240              		.type	chTimeIsWithin, %function
 241              	chTimeIsWithin:
 242              	.LFB3:
 243              		.loc 1 135 0
 244              		.cfi_startproc
 245              		@ args = 0, pretend = 0, frame = 0
 246              		@ frame_needed = 0, uses_anonymous_args = 0
 247              		@ link register save eliminated.
 248              	.LVL10:
 249              		.loc 1 137 0
 250 0000 084B     		ldr	r3, .L29
 251              		.loc 1 138 0
 252 0002 8142     		cmp	r1, r0
 253              		.loc 1 137 0
 254 0004 DB68     		ldr	r3, [r3, #12]
 255              	.LVL11:
 256              		.loc 1 138 0
 257 0006 06D9     		bls	.L24
 258              		.loc 1 138 0 is_stmt 0 discriminator 1
 259 0008 8342     		cmp	r3, r0
 260 000a 08D3     		bcc	.L26
 261              	.L28:
 262              		.loc 1 138 0
 263 000c 8B42     		cmp	r3, r1
 264 000e 2CBF     		ite	cs
 265 0010 0020     		movcs	r0, #0
 266              	.LVL12:
 267 0012 0120     		movcc	r0, #1
 268 0014 7047     		bx	lr
 269              	.LVL13:
 270              	.L24:
 271              		.loc 1 138 0 discriminator 2
 272 0016 8342     		cmp	r3, r0
 273 0018 F8D3     		bcc	.L28
 274              		.loc 1 138 0
 275 001a 0120     		movs	r0, #1
 276              	.LVL14:
 277              		.loc 1 140 0 is_stmt 1
ARM GAS  C:\DOCUME~1\z_80\LOCALS~1\Temp\ccXGW5k0.s 			page 6


 278 001c 7047     		bx	lr
 279              	.LVL15:
 280              	.L26:
 281              		.loc 1 138 0
 282 001e 0020     		movs	r0, #0
 283              	.LVL16:
 284 0020 7047     		bx	lr
 285              	.L30:
 286 0022 00BF     		.align	2
 287              	.L29:
 288 0024 00000000 		.word	.LANCHOR0
 289              		.cfi_endproc
 290              	.LFE3:
 291              		.size	chTimeIsWithin, .-chTimeIsWithin
 292              		.global	vtlist
 293 0028 AFF30080 		.section	.bss.vtlist,"aw",%nobits
 293      AFF30080 
 294              		.align	2
 295              		.set	.LANCHOR0,. + 0
 296              		.type	vtlist, %object
 297              		.size	vtlist, 16
 298              	vtlist:
 299 0000 00000000 		.space	16
 299      00000000 
 299      00000000 
 299      00000000 
 300              		.section	.rodata.str1.4,"aMS",%progbits,1
 301              		.align	2
 302              	.LC0:
 303 0000 22636856 		.ascii	"\"chVTSetI\"()\000"
 303      54536574 
 303      49222829 
 303      00
 304 000d 000000   		.space	3
 305              	.LC1:
 306 0010 22636856 		.ascii	"\"chVTResetI\"()\000"
 306      54526573 
 306      65744922 
 306      282900
 307 001f 00       		.space	1
 308              	.LC2:
 309 0020 63685654 		.ascii	"chVTResetI(), #1\000"
 309      52657365 
 309      74492829 
 309      2C202331 
 309      00
 310 0031 000000   		.text
 311              	.Letext0: