ARM GAS  C:\DOCUME~1\z_80\LOCALS~1\Temp\cc2ZWkDA.s 			page 1


   1              		.syntax unified
   2              		.cpu cortex-m3
   3              		.fpu softvfp
   4              		.eabi_attribute 20, 1
   5              		.eabi_attribute 21, 1
   6              		.eabi_attribute 23, 3
   7              		.eabi_attribute 24, 1
   8              		.eabi_attribute 25, 1
   9              		.eabi_attribute 26, 1
  10              		.eabi_attribute 30, 2
  11              		.eabi_attribute 18, 4
  12              		.thumb
  13              		.file	"evtimer.c"
  20 0000 AE010000 		.text
  20      02006601 
  20      00000201 
  20      FB0E0D00 
  20      01010101 
  21              	.Ltext0:
  22              		.cfi_sections	.debug_frame
  23              		.section	.text.tmrcb,"ax",%progbits
  24              		.align	2
  25              		.p2align 4,,15
  26              		.thumb
  27              		.thumb_func
  28              		.type	tmrcb, %function
  29              	tmrcb:
  30              	.LFB0:
  31              		.file 1 "../chibios_2.4.x/os/various/evtimer.c"
  32              		.loc 1 39 0
  33              		.cfi_startproc
  34              		@ args = 0, pretend = 0, frame = 0
  35              		@ frame_needed = 0, uses_anonymous_args = 0
  36              	.LVL0:
  37 0000 10B5     		push	{r4, lr}
  38              	.LCFI0:
  39              		.cfi_def_cfa_offset 8
  40              		.loc 1 42 0
  41 0002 0021     		movs	r1, #0
  42              		.loc 1 39 0
  43 0004 0446     		mov	r4, r0
  44              		.cfi_offset 14, -4
  45              		.cfi_offset 4, -8
  46              	.LVL1:
  47              		.loc 1 42 0
  48 0006 1430     		adds	r0, r0, #20
  49              	.LVL2:
  50 0008 FFF7FEFF 		bl	chEvtBroadcastFlagsI
  51              		.loc 1 43 0
  52 000c A169     		ldr	r1, [r4, #24]
  53 000e 034A     		ldr	r2, .L2
ARM GAS  C:\DOCUME~1\z_80\LOCALS~1\Temp\cc2ZWkDA.s 			page 2


  54 0010 2046     		mov	r0, r4
  55 0012 2346     		mov	r3, r4
  56              		.loc 1 44 0
  57 0014 BDE81040 		pop	{r4, lr}
  58              		.loc 1 43 0
  59 0018 FFF7FEBF 		b	chVTSetI
  60              	.L3:
  61              		.align	2
  62              	.L2:
  63 001c 00000000 		.word	tmrcb
  64              		.cfi_endproc
  65              	.LFE0:
  66              		.size	tmrcb, .-tmrcb
  67              		.section	.text.evtStart,"ax",%progbits
  68              		.align	2
  69              		.p2align 4,,15
  70              		.global	evtStart
  71              		.thumb
  72              		.thumb_func
  73              		.type	evtStart, %function
  74              	evtStart:
  75              	.LFB1:
  76              		.loc 1 52 0
  77              		.cfi_startproc
  78              		@ args = 0, pretend = 0, frame = 0
  79              		@ frame_needed = 0, uses_anonymous_args = 0
  80              	.LVL3:
  81 0000 10B5     		push	{r4, lr}
  82              	.LCFI1:
  83              		.cfi_def_cfa_offset 8
  84              		.loc 1 52 0
  85 0002 0446     		mov	r4, r0
  86              		.cfi_offset 14, -4
  87              		.cfi_offset 4, -8
  88              		.loc 1 54 0
  89              	@ 54 "../chibios_2.4.x/os/various/evtimer.c" 1
  90 0004 FFF7FEFF 		bl      _port_lock
  91              	@ 0 "" 2
  92              		.thumb
  93 0008 FFF7FEFF 		bl	dbg_check_lock
  94              	.LVL4:
  95              		.loc 1 56 0
  96 000c E368     		ldr	r3, [r4, #12]
  97 000e 23B1     		cbz	r3, .L7
  98              		.loc 1 59 0
  99 0010 FFF7FEFF 		bl	dbg_check_unlock
 100              	@ 59 "../chibios_2.4.x/os/various/evtimer.c" 1
 101 0014 FFF7FEFF 		bl      _port_unlock
 102              	@ 0 "" 2
 103              		.loc 1 60 0
 104              		.thumb
 105 0018 10BD     		pop	{r4, pc}
 106              	.L7:
 107              		.loc 1 57 0
 108 001a 2046     		mov	r0, r4
 109 001c A169     		ldr	r1, [r4, #24]
 110 001e 044A     		ldr	r2, .L8
ARM GAS  C:\DOCUME~1\z_80\LOCALS~1\Temp\cc2ZWkDA.s 			page 3


 111 0020 2346     		mov	r3, r4
 112 0022 FFF7FEFF 		bl	chVTSetI
 113              		.loc 1 59 0
 114 0026 FFF7FEFF 		bl	dbg_check_unlock
 115              	@ 59 "../chibios_2.4.x/os/various/evtimer.c" 1
 116 002a FFF7FEFF 		bl      _port_unlock
 117              	@ 0 "" 2
 118              		.loc 1 60 0
 119              		.thumb
 120 002e 10BD     		pop	{r4, pc}
 121              	.L9:
 122              		.align	2
 123              	.L8:
 124 0030 00000000 		.word	tmrcb
 125              		.cfi_endproc
 126              	.LFE1:
 127              		.size	evtStart, .-evtStart
 128 0034 AFF30080 		.section	.text.evtStop,"ax",%progbits
 128      AFF30080 
 128      AFF30080 
 129              		.align	2
 130              		.p2align 4,,15
 131              		.global	evtStop
 132              		.thumb
 133              		.thumb_func
 134              		.type	evtStop, %function
 135              	evtStop:
 136              	.LFB2:
 137              		.loc 1 68 0
 138              		.cfi_startproc
 139              		@ args = 0, pretend = 0, frame = 0
 140              		@ frame_needed = 0, uses_anonymous_args = 0
 141              	.LVL5:
 142 0000 10B5     		push	{r4, lr}
 143              	.LCFI2:
 144              		.cfi_def_cfa_offset 8
 145              		.loc 1 68 0
 146 0002 0446     		mov	r4, r0
 147              		.cfi_offset 14, -4
 148              		.cfi_offset 4, -8
 149              		.loc 1 70 0
 150              	@ 70 "../chibios_2.4.x/os/various/evtimer.c" 1
 151 0004 FFF7FEFF 		bl      _port_lock
 152              	@ 0 "" 2
 153              		.thumb
 154 0008 FFF7FEFF 		bl	dbg_check_lock
 155              	.LVL6:
 156              		.loc 1 72 0
 157 000c E368     		ldr	r3, [r4, #12]
 158 000e 13B1     		cbz	r3, .L11
 159              		.loc 1 73 0
 160 0010 2046     		mov	r0, r4
 161 0012 FFF7FEFF 		bl	chVTResetI
 162              	.L11:
 163              		.loc 1 75 0
 164 0016 FFF7FEFF 		bl	dbg_check_unlock
 165              	@ 75 "../chibios_2.4.x/os/various/evtimer.c" 1
ARM GAS  C:\DOCUME~1\z_80\LOCALS~1\Temp\cc2ZWkDA.s 			page 4


 166 001a FFF7FEFF 		bl      _port_unlock
 167              	@ 0 "" 2
 168              		.loc 1 76 0
 169              		.thumb
 170 001e 10BD     		pop	{r4, pc}
 171              		.cfi_endproc
 172              	.LFE2:
 173              		.size	evtStop, .-evtStop
 174              		.text
 175              	.Letext0: