ARM GAS  /tmp/cc05pEvX.s 			page 1


   1              		.syntax unified
   2              		.cpu cortex-m3
   3              		.fpu softvfp
   4              		.eabi_attribute 20, 1
   5              		.eabi_attribute 21, 1
   6              		.eabi_attribute 23, 3
   7              		.eabi_attribute 24, 1
   8              		.eabi_attribute 25, 1
   9              		.eabi_attribute 26, 1
  10              		.eabi_attribute 30, 2
  11              		.eabi_attribute 18, 4
  12              		.thumb
  13              		.file	"hal.c"
  14              		.section	.debug_abbrev,"",%progbits
  15              	.Ldebug_abbrev0:
  16              		.section	.debug_info,"",%progbits
  17              	.Ldebug_info0:
  18              		.section	.debug_line,"",%progbits
  19              	.Ldebug_line0:
  20 0000 44020000 		.text
  20      0200D201 
  20      00000201 
  20      FB0E0D00 
  20      01010101 
  21              	.Ltext0:
  22              		.cfi_sections	.debug_frame
  23              		.section	.text.halInit,"ax",%progbits
  24              		.align	2
  25              		.p2align 4,,15
  26              		.global	halInit
  27              		.thumb
  28              		.thumb_func
  29              		.type	halInit, %function
  30              	halInit:
  31              	.LFB55:
  32              		.file 1 "../chibios_2.4.x/os/hal/src/hal.c"
  33              		.loc 1 68 0
  34              		.cfi_startproc
  35              		@ args = 0, pretend = 0, frame = 0
  36              		@ frame_needed = 0, uses_anonymous_args = 0
  37 0000 10B5     		push	{r4, lr}
  38              	.LCFI0:
  39              		.cfi_def_cfa_offset 8
  40              		.loc 1 70 0
  41              		.cfi_offset 14, -4
  42              		.cfi_offset 4, -8
  43 0002 FFF7FEFF 		bl	hal_lld_init
  44              		.loc 1 73 0
  45 0006 FFF7FEFF 		bl	tmInit
  46              		.loc 1 76 0
  47 000a 0848     		ldr	r0, .L2
  48 000c FFF7FEFF 		bl	_pal_lld_init
  49              		.loc 1 79 0
  50 0010 FFF7FEFF 		bl	adcInit
  51              		.loc 1 91 0
  52 0014 FFF7FEFF 		bl	i2cInit
  53              		.loc 1 100 0
ARM GAS  /tmp/cc05pEvX.s 			page 2


  54 0018 FFF7FEFF 		bl	pwmInit
  55              		.loc 1 115 0
  56 001c FFF7FEFF 		bl	usbInit
  57              		.loc 1 121 0
  58 0020 FFF7FEFF 		bl	sduInit
  59              		.loc 1 128 0
  60 0024 BDE81040 		pop	{r4, lr}
  61              		.loc 1 127 0
  62 0028 FFF7FEBF 		b	boardInit
  63              	.L3:
  64              		.align	2
  65              	.L2:
  66 002c 00000000 		.word	pal_default_config
  67              		.cfi_endproc
  68              	.LFE55:
  69              		.size	halInit, .-halInit
  70              		.section	.text.halIsCounterWithin,"ax",%progbits
  71              		.align	2
  72              		.p2align 4,,15
  73              		.global	halIsCounterWithin
  74              		.thumb
  75              		.thumb_func
  76              		.type	halIsCounterWithin, %function
  77              	halIsCounterWithin:
  78              	.LFB56:
  79              		.loc 1 174 0
  80              		.cfi_startproc
  81              		@ args = 0, pretend = 0, frame = 0
  82              		@ frame_needed = 0, uses_anonymous_args = 0
  83              		@ link register save eliminated.
  84              	.LVL0:
  85              		.loc 1 175 0
  86 0000 084B     		ldr	r3, .L11
  87              		.loc 1 177 0
  88 0002 8142     		cmp	r1, r0
  89              		.loc 1 175 0
  90 0004 5B68     		ldr	r3, [r3, #4]
  91              	.LVL1:
  92              		.loc 1 177 0
  93 0006 06D9     		bls	.L5
  94              		.loc 1 177 0 is_stmt 0 discriminator 1
  95 0008 8342     		cmp	r3, r0
  96 000a 08D3     		bcc	.L7
  97              	.L9:
  98              		.loc 1 177 0
  99 000c 8B42     		cmp	r3, r1
 100 000e 2CBF     		ite	cs
 101 0010 0020     		movcs	r0, #0
 102              	.LVL2:
 103 0012 0120     		movcc	r0, #1
 104 0014 7047     		bx	lr
 105              	.LVL3:
 106              	.L5:
 107              		.loc 1 177 0 discriminator 2
 108 0016 8342     		cmp	r3, r0
 109 0018 F8D3     		bcc	.L9
 110              		.loc 1 177 0
ARM GAS  /tmp/cc05pEvX.s 			page 3


 111 001a 0120     		movs	r0, #1
 112              	.LVL4:
 113              		.loc 1 179 0 is_stmt 1
 114 001c 7047     		bx	lr
 115              	.LVL5:
 116              	.L7:
 117              		.loc 1 177 0
 118 001e 0020     		movs	r0, #0
 119              	.LVL6:
 120 0020 7047     		bx	lr
 121              	.L12:
 122 0022 00BF     		.align	2
 123              	.L11:
 124 0024 001000E0 		.word	-536866816
 125              		.cfi_endproc
 126              	.LFE56:
 127              		.size	halIsCounterWithin, .-halIsCounterWithin
 128 0028 AFF30080 		.section	.text.halPolledDelay,"ax",%progbits
 128      AFF30080 
 129              		.align	2
 130              		.p2align 4,,15
 131              		.global	halPolledDelay
 132              		.thumb
 133              		.thumb_func
 134              		.type	halPolledDelay, %function
 135              	halPolledDelay:
 136              	.LFB57:
 137              		.loc 1 193 0
 138              		.cfi_startproc
 139              		@ args = 0, pretend = 0, frame = 0
 140              		@ frame_needed = 0, uses_anonymous_args = 0
 141              		@ link register save eliminated.
 142              	.LVL7:
 143              		.loc 1 194 0
 144 0000 084A     		ldr	r2, .L21
 145 0002 5368     		ldr	r3, [r2, #4]
 146              	.LVL8:
 147              		.loc 1 195 0
 148 0004 C018     		adds	r0, r0, r3
 149              	.LVL9:
 150              	.L19:
 151              	.LBB4:
 152              	.LBB5:
 153              		.loc 1 177 0 discriminator 1
 154 0006 8342     		cmp	r3, r0
 155              		.loc 1 175 0 discriminator 1
 156 0008 5168     		ldr	r1, [r2, #4]
 157              	.LVL10:
 158              		.loc 1 177 0 discriminator 1
 159 000a 02D2     		bcs	.L14
 160              		.loc 1 177 0 is_stmt 0
 161 000c 8B42     		cmp	r3, r1
 162 000e 05D9     		bls	.L20
 163 0010 7047     		bx	lr
 164              	.L14:
 165 0012 8B42     		cmp	r3, r1
 166 0014 F7D9     		bls	.L19
ARM GAS  /tmp/cc05pEvX.s 			page 4


 167              		.loc 1 178 0 is_stmt 1
 168 0016 8842     		cmp	r0, r1
 169 0018 F5D8     		bhi	.L19
 170 001a 7047     		bx	lr
 171              	.L20:
 172              		.loc 1 177 0
 173 001c 8842     		cmp	r0, r1
 174 001e F2D8     		bhi	.L19
 175 0020 7047     		bx	lr
 176              	.L22:
 177 0022 00BF     		.align	2
 178              	.L21:
 179 0024 001000E0 		.word	-536866816
 180              	.LBE5:
 181              	.LBE4:
 182              		.cfi_endproc
 183              	.LFE57:
 184              		.size	halPolledDelay, .-halPolledDelay
 185 0028 AFF30080 		.text
 185      AFF30080 
 186              	.Letext0:
 187              		.section	.debug_loc,"",%progbits
 188              	.Ldebug_loc0:
 189              	.LLST0:
 190 0000 00000000 		.4byte	.LFB55
 191 0004 02000000 		.4byte	.LCFI0
 192 0008 0200     		.2byte	0x2
 193 000a 7D       		.byte	0x7d
 194 000b 00       		.sleb128 0
 195 000c 02000000 		.4byte	.LCFI0
 196 0010 30000000 		.4byte	.LFE55
 197 0014 0200     		.2byte	0x2
 198 0016 7D       		.byte	0x7d
 199 0017 08       		.sleb128 8
 200 0018 00000000 		.4byte	0x0
 201 001c 00000000 		.4byte	0x0
 202              	.LLST1:
 203 0020 00000000 		.4byte	.LVL0
 204 0024 12000000 		.4byte	.LVL2
 205 0028 0100     		.2byte	0x1
 206 002a 50       		.byte	0x50
 207 002b 16000000 		.4byte	.LVL3
 208 002f 1C000000 		.4byte	.LVL4
 209 0033 0100     		.2byte	0x1
 210 0035 50       		.byte	0x50
 211 0036 1E000000 		.4byte	.LVL5
 212 003a 20000000 		.4byte	.LVL6
 213 003e 0100     		.2byte	0x1
 214 0040 50       		.byte	0x50
 215 0041 00000000 		.4byte	0x0
 216 0045 00000000 		.4byte	0x0
 217              	.LLST2:
 218 0049 00000000 		.4byte	.LVL7
 219 004d 06000000 		.4byte	.LVL9
 220 0051 0100     		.2byte	0x1
 221 0053 50       		.byte	0x50
 222 0054 00000000 		.4byte	0x0
ARM GAS  /tmp/cc05pEvX.s 			page 5


 223 0058 00000000 		.4byte	0x0
 224              		.file 2 "/home/z80/programs/code-sourcery/2011.03-42/bin/../lib/gcc/arm-none-eabi/4.5.2/../../../.
 225              		.file 3 "../chibios_2.4.x/os/ports/GCC/ARMCMx/chtypes.h"
 226              		.file 4 "../chibios_2.4.x/os/ports/common/ARMCMx/nvic.h"
 227              		.file 5 "../chibios_2.4.x/os/hal/platforms/STM32F1xx/hal_lld.h"
 228              		.file 6 "../chibios_2.4.x/os/hal/platforms/STM32/GPIOv1/pal_lld.h"
 229              		.file 7 "../chibios_2.4.x/os/ports/common/ARMCMx/CMSIS/include/core_cm3.h"
 230              		.section	.debug_info
 231 0000 F2020000 		.4byte	0x2f2
 232 0004 0200     		.2byte	0x2
 233 0006 00000000 		.4byte	.Ldebug_abbrev0
 234 000a 04       		.byte	0x4
 235 000b 01       		.uleb128 0x1
 236 000c 0D000000 		.4byte	.LASF34
 237 0010 01       		.byte	0x1
 238 0011 3F000000 		.4byte	.LASF35
 239 0015 73010000 		.4byte	.LASF36
 240 0019 00000000 		.4byte	0x0
 241 001d 00000000 		.4byte	0x0
 242 0021 00000000 		.4byte	.Ldebug_ranges0+0x0
 243 0025 00000000 		.4byte	.Ldebug_line0
 244 0029 02       		.uleb128 0x2
 245 002a 04       		.byte	0x4
 246 002b 05       		.byte	0x5
 247 002c 696E7400 		.ascii	"int\000"
 248 0030 03       		.uleb128 0x3
 249 0031 04       		.byte	0x4
 250 0032 07       		.byte	0x7
 251 0033 24000000 		.4byte	.LASF0
 252 0037 03       		.uleb128 0x3
 253 0038 01       		.byte	0x1
 254 0039 06       		.byte	0x6
 255 003a BF010000 		.4byte	.LASF1
 256 003e 03       		.uleb128 0x3
 257 003f 01       		.byte	0x1
 258 0040 08       		.byte	0x8
 259 0041 79000000 		.4byte	.LASF2
 260 0045 03       		.uleb128 0x3
 261 0046 02       		.byte	0x2
 262 0047 05       		.byte	0x5
 263 0048 FF000000 		.4byte	.LASF3
 264 004c 03       		.uleb128 0x3
 265 004d 02       		.byte	0x2
 266 004e 07       		.byte	0x7
 267 004f B3000000 		.4byte	.LASF4
 268 0053 04       		.uleb128 0x4
 269 0054 46010000 		.4byte	.LASF6
 270 0058 02       		.byte	0x2
 271 0059 4F       		.byte	0x4f
 272 005a 5E000000 		.4byte	0x5e
 273 005e 03       		.uleb128 0x3
 274 005f 04       		.byte	0x4
 275 0060 05       		.byte	0x5
 276 0061 B6010000 		.4byte	.LASF5
 277 0065 04       		.uleb128 0x4
 278 0066 AD010000 		.4byte	.LASF7
 279 006a 02       		.byte	0x2
ARM GAS  /tmp/cc05pEvX.s 			page 6


 280 006b 50       		.byte	0x50
 281 006c 70000000 		.4byte	0x70
 282 0070 03       		.uleb128 0x3
 283 0071 04       		.byte	0x4
 284 0072 07       		.byte	0x7
 285 0073 A1000000 		.4byte	.LASF8
 286 0077 03       		.uleb128 0x3
 287 0078 08       		.byte	0x8
 288 0079 05       		.byte	0x5
 289 007a 4E010000 		.4byte	.LASF9
 290 007e 03       		.uleb128 0x3
 291 007f 08       		.byte	0x8
 292 0080 07       		.byte	0x7
 293 0081 CB010000 		.4byte	.LASF10
 294 0085 04       		.uleb128 0x4
 295 0086 31000000 		.4byte	.LASF11
 296 008a 03       		.byte	0x3
 297 008b 2E       		.byte	0x2e
 298 008c 53000000 		.4byte	0x53
 299 0090 05       		.uleb128 0x5
 300 0091 70000000 		.4byte	0x70
 301 0095 06       		.uleb128 0x6
 302 0096 20       		.byte	0x20
 303 0097 04       		.byte	0x4
 304 0098 0601     		.2byte	0x106
 305 009a 17010000 		.4byte	0x117
 306 009e 07       		.uleb128 0x7
 307 009f 2E010000 		.4byte	.LASF12
 308 00a3 04       		.byte	0x4
 309 00a4 0701     		.2byte	0x107
 310 00a6 90000000 		.4byte	0x90
 311 00aa 02       		.byte	0x2
 312 00ab 23       		.byte	0x23
 313 00ac 00       		.uleb128 0x0
 314 00ad 07       		.uleb128 0x7
 315 00ae 10010000 		.4byte	.LASF13
 316 00b2 04       		.byte	0x4
 317 00b3 0801     		.2byte	0x108
 318 00b5 90000000 		.4byte	0x90
 319 00b9 02       		.byte	0x2
 320 00ba 23       		.byte	0x23
 321 00bb 04       		.uleb128 0x4
 322 00bc 07       		.uleb128 0x7
 323 00bd C6000000 		.4byte	.LASF14
 324 00c1 04       		.byte	0x4
 325 00c2 0901     		.2byte	0x109
 326 00c4 90000000 		.4byte	0x90
 327 00c8 02       		.byte	0x2
 328 00c9 23       		.byte	0x23
 329 00ca 08       		.uleb128 0x8
 330 00cb 07       		.uleb128 0x7
 331 00cc 38000000 		.4byte	.LASF15
 332 00d0 04       		.byte	0x4
 333 00d1 0A01     		.2byte	0x10a
 334 00d3 90000000 		.4byte	0x90
 335 00d7 02       		.byte	0x2
 336 00d8 23       		.byte	0x23
ARM GAS  /tmp/cc05pEvX.s 			page 7


 337 00d9 0C       		.uleb128 0xc
 338 00da 07       		.uleb128 0x7
 339 00db 61000000 		.4byte	.LASF16
 340 00df 04       		.byte	0x4
 341 00e0 0B01     		.2byte	0x10b
 342 00e2 90000000 		.4byte	0x90
 343 00e6 02       		.byte	0x2
 344 00e7 23       		.byte	0x23
 345 00e8 10       		.uleb128 0x10
 346 00e9 07       		.uleb128 0x7
 347 00ea 09010000 		.4byte	.LASF17
 348 00ee 04       		.byte	0x4
 349 00ef 0C01     		.2byte	0x10c
 350 00f1 90000000 		.4byte	0x90
 351 00f5 02       		.byte	0x2
 352 00f6 23       		.byte	0x23
 353 00f7 14       		.uleb128 0x14
 354 00f8 07       		.uleb128 0x7
 355 00f9 DA000000 		.4byte	.LASF18
 356 00fd 04       		.byte	0x4
 357 00fe 0D01     		.2byte	0x10d
 358 0100 90000000 		.4byte	0x90
 359 0104 02       		.byte	0x2
 360 0105 23       		.byte	0x23
 361 0106 18       		.uleb128 0x18
 362 0107 07       		.uleb128 0x7
 363 0108 19000000 		.4byte	.LASF19
 364 010c 04       		.byte	0x4
 365 010d 0E01     		.2byte	0x10e
 366 010f 90000000 		.4byte	0x90
 367 0113 02       		.byte	0x2
 368 0114 23       		.byte	0x23
 369 0115 1C       		.uleb128 0x1c
 370 0116 00       		.byte	0x0
 371 0117 08       		.uleb128 0x8
 372 0118 A5010000 		.4byte	.LASF20
 373 011c 04       		.byte	0x4
 374 011d 0F01     		.2byte	0x10f
 375 011f 95000000 		.4byte	0x95
 376 0123 03       		.uleb128 0x3
 377 0124 01       		.byte	0x1
 378 0125 08       		.byte	0x8
 379 0126 29010000 		.4byte	.LASF21
 380 012a 05       		.uleb128 0x5
 381 012b 53000000 		.4byte	0x53
 382 012f 04       		.uleb128 0x4
 383 0130 1E010000 		.4byte	.LASF22
 384 0134 05       		.byte	0x5
 385 0135 D8       		.byte	0xd8
 386 0136 65000000 		.4byte	0x65
 387 013a 09       		.uleb128 0x9
 388 013b 0C       		.byte	0xc
 389 013c 06       		.byte	0x6
 390 013d 43       		.byte	0x43
 391 013e 6D010000 		.4byte	0x16d
 392 0142 0A       		.uleb128 0xa
 393 0143 6F647200 		.ascii	"odr\000"
ARM GAS  /tmp/cc05pEvX.s 			page 8


 394 0147 06       		.byte	0x6
 395 0148 45       		.byte	0x45
 396 0149 65000000 		.4byte	0x65
 397 014d 02       		.byte	0x2
 398 014e 23       		.byte	0x23
 399 014f 00       		.uleb128 0x0
 400 0150 0A       		.uleb128 0xa
 401 0151 63726C00 		.ascii	"crl\000"
 402 0155 06       		.byte	0x6
 403 0156 47       		.byte	0x47
 404 0157 65000000 		.4byte	0x65
 405 015b 02       		.byte	0x2
 406 015c 23       		.byte	0x23
 407 015d 04       		.uleb128 0x4
 408 015e 0A       		.uleb128 0xa
 409 015f 63726800 		.ascii	"crh\000"
 410 0163 06       		.byte	0x6
 411 0164 49       		.byte	0x49
 412 0165 65000000 		.4byte	0x65
 413 0169 02       		.byte	0x2
 414 016a 23       		.byte	0x23
 415 016b 08       		.uleb128 0x8
 416 016c 00       		.byte	0x0
 417 016d 04       		.uleb128 0x4
 418 016e 87000000 		.4byte	.LASF23
 419 0172 06       		.byte	0x6
 420 0173 4A       		.byte	0x4a
 421 0174 3A010000 		.4byte	0x13a
 422 0178 09       		.uleb128 0x9
 423 0179 3C       		.byte	0x3c
 424 017a 06       		.byte	0x6
 425 017b 53       		.byte	0x53
 426 017c C7010000 		.4byte	0x1c7
 427 0180 0B       		.uleb128 0xb
 428 0181 9A000000 		.4byte	.LASF24
 429 0185 06       		.byte	0x6
 430 0186 55       		.byte	0x55
 431 0187 6D010000 		.4byte	0x16d
 432 018b 02       		.byte	0x2
 433 018c 23       		.byte	0x23
 434 018d 00       		.uleb128 0x0
 435 018e 0B       		.uleb128 0xb
 436 018f 17010000 		.4byte	.LASF25
 437 0193 06       		.byte	0x6
 438 0194 57       		.byte	0x57
 439 0195 6D010000 		.4byte	0x16d
 440 0199 02       		.byte	0x2
 441 019a 23       		.byte	0x23
 442 019b 0C       		.uleb128 0xc
 443 019c 0B       		.uleb128 0xb
 444 019d 9E010000 		.4byte	.LASF26
 445 01a1 06       		.byte	0x6
 446 01a2 59       		.byte	0x59
 447 01a3 6D010000 		.4byte	0x16d
 448 01a7 02       		.byte	0x2
 449 01a8 23       		.byte	0x23
 450 01a9 18       		.uleb128 0x18
ARM GAS  /tmp/cc05pEvX.s 			page 9


 451 01aa 0B       		.uleb128 0xb
 452 01ab 06000000 		.4byte	.LASF27
 453 01af 06       		.byte	0x6
 454 01b0 5B       		.byte	0x5b
 455 01b1 6D010000 		.4byte	0x16d
 456 01b5 02       		.byte	0x2
 457 01b6 23       		.byte	0x23
 458 01b7 24       		.uleb128 0x24
 459 01b8 0B       		.uleb128 0xb
 460 01b9 72000000 		.4byte	.LASF28
 461 01bd 06       		.byte	0x6
 462 01be 5E       		.byte	0x5e
 463 01bf 6D010000 		.4byte	0x16d
 464 01c3 02       		.byte	0x2
 465 01c4 23       		.byte	0x23
 466 01c5 30       		.uleb128 0x30
 467 01c6 00       		.byte	0x0
 468 01c7 04       		.uleb128 0x4
 469 01c8 E2000000 		.4byte	.LASF29
 470 01cc 06       		.byte	0x6
 471 01cd 68       		.byte	0x68
 472 01ce 78010000 		.4byte	0x178
 473 01d2 0C       		.uleb128 0xc
 474 01d3 01       		.byte	0x1
 475 01d4 33010000 		.4byte	.LASF37
 476 01d8 01       		.byte	0x1
 477 01d9 AE       		.byte	0xae
 478 01da 01       		.byte	0x1
 479 01db 85000000 		.4byte	0x85
 480 01df 01       		.byte	0x1
 481 01e0 06020000 		.4byte	0x206
 482 01e4 0D       		.uleb128 0xd
 483 01e5 1E000000 		.4byte	.LASF30
 484 01e9 01       		.byte	0x1
 485 01ea AE       		.byte	0xae
 486 01eb 2F010000 		.4byte	0x12f
 487 01ef 0E       		.uleb128 0xe
 488 01f0 656E6400 		.ascii	"end\000"
 489 01f4 01       		.byte	0x1
 490 01f5 AE       		.byte	0xae
 491 01f6 2F010000 		.4byte	0x12f
 492 01fa 0F       		.uleb128 0xf
 493 01fb 6E6F7700 		.ascii	"now\000"
 494 01ff 01       		.byte	0x1
 495 0200 AF       		.byte	0xaf
 496 0201 2F010000 		.4byte	0x12f
 497 0205 00       		.byte	0x0
 498 0206 10       		.uleb128 0x10
 499 0207 01       		.byte	0x1
 500 0208 6A000000 		.4byte	.LASF38
 501 020c 01       		.byte	0x1
 502 020d 44       		.byte	0x44
 503 020e 01       		.byte	0x1
 504 020f 00000000 		.4byte	.LFB55
 505 0213 30000000 		.4byte	.LFE55
 506 0217 00000000 		.4byte	.LLST0
 507 021b 11       		.uleb128 0x11
ARM GAS  /tmp/cc05pEvX.s 			page 10


 508 021c D2010000 		.4byte	0x1d2
 509 0220 00000000 		.4byte	.LFB56
 510 0224 28000000 		.4byte	.LFE56
 511 0228 02       		.byte	0x2
 512 0229 7D       		.byte	0x7d
 513 022a 00       		.sleb128 0
 514 022b 47020000 		.4byte	0x247
 515 022f 12       		.uleb128 0x12
 516 0230 E4010000 		.4byte	0x1e4
 517 0234 20000000 		.4byte	.LLST1
 518 0238 13       		.uleb128 0x13
 519 0239 EF010000 		.4byte	0x1ef
 520 023d 01       		.byte	0x1
 521 023e 51       		.byte	0x51
 522 023f 14       		.uleb128 0x14
 523 0240 FA010000 		.4byte	0x1fa
 524 0244 01       		.byte	0x1
 525 0245 53       		.byte	0x53
 526 0246 00       		.byte	0x0
 527 0247 15       		.uleb128 0x15
 528 0248 01       		.byte	0x1
 529 0249 64010000 		.4byte	.LASF39
 530 024d 01       		.byte	0x1
 531 024e C1       		.byte	0xc1
 532 024f 01       		.byte	0x1
 533 0250 00000000 		.4byte	.LFB57
 534 0254 28000000 		.4byte	.LFE57
 535 0258 02       		.byte	0x2
 536 0259 7D       		.byte	0x7d
 537 025a 00       		.sleb128 0
 538 025b B8020000 		.4byte	0x2b8
 539 025f 16       		.uleb128 0x16
 540 0260 00000000 		.4byte	.LASF40
 541 0264 01       		.byte	0x1
 542 0265 C1       		.byte	0xc1
 543 0266 2F010000 		.4byte	0x12f
 544 026a 49000000 		.4byte	.LLST2
 545 026e 17       		.uleb128 0x17
 546 026f 1E000000 		.4byte	.LASF30
 547 0273 01       		.byte	0x1
 548 0274 C2       		.byte	0xc2
 549 0275 2F010000 		.4byte	0x12f
 550 0279 01       		.byte	0x1
 551 027a 53       		.byte	0x53
 552 027b 17       		.uleb128 0x17
 553 027c 5C010000 		.4byte	.LASF31
 554 0280 01       		.byte	0x1
 555 0281 C3       		.byte	0xc3
 556 0282 2F010000 		.4byte	0x12f
 557 0286 01       		.byte	0x1
 558 0287 50       		.byte	0x50
 559 0288 18       		.uleb128 0x18
 560 0289 D2010000 		.4byte	0x1d2
 561 028d 06000000 		.4byte	.LBB4
 562 0291 28000000 		.4byte	.LBE4
 563 0295 01       		.byte	0x1
 564 0296 C4       		.byte	0xc4
ARM GAS  /tmp/cc05pEvX.s 			page 11


 565 0297 13       		.uleb128 0x13
 566 0298 EF010000 		.4byte	0x1ef
 567 029c 01       		.byte	0x1
 568 029d 50       		.byte	0x50
 569 029e 13       		.uleb128 0x13
 570 029f E4010000 		.4byte	0x1e4
 571 02a3 01       		.byte	0x1
 572 02a4 53       		.byte	0x53
 573 02a5 19       		.uleb128 0x19
 574 02a6 06000000 		.4byte	.LBB5
 575 02aa 28000000 		.4byte	.LBE5
 576 02ae 14       		.uleb128 0x14
 577 02af FA010000 		.4byte	0x1fa
 578 02b3 01       		.byte	0x1
 579 02b4 51       		.byte	0x51
 580 02b5 00       		.byte	0x0
 581 02b6 00       		.byte	0x0
 582 02b7 00       		.byte	0x0
 583 02b8 1A       		.uleb128 0x1a
 584 02b9 CD000000 		.4byte	.LASF32
 585 02bd 07       		.byte	0x7
 586 02be 9404     		.2byte	0x494
 587 02c0 2A010000 		.4byte	0x12a
 588 02c4 01       		.byte	0x1
 589 02c5 01       		.byte	0x1
 590 02c6 1A       		.uleb128 0x1a
 591 02c7 EC000000 		.4byte	.LASF33
 592 02cb 06       		.byte	0x6
 593 02cc 4801     		.2byte	0x148
 594 02ce D4020000 		.4byte	0x2d4
 595 02d2 01       		.byte	0x1
 596 02d3 01       		.byte	0x1
 597 02d4 1B       		.uleb128 0x1b
 598 02d5 C7010000 		.4byte	0x1c7
 599 02d9 1A       		.uleb128 0x1a
 600 02da CD000000 		.4byte	.LASF32
 601 02de 07       		.byte	0x7
 602 02df 9404     		.2byte	0x494
 603 02e1 2A010000 		.4byte	0x12a
 604 02e5 01       		.byte	0x1
 605 02e6 01       		.byte	0x1
 606 02e7 1A       		.uleb128 0x1a
 607 02e8 EC000000 		.4byte	.LASF33
 608 02ec 06       		.byte	0x6
 609 02ed 4801     		.2byte	0x148
 610 02ef D4020000 		.4byte	0x2d4
 611 02f3 01       		.byte	0x1
 612 02f4 01       		.byte	0x1
 613 02f5 00       		.byte	0x0
 614              		.section	.debug_abbrev
 615 0000 01       		.uleb128 0x1
 616 0001 11       		.uleb128 0x11
 617 0002 01       		.byte	0x1
 618 0003 25       		.uleb128 0x25
 619 0004 0E       		.uleb128 0xe
 620 0005 13       		.uleb128 0x13
 621 0006 0B       		.uleb128 0xb
ARM GAS  /tmp/cc05pEvX.s 			page 12


 622 0007 03       		.uleb128 0x3
 623 0008 0E       		.uleb128 0xe
 624 0009 1B       		.uleb128 0x1b
 625 000a 0E       		.uleb128 0xe
 626 000b 11       		.uleb128 0x11
 627 000c 01       		.uleb128 0x1
 628 000d 52       		.uleb128 0x52
 629 000e 01       		.uleb128 0x1
 630 000f 55       		.uleb128 0x55
 631 0010 06       		.uleb128 0x6
 632 0011 10       		.uleb128 0x10
 633 0012 06       		.uleb128 0x6
 634 0013 00       		.byte	0x0
 635 0014 00       		.byte	0x0
 636 0015 02       		.uleb128 0x2
 637 0016 24       		.uleb128 0x24
 638 0017 00       		.byte	0x0
 639 0018 0B       		.uleb128 0xb
 640 0019 0B       		.uleb128 0xb
 641 001a 3E       		.uleb128 0x3e
 642 001b 0B       		.uleb128 0xb
 643 001c 03       		.uleb128 0x3
 644 001d 08       		.uleb128 0x8
 645 001e 00       		.byte	0x0
 646 001f 00       		.byte	0x0
 647 0020 03       		.uleb128 0x3
 648 0021 24       		.uleb128 0x24
 649 0022 00       		.byte	0x0
 650 0023 0B       		.uleb128 0xb
 651 0024 0B       		.uleb128 0xb
 652 0025 3E       		.uleb128 0x3e
 653 0026 0B       		.uleb128 0xb
 654 0027 03       		.uleb128 0x3
 655 0028 0E       		.uleb128 0xe
 656 0029 00       		.byte	0x0
 657 002a 00       		.byte	0x0
 658 002b 04       		.uleb128 0x4
 659 002c 16       		.uleb128 0x16
 660 002d 00       		.byte	0x0
 661 002e 03       		.uleb128 0x3
 662 002f 0E       		.uleb128 0xe
 663 0030 3A       		.uleb128 0x3a
 664 0031 0B       		.uleb128 0xb
 665 0032 3B       		.uleb128 0x3b
 666 0033 0B       		.uleb128 0xb
 667 0034 49       		.uleb128 0x49
 668 0035 13       		.uleb128 0x13
 669 0036 00       		.byte	0x0
 670 0037 00       		.byte	0x0
 671 0038 05       		.uleb128 0x5
 672 0039 35       		.uleb128 0x35
 673 003a 00       		.byte	0x0
 674 003b 49       		.uleb128 0x49
 675 003c 13       		.uleb128 0x13
 676 003d 00       		.byte	0x0
 677 003e 00       		.byte	0x0
 678 003f 06       		.uleb128 0x6
ARM GAS  /tmp/cc05pEvX.s 			page 13


 679 0040 13       		.uleb128 0x13
 680 0041 01       		.byte	0x1
 681 0042 0B       		.uleb128 0xb
 682 0043 0B       		.uleb128 0xb
 683 0044 3A       		.uleb128 0x3a
 684 0045 0B       		.uleb128 0xb
 685 0046 3B       		.uleb128 0x3b
 686 0047 05       		.uleb128 0x5
 687 0048 01       		.uleb128 0x1
 688 0049 13       		.uleb128 0x13
 689 004a 00       		.byte	0x0
 690 004b 00       		.byte	0x0
 691 004c 07       		.uleb128 0x7
 692 004d 0D       		.uleb128 0xd
 693 004e 00       		.byte	0x0
 694 004f 03       		.uleb128 0x3
 695 0050 0E       		.uleb128 0xe
 696 0051 3A       		.uleb128 0x3a
 697 0052 0B       		.uleb128 0xb
 698 0053 3B       		.uleb128 0x3b
 699 0054 05       		.uleb128 0x5
 700 0055 49       		.uleb128 0x49
 701 0056 13       		.uleb128 0x13
 702 0057 38       		.uleb128 0x38
 703 0058 0A       		.uleb128 0xa
 704 0059 00       		.byte	0x0
 705 005a 00       		.byte	0x0
 706 005b 08       		.uleb128 0x8
 707 005c 16       		.uleb128 0x16
 708 005d 00       		.byte	0x0
 709 005e 03       		.uleb128 0x3
 710 005f 0E       		.uleb128 0xe
 711 0060 3A       		.uleb128 0x3a
 712 0061 0B       		.uleb128 0xb
 713 0062 3B       		.uleb128 0x3b
 714 0063 05       		.uleb128 0x5
 715 0064 49       		.uleb128 0x49
 716 0065 13       		.uleb128 0x13
 717 0066 00       		.byte	0x0
 718 0067 00       		.byte	0x0
 719 0068 09       		.uleb128 0x9
 720 0069 13       		.uleb128 0x13
 721 006a 01       		.byte	0x1
 722 006b 0B       		.uleb128 0xb
 723 006c 0B       		.uleb128 0xb
 724 006d 3A       		.uleb128 0x3a
 725 006e 0B       		.uleb128 0xb
 726 006f 3B       		.uleb128 0x3b
 727 0070 0B       		.uleb128 0xb
 728 0071 01       		.uleb128 0x1
 729 0072 13       		.uleb128 0x13
 730 0073 00       		.byte	0x0
 731 0074 00       		.byte	0x0
 732 0075 0A       		.uleb128 0xa
 733 0076 0D       		.uleb128 0xd
 734 0077 00       		.byte	0x0
 735 0078 03       		.uleb128 0x3
ARM GAS  /tmp/cc05pEvX.s 			page 14


 736 0079 08       		.uleb128 0x8
 737 007a 3A       		.uleb128 0x3a
 738 007b 0B       		.uleb128 0xb
 739 007c 3B       		.uleb128 0x3b
 740 007d 0B       		.uleb128 0xb
 741 007e 49       		.uleb128 0x49
 742 007f 13       		.uleb128 0x13
 743 0080 38       		.uleb128 0x38
 744 0081 0A       		.uleb128 0xa
 745 0082 00       		.byte	0x0
 746 0083 00       		.byte	0x0
 747 0084 0B       		.uleb128 0xb
 748 0085 0D       		.uleb128 0xd
 749 0086 00       		.byte	0x0
 750 0087 03       		.uleb128 0x3
 751 0088 0E       		.uleb128 0xe
 752 0089 3A       		.uleb128 0x3a
 753 008a 0B       		.uleb128 0xb
 754 008b 3B       		.uleb128 0x3b
 755 008c 0B       		.uleb128 0xb
 756 008d 49       		.uleb128 0x49
 757 008e 13       		.uleb128 0x13
 758 008f 38       		.uleb128 0x38
 759 0090 0A       		.uleb128 0xa
 760 0091 00       		.byte	0x0
 761 0092 00       		.byte	0x0
 762 0093 0C       		.uleb128 0xc
 763 0094 2E       		.uleb128 0x2e
 764 0095 01       		.byte	0x1
 765 0096 3F       		.uleb128 0x3f
 766 0097 0C       		.uleb128 0xc
 767 0098 03       		.uleb128 0x3
 768 0099 0E       		.uleb128 0xe
 769 009a 3A       		.uleb128 0x3a
 770 009b 0B       		.uleb128 0xb
 771 009c 3B       		.uleb128 0x3b
 772 009d 0B       		.uleb128 0xb
 773 009e 27       		.uleb128 0x27
 774 009f 0C       		.uleb128 0xc
 775 00a0 49       		.uleb128 0x49
 776 00a1 13       		.uleb128 0x13
 777 00a2 20       		.uleb128 0x20
 778 00a3 0B       		.uleb128 0xb
 779 00a4 01       		.uleb128 0x1
 780 00a5 13       		.uleb128 0x13
 781 00a6 00       		.byte	0x0
 782 00a7 00       		.byte	0x0
 783 00a8 0D       		.uleb128 0xd
 784 00a9 05       		.uleb128 0x5
 785 00aa 00       		.byte	0x0
 786 00ab 03       		.uleb128 0x3
 787 00ac 0E       		.uleb128 0xe
 788 00ad 3A       		.uleb128 0x3a
 789 00ae 0B       		.uleb128 0xb
 790 00af 3B       		.uleb128 0x3b
 791 00b0 0B       		.uleb128 0xb
 792 00b1 49       		.uleb128 0x49
ARM GAS  /tmp/cc05pEvX.s 			page 15


 793 00b2 13       		.uleb128 0x13
 794 00b3 00       		.byte	0x0
 795 00b4 00       		.byte	0x0
 796 00b5 0E       		.uleb128 0xe
 797 00b6 05       		.uleb128 0x5
 798 00b7 00       		.byte	0x0
 799 00b8 03       		.uleb128 0x3
 800 00b9 08       		.uleb128 0x8
 801 00ba 3A       		.uleb128 0x3a
 802 00bb 0B       		.uleb128 0xb
 803 00bc 3B       		.uleb128 0x3b
 804 00bd 0B       		.uleb128 0xb
 805 00be 49       		.uleb128 0x49
 806 00bf 13       		.uleb128 0x13
 807 00c0 00       		.byte	0x0
 808 00c1 00       		.byte	0x0
 809 00c2 0F       		.uleb128 0xf
 810 00c3 34       		.uleb128 0x34
 811 00c4 00       		.byte	0x0
 812 00c5 03       		.uleb128 0x3
 813 00c6 08       		.uleb128 0x8
 814 00c7 3A       		.uleb128 0x3a
 815 00c8 0B       		.uleb128 0xb
 816 00c9 3B       		.uleb128 0x3b
 817 00ca 0B       		.uleb128 0xb
 818 00cb 49       		.uleb128 0x49
 819 00cc 13       		.uleb128 0x13
 820 00cd 00       		.byte	0x0
 821 00ce 00       		.byte	0x0
 822 00cf 10       		.uleb128 0x10
 823 00d0 2E       		.uleb128 0x2e
 824 00d1 00       		.byte	0x0
 825 00d2 3F       		.uleb128 0x3f
 826 00d3 0C       		.uleb128 0xc
 827 00d4 03       		.uleb128 0x3
 828 00d5 0E       		.uleb128 0xe
 829 00d6 3A       		.uleb128 0x3a
 830 00d7 0B       		.uleb128 0xb
 831 00d8 3B       		.uleb128 0x3b
 832 00d9 0B       		.uleb128 0xb
 833 00da 27       		.uleb128 0x27
 834 00db 0C       		.uleb128 0xc
 835 00dc 11       		.uleb128 0x11
 836 00dd 01       		.uleb128 0x1
 837 00de 12       		.uleb128 0x12
 838 00df 01       		.uleb128 0x1
 839 00e0 40       		.uleb128 0x40
 840 00e1 06       		.uleb128 0x6
 841 00e2 00       		.byte	0x0
 842 00e3 00       		.byte	0x0
 843 00e4 11       		.uleb128 0x11
 844 00e5 2E       		.uleb128 0x2e
 845 00e6 01       		.byte	0x1
 846 00e7 31       		.uleb128 0x31
 847 00e8 13       		.uleb128 0x13
 848 00e9 11       		.uleb128 0x11
 849 00ea 01       		.uleb128 0x1
ARM GAS  /tmp/cc05pEvX.s 			page 16


 850 00eb 12       		.uleb128 0x12
 851 00ec 01       		.uleb128 0x1
 852 00ed 40       		.uleb128 0x40
 853 00ee 0A       		.uleb128 0xa
 854 00ef 01       		.uleb128 0x1
 855 00f0 13       		.uleb128 0x13
 856 00f1 00       		.byte	0x0
 857 00f2 00       		.byte	0x0
 858 00f3 12       		.uleb128 0x12
 859 00f4 05       		.uleb128 0x5
 860 00f5 00       		.byte	0x0
 861 00f6 31       		.uleb128 0x31
 862 00f7 13       		.uleb128 0x13
 863 00f8 02       		.uleb128 0x2
 864 00f9 06       		.uleb128 0x6
 865 00fa 00       		.byte	0x0
 866 00fb 00       		.byte	0x0
 867 00fc 13       		.uleb128 0x13
 868 00fd 05       		.uleb128 0x5
 869 00fe 00       		.byte	0x0
 870 00ff 31       		.uleb128 0x31
 871 0100 13       		.uleb128 0x13
 872 0101 02       		.uleb128 0x2
 873 0102 0A       		.uleb128 0xa
 874 0103 00       		.byte	0x0
 875 0104 00       		.byte	0x0
 876 0105 14       		.uleb128 0x14
 877 0106 34       		.uleb128 0x34
 878 0107 00       		.byte	0x0
 879 0108 31       		.uleb128 0x31
 880 0109 13       		.uleb128 0x13
 881 010a 02       		.uleb128 0x2
 882 010b 0A       		.uleb128 0xa
 883 010c 00       		.byte	0x0
 884 010d 00       		.byte	0x0
 885 010e 15       		.uleb128 0x15
 886 010f 2E       		.uleb128 0x2e
 887 0110 01       		.byte	0x1
 888 0111 3F       		.uleb128 0x3f
 889 0112 0C       		.uleb128 0xc
 890 0113 03       		.uleb128 0x3
 891 0114 0E       		.uleb128 0xe
 892 0115 3A       		.uleb128 0x3a
 893 0116 0B       		.uleb128 0xb
 894 0117 3B       		.uleb128 0x3b
 895 0118 0B       		.uleb128 0xb
 896 0119 27       		.uleb128 0x27
 897 011a 0C       		.uleb128 0xc
 898 011b 11       		.uleb128 0x11
 899 011c 01       		.uleb128 0x1
 900 011d 12       		.uleb128 0x12
 901 011e 01       		.uleb128 0x1
 902 011f 40       		.uleb128 0x40
 903 0120 0A       		.uleb128 0xa
 904 0121 01       		.uleb128 0x1
 905 0122 13       		.uleb128 0x13
 906 0123 00       		.byte	0x0
ARM GAS  /tmp/cc05pEvX.s 			page 17


 907 0124 00       		.byte	0x0
 908 0125 16       		.uleb128 0x16
 909 0126 05       		.uleb128 0x5
 910 0127 00       		.byte	0x0
 911 0128 03       		.uleb128 0x3
 912 0129 0E       		.uleb128 0xe
 913 012a 3A       		.uleb128 0x3a
 914 012b 0B       		.uleb128 0xb
 915 012c 3B       		.uleb128 0x3b
 916 012d 0B       		.uleb128 0xb
 917 012e 49       		.uleb128 0x49
 918 012f 13       		.uleb128 0x13
 919 0130 02       		.uleb128 0x2
 920 0131 06       		.uleb128 0x6
 921 0132 00       		.byte	0x0
 922 0133 00       		.byte	0x0
 923 0134 17       		.uleb128 0x17
 924 0135 34       		.uleb128 0x34
 925 0136 00       		.byte	0x0
 926 0137 03       		.uleb128 0x3
 927 0138 0E       		.uleb128 0xe
 928 0139 3A       		.uleb128 0x3a
 929 013a 0B       		.uleb128 0xb
 930 013b 3B       		.uleb128 0x3b
 931 013c 0B       		.uleb128 0xb
 932 013d 49       		.uleb128 0x49
 933 013e 13       		.uleb128 0x13
 934 013f 02       		.uleb128 0x2
 935 0140 0A       		.uleb128 0xa
 936 0141 00       		.byte	0x0
 937 0142 00       		.byte	0x0
 938 0143 18       		.uleb128 0x18
 939 0144 1D       		.uleb128 0x1d
 940 0145 01       		.byte	0x1
 941 0146 31       		.uleb128 0x31
 942 0147 13       		.uleb128 0x13
 943 0148 11       		.uleb128 0x11
 944 0149 01       		.uleb128 0x1
 945 014a 12       		.uleb128 0x12
 946 014b 01       		.uleb128 0x1
 947 014c 58       		.uleb128 0x58
 948 014d 0B       		.uleb128 0xb
 949 014e 59       		.uleb128 0x59
 950 014f 0B       		.uleb128 0xb
 951 0150 00       		.byte	0x0
 952 0151 00       		.byte	0x0
 953 0152 19       		.uleb128 0x19
 954 0153 0B       		.uleb128 0xb
 955 0154 01       		.byte	0x1
 956 0155 11       		.uleb128 0x11
 957 0156 01       		.uleb128 0x1
 958 0157 12       		.uleb128 0x12
 959 0158 01       		.uleb128 0x1
 960 0159 00       		.byte	0x0
 961 015a 00       		.byte	0x0
 962 015b 1A       		.uleb128 0x1a
 963 015c 34       		.uleb128 0x34
ARM GAS  /tmp/cc05pEvX.s 			page 18


 964 015d 00       		.byte	0x0
 965 015e 03       		.uleb128 0x3
 966 015f 0E       		.uleb128 0xe
 967 0160 3A       		.uleb128 0x3a
 968 0161 0B       		.uleb128 0xb
 969 0162 3B       		.uleb128 0x3b
 970 0163 05       		.uleb128 0x5
 971 0164 49       		.uleb128 0x49
 972 0165 13       		.uleb128 0x13
 973 0166 3F       		.uleb128 0x3f
 974 0167 0C       		.uleb128 0xc
 975 0168 3C       		.uleb128 0x3c
 976 0169 0C       		.uleb128 0xc
 977 016a 00       		.byte	0x0
 978 016b 00       		.byte	0x0
 979 016c 1B       		.uleb128 0x1b
 980 016d 26       		.uleb128 0x26
 981 016e 00       		.byte	0x0
 982 016f 49       		.uleb128 0x49
 983 0170 13       		.uleb128 0x13
 984 0171 00       		.byte	0x0
 985 0172 00       		.byte	0x0
 986 0173 00       		.byte	0x0
 987              		.section	.debug_pubnames,"",%progbits
 988 0000 44000000 		.4byte	0x44
 989 0004 0200     		.2byte	0x2
 990 0006 00000000 		.4byte	.Ldebug_info0
 991 000a F6020000 		.4byte	0x2f6
 992 000e 06020000 		.4byte	0x206
 993 0012 68616C49 		.ascii	"halInit\000"
 993      6E697400 
 994 001a 1B020000 		.4byte	0x21b
 995 001e 68616C49 		.ascii	"halIsCounterWithin\000"
 995      73436F75 
 995      6E746572 
 995      57697468 
 995      696E00
 996 0031 47020000 		.4byte	0x247
 997 0035 68616C50 		.ascii	"halPolledDelay\000"
 997      6F6C6C65 
 997      6444656C 
 997      617900
 998 0044 00000000 		.4byte	0x0
 999              		.section	.debug_pubtypes,"",%progbits
 1000 0000 72000000 		.4byte	0x72
 1001 0004 0200     		.2byte	0x2
 1002 0006 00000000 		.4byte	.Ldebug_info0
 1003 000a F6020000 		.4byte	0x2f6
 1004 000e 53000000 		.4byte	0x53
 1005 0012 696E7433 		.ascii	"int32_t\000"
 1005      325F7400 
 1006 001a 65000000 		.4byte	0x65
 1007 001e 75696E74 		.ascii	"uint32_t\000"
 1007      33325F74 
 1007      00
 1008 0027 85000000 		.4byte	0x85
 1009 002b 626F6F6C 		.ascii	"bool_t\000"
ARM GAS  /tmp/cc05pEvX.s 			page 19


 1009      5F7400
 1010 0032 17010000 		.4byte	0x117
 1011 0036 434D785F 		.ascii	"CMx_DWT\000"
 1011      44575400 
 1012 003e 2F010000 		.4byte	0x12f
 1013 0042 68616C72 		.ascii	"halrtcnt_t\000"
 1013      74636E74 
 1013      5F7400
 1014 004d 6D010000 		.4byte	0x16d
 1015 0051 73746D33 		.ascii	"stm32_gpio_setup_t\000"
 1015      325F6770 
 1015      696F5F73 
 1015      65747570 
 1015      5F7400
 1016 0064 C7010000 		.4byte	0x1c7
 1017 0068 50414C43 		.ascii	"PALConfig\000"
 1017      6F6E6669 
 1017      6700
 1018 0072 00000000 		.4byte	0x0
 1019              		.section	.debug_aranges,"",%progbits
 1020 0000 2C000000 		.4byte	0x2c
 1021 0004 0200     		.2byte	0x2
 1022 0006 00000000 		.4byte	.Ldebug_info0
 1023 000a 04       		.byte	0x4
 1024 000b 00       		.byte	0x0
 1025 000c 0000     		.2byte	0x0
 1026 000e 0000     		.2byte	0x0
 1027 0010 00000000 		.4byte	.LFB55
 1028 0014 30000000 		.4byte	.LFE55-.LFB55
 1029 0018 00000000 		.4byte	.LFB56
 1030 001c 28000000 		.4byte	.LFE56-.LFB56
 1031 0020 00000000 		.4byte	.LFB57
 1032 0024 28000000 		.4byte	.LFE57-.LFB57
 1033 0028 00000000 		.4byte	0x0
 1034 002c 00000000 		.4byte	0x0
 1035              		.section	.debug_ranges,"",%progbits
 1036              	.Ldebug_ranges0:
 1037 0000 00000000 		.4byte	.LFB55
 1038 0004 30000000 		.4byte	.LFE55
 1039 0008 00000000 		.4byte	.LFB56
 1040 000c 28000000 		.4byte	.LFE56
 1041 0010 00000000 		.4byte	.LFB57
 1042 0014 28000000 		.4byte	.LFE57
 1043 0018 00000000 		.4byte	0x0
 1044 001c 00000000 		.4byte	0x0
 1045              		.section	.debug_str,"MS",%progbits,1
 1046              	.LASF40:
 1047 0000 7469636B 		.ascii	"ticks\000"
 1047      7300
 1048              	.LASF27:
 1049 0006 50444461 		.ascii	"PDData\000"
 1049      746100
 1050              	.LASF34:
 1051 000d 474E5520 		.ascii	"GNU C 4.5.2\000"
 1051      4320342E 
 1051      352E3200 
 1052              	.LASF19:
ARM GAS  /tmp/cc05pEvX.s 			page 20


 1053 0019 50435352 		.ascii	"PCSR\000"
 1053      00
 1054              	.LASF30:
 1055 001e 73746172 		.ascii	"start\000"
 1055      7400
 1056              	.LASF0:
 1057 0024 756E7369 		.ascii	"unsigned int\000"
 1057      676E6564 
 1057      20696E74 
 1057      00
 1058              	.LASF11:
 1059 0031 626F6F6C 		.ascii	"bool_t\000"
 1059      5F7400
 1060              	.LASF15:
 1061 0038 45584343 		.ascii	"EXCCNT\000"
 1061      4E5400
 1062              	.LASF35:
 1063 003f 2E2E2F63 		.ascii	"../chibios_2.4.x/os/hal/src/hal.c\000"
 1063      68696269 
 1063      6F735F32 
 1063      2E342E78 
 1063      2F6F732F 
 1064              	.LASF16:
 1065 0061 534C4545 		.ascii	"SLEEPCNT\000"
 1065      50434E54 
 1065      00
 1066              	.LASF38:
 1067 006a 68616C49 		.ascii	"halInit\000"
 1067      6E697400 
 1068              	.LASF28:
 1069 0072 50454461 		.ascii	"PEData\000"
 1069      746100
 1070              	.LASF2:
 1071 0079 756E7369 		.ascii	"unsigned char\000"
 1071      676E6564 
 1071      20636861 
 1071      7200
 1072              	.LASF23:
 1073 0087 73746D33 		.ascii	"stm32_gpio_setup_t\000"
 1073      325F6770 
 1073      696F5F73 
 1073      65747570 
 1073      5F7400
 1074              	.LASF24:
 1075 009a 50414461 		.ascii	"PAData\000"
 1075      746100
 1076              	.LASF8:
 1077 00a1 6C6F6E67 		.ascii	"long unsigned int\000"
 1077      20756E73 
 1077      69676E65 
 1077      6420696E 
 1077      7400
 1078              	.LASF4:
 1079 00b3 73686F72 		.ascii	"short unsigned int\000"
 1079      7420756E 
 1079      7369676E 
 1079      65642069 
ARM GAS  /tmp/cc05pEvX.s 			page 21


 1079      6E7400
 1080              	.LASF14:
 1081 00c6 43504943 		.ascii	"CPICNT\000"
 1081      4E5400
 1082              	.LASF32:
 1083 00cd 49544D5F 		.ascii	"ITM_RxBuffer\000"
 1083      52784275 
 1083      66666572 
 1083      00
 1084              	.LASF18:
 1085 00da 464F4C44 		.ascii	"FOLDCNT\000"
 1085      434E5400 
 1086              	.LASF29:
 1087 00e2 50414C43 		.ascii	"PALConfig\000"
 1087      6F6E6669 
 1087      6700
 1088              	.LASF33:
 1089 00ec 70616C5F 		.ascii	"pal_default_config\000"
 1089      64656661 
 1089      756C745F 
 1089      636F6E66 
 1089      696700
 1090              	.LASF3:
 1091 00ff 73686F72 		.ascii	"short int\000"
 1091      7420696E 
 1091      7400
 1092              	.LASF17:
 1093 0109 4C535543 		.ascii	"LSUCNT\000"
 1093      4E5400
 1094              	.LASF13:
 1095 0110 43594343 		.ascii	"CYCCNT\000"
 1095      4E5400
 1096              	.LASF25:
 1097 0117 50424461 		.ascii	"PBData\000"
 1097      746100
 1098              	.LASF22:
 1099 011e 68616C72 		.ascii	"halrtcnt_t\000"
 1099      74636E74 
 1099      5F7400
 1100              	.LASF21:
 1101 0129 63686172 		.ascii	"char\000"
 1101      00
 1102              	.LASF12:
 1103 012e 4354524C 		.ascii	"CTRL\000"
 1103      00
 1104              	.LASF37:
 1105 0133 68616C49 		.ascii	"halIsCounterWithin\000"
 1105      73436F75 
 1105      6E746572 
 1105      57697468 
 1105      696E00
 1106              	.LASF6:
 1107 0146 696E7433 		.ascii	"int32_t\000"
 1107      325F7400 
 1108              	.LASF9:
 1109 014e 6C6F6E67 		.ascii	"long long int\000"
 1109      206C6F6E 
ARM GAS  /tmp/cc05pEvX.s 			page 22


 1109      6720696E 
 1109      7400
 1110              	.LASF31:
 1111 015c 74696D65 		.ascii	"timeout\000"
 1111      6F757400 
 1112              	.LASF39:
 1113 0164 68616C50 		.ascii	"halPolledDelay\000"
 1113      6F6C6C65 
 1113      6444656C 
 1113      617900
 1114              	.LASF36:
 1115 0173 2F686F6D 		.ascii	"/home/z80/projects/ipm/soft/firmware/valve\000"
 1115      652F7A38 
 1115      302F7072 
 1115      6F6A6563 
 1115      74732F69 
 1116              	.LASF26:
 1117 019e 50434461 		.ascii	"PCData\000"
 1117      746100
 1118              	.LASF20:
 1119 01a5 434D785F 		.ascii	"CMx_DWT\000"
 1119      44575400 
 1120              	.LASF7:
 1121 01ad 75696E74 		.ascii	"uint32_t\000"
 1121      33325F74 
 1121      00
 1122              	.LASF5:
 1123 01b6 6C6F6E67 		.ascii	"long int\000"
 1123      20696E74 
 1123      00
 1124              	.LASF1:
 1125 01bf 7369676E 		.ascii	"signed char\000"
 1125      65642063 
 1125      68617200 
 1126              	.LASF10:
 1127 01cb 6C6F6E67 		.ascii	"long long unsigned int\000"
 1127      206C6F6E 
 1127      6720756E 
 1127      7369676E 
 1127      65642069 
 1128              		.ident	"GCC: (Sourcery G++ Lite 2011.03-42) 4.5.2"
ARM GAS  /tmp/cc05pEvX.s 			page 23


DEFINED SYMBOLS
                            *ABS*:00000000 hal.c
     /tmp/cc05pEvX.s:24     .text.halInit:00000000 $t
     /tmp/cc05pEvX.s:30     .text.halInit:00000000 halInit
     /tmp/cc05pEvX.s:66     .text.halInit:0000002c $d
     /tmp/cc05pEvX.s:71     .text.halIsCounterWithin:00000000 $t
     /tmp/cc05pEvX.s:77     .text.halIsCounterWithin:00000000 halIsCounterWithin
     /tmp/cc05pEvX.s:124    .text.halIsCounterWithin:00000024 $d
     /tmp/cc05pEvX.s:129    .text.halPolledDelay:00000000 $t
     /tmp/cc05pEvX.s:135    .text.halPolledDelay:00000000 halPolledDelay
     /tmp/cc05pEvX.s:179    .text.halPolledDelay:00000024 $d
                     .debug_frame:00000010 $d
     /tmp/cc05pEvX.s:128    .text.halIsCounterWithin:00000028 $t
     /tmp/cc05pEvX.s:185    .text.halPolledDelay:00000028 $t

UNDEFINED SYMBOLS
hal_lld_init
tmInit
_pal_lld_init
adcInit
i2cInit
pwmInit
usbInit
sduInit
boardInit
pal_default_config
