ARM GAS  C:\DOCUME~1\z_80\LOCALS~1\Temp\ccdZIJoy.s 			page 1


   1              		.syntax unified
   2              		.cpu cortex-m3
   3              		.fpu softvfp
   4              		.eabi_attribute 20, 1
   5              		.eabi_attribute 21, 1
   6              		.eabi_attribute 23, 3
   7              		.eabi_attribute 24, 1
   8              		.eabi_attribute 25, 1
   9              		.eabi_attribute 26, 1
  10              		.eabi_attribute 30, 2
  11              		.eabi_attribute 18, 4
  12              		.thumb
  13              		.file	"hal.c"
  20 0000 3D020000 		.text
  20      0200CE01 
  20      00000201 
  20      FB0E0D00 
  20      01010101 
  21              	.Ltext0:
  22              		.cfi_sections	.debug_frame
  23              		.section	.text.halInit,"ax",%progbits
  24              		.align	2
  25              		.p2align 4,,15
  26              		.global	halInit
  27              		.thumb
  28              		.thumb_func
  29              		.type	halInit, %function
  30              	halInit:
  31              	.LFB55:
  32              		.file 1 "../chibios_2.4.x/os/hal/src/hal.c"
  33              		.loc 1 68 0
  34              		.cfi_startproc
  35              		@ args = 0, pretend = 0, frame = 0
  36              		@ frame_needed = 0, uses_anonymous_args = 0
  37 0000 10B5     		push	{r4, lr}
  38              	.LCFI0:
  39              		.cfi_def_cfa_offset 8
  40              		.loc 1 70 0
  41              		.cfi_offset 14, -4
  42              		.cfi_offset 4, -8
  43 0002 FFF7FEFF 		bl	hal_lld_init
  44              		.loc 1 73 0
  45 0006 FFF7FEFF 		bl	tmInit
  46              		.loc 1 76 0
  47 000a 0748     		ldr	r0, .L2
  48 000c FFF7FEFF 		bl	_pal_lld_init
  49              		.loc 1 79 0
  50 0010 FFF7FEFF 		bl	adcInit
  51              		.loc 1 100 0
  52 0014 FFF7FEFF 		bl	pwmInit
  53              		.loc 1 115 0
ARM GAS  C:\DOCUME~1\z_80\LOCALS~1\Temp\ccdZIJoy.s 			page 2


  54 0018 FFF7FEFF 		bl	usbInit
  55              		.loc 1 121 0
  56 001c FFF7FEFF 		bl	sduInit
  57              		.loc 1 128 0
  58 0020 BDE81040 		pop	{r4, lr}
  59              		.loc 1 127 0
  60 0024 FFF7FEBF 		b	boardInit
  61              	.L3:
  62              		.align	2
  63              	.L2:
  64 0028 00000000 		.word	pal_default_config
  65              		.cfi_endproc
  66              	.LFE55:
  67              		.size	halInit, .-halInit
  68 002c AFF30080 		.section	.text.halIsCounterWithin,"ax",%progbits
  69              		.align	2
  70              		.p2align 4,,15
  71              		.global	halIsCounterWithin
  72              		.thumb
  73              		.thumb_func
  74              		.type	halIsCounterWithin, %function
  75              	halIsCounterWithin:
  76              	.LFB56:
  77              		.loc 1 174 0
  78              		.cfi_startproc
  79              		@ args = 0, pretend = 0, frame = 0
  80              		@ frame_needed = 0, uses_anonymous_args = 0
  81              		@ link register save eliminated.
  82              	.LVL0:
  83              		.loc 1 175 0
  84 0000 084B     		ldr	r3, .L11
  85              		.loc 1 177 0
  86 0002 8142     		cmp	r1, r0
  87              		.loc 1 175 0
  88 0004 5B68     		ldr	r3, [r3, #4]
  89              	.LVL1:
  90              		.loc 1 177 0
  91 0006 06D9     		bls	.L5
  92              		.loc 1 177 0 is_stmt 0 discriminator 1
  93 0008 8342     		cmp	r3, r0
  94 000a 08D3     		bcc	.L7
  95              	.L9:
  96              		.loc 1 177 0
  97 000c 8B42     		cmp	r3, r1
  98 000e 2CBF     		ite	cs
  99 0010 0020     		movcs	r0, #0
 100              	.LVL2:
 101 0012 0120     		movcc	r0, #1
 102 0014 7047     		bx	lr
 103              	.LVL3:
 104              	.L5:
 105              		.loc 1 177 0 discriminator 2
 106 0016 8342     		cmp	r3, r0
 107 0018 F8D3     		bcc	.L9
 108              		.loc 1 177 0
 109 001a 0120     		movs	r0, #1
 110              	.LVL4:
ARM GAS  C:\DOCUME~1\z_80\LOCALS~1\Temp\ccdZIJoy.s 			page 3


 111              		.loc 1 179 0 is_stmt 1
 112 001c 7047     		bx	lr
 113              	.LVL5:
 114              	.L7:
 115              		.loc 1 177 0
 116 001e 0020     		movs	r0, #0
 117              	.LVL6:
 118 0020 7047     		bx	lr
 119              	.L12:
 120 0022 00BF     		.align	2
 121              	.L11:
 122 0024 001000E0 		.word	-536866816
 123              		.cfi_endproc
 124              	.LFE56:
 125              		.size	halIsCounterWithin, .-halIsCounterWithin
 126 0028 AFF30080 		.section	.text.halPolledDelay,"ax",%progbits
 126      AFF30080 
 127              		.align	2
 128              		.p2align 4,,15
 129              		.global	halPolledDelay
 130              		.thumb
 131              		.thumb_func
 132              		.type	halPolledDelay, %function
 133              	halPolledDelay:
 134              	.LFB57:
 135              		.loc 1 193 0
 136              		.cfi_startproc
 137              		@ args = 0, pretend = 0, frame = 0
 138              		@ frame_needed = 0, uses_anonymous_args = 0
 139              		@ link register save eliminated.
 140              	.LVL7:
 141              		.loc 1 194 0
 142 0000 084A     		ldr	r2, .L21
 143 0002 5368     		ldr	r3, [r2, #4]
 144              	.LVL8:
 145              		.loc 1 195 0
 146 0004 C018     		adds	r0, r0, r3
 147              	.LVL9:
 148              	.L19:
 149              	.LBB4:
 150              	.LBB5:
 151              		.loc 1 177 0 discriminator 1
 152 0006 8342     		cmp	r3, r0
 153              		.loc 1 175 0 discriminator 1
 154 0008 5168     		ldr	r1, [r2, #4]
 155              	.LVL10:
 156              		.loc 1 177 0 discriminator 1
 157 000a 02D2     		bcs	.L14
 158              		.loc 1 177 0 is_stmt 0
 159 000c 8B42     		cmp	r3, r1
 160 000e 05D9     		bls	.L20
 161 0010 7047     		bx	lr
 162              	.L14:
 163 0012 8B42     		cmp	r3, r1
 164 0014 F7D9     		bls	.L19
 165              		.loc 1 178 0 is_stmt 1
 166 0016 8842     		cmp	r0, r1
ARM GAS  C:\DOCUME~1\z_80\LOCALS~1\Temp\ccdZIJoy.s 			page 4


 167 0018 F5D8     		bhi	.L19
 168 001a 7047     		bx	lr
 169              	.L20:
 170              		.loc 1 177 0
 171 001c 8842     		cmp	r0, r1
 172 001e F2D8     		bhi	.L19
 173 0020 7047     		bx	lr
 174              	.L22:
 175 0022 00BF     		.align	2
 176              	.L21:
 177 0024 001000E0 		.word	-536866816
 178              	.LBE5:
 179              	.LBE4:
 180              		.cfi_endproc
 181              	.LFE57:
 182              		.size	halPolledDelay, .-halPolledDelay
 183 0028 AFF30080 		.text
 183      AFF30080 
 184              	.Letext0: