ARM GAS  C:\DOCUME~1\z_80\LOCALS~1\Temp\ccsaqqWa.s 			page 1


   1              		.syntax unified
   2              		.cpu cortex-m3
   3              		.fpu softvfp
   4              		.eabi_attribute 20, 1
   5              		.eabi_attribute 21, 1
   6              		.eabi_attribute 23, 3
   7              		.eabi_attribute 24, 1
   8              		.eabi_attribute 25, 1
   9              		.eabi_attribute 26, 1
  10              		.eabi_attribute 30, 2
  11              		.eabi_attribute 18, 4
  12              		.thumb
  13              		.file	"i2c.c"
  20 0000 A9040000 		.text
  20      02008802 
  20      00000201 
  20      FB0E0D00 
  20      01010101 
  21              	.Ltext0:
  22              		.cfi_sections	.debug_frame
  23              		.section	.text.i2cInit,"ax",%progbits
  24              		.align	2
  25              		.p2align 4,,15
  26              		.global	i2cInit
  27              		.thumb
  28              		.thumb_func
  29              		.type	i2cInit, %function
  30              	i2cInit:
  31              	.LFB55:
  32              		.file 1 "../chibios_2.4.x/os/hal/src/i2c.c"
  33              		.loc 1 71 0
  34              		.cfi_startproc
  35              		@ args = 0, pretend = 0, frame = 0
  36              		@ frame_needed = 0, uses_anonymous_args = 0
  37              		@ link register save eliminated.
  38              		.loc 1 73 0
  39              		.loc 1 72 0
  40 0000 FFF7FEBF 		b	i2c_lld_init
  41              		.cfi_endproc
  42              	.LFE55:
  43              		.size	i2cInit, .-i2cInit
  44 0004 AFF30080 		.section	.text.i2cObjectInit,"ax",%progbits
  44      AFF30080 
  44      AFF30080 
  45              		.align	2
  46              		.p2align 4,,15
  47              		.global	i2cObjectInit
  48              		.thumb
  49              		.thumb_func
  50              		.type	i2cObjectInit, %function
  51              	i2cObjectInit:
ARM GAS  C:\DOCUME~1\z_80\LOCALS~1\Temp\ccsaqqWa.s 			page 2


  52              	.LFB56:
  53              		.loc 1 82 0
  54              		.cfi_startproc
  55              		@ args = 0, pretend = 0, frame = 0
  56              		@ frame_needed = 0, uses_anonymous_args = 0
  57              		@ link register save eliminated.
  58              	.LVL0:
  59              		.loc 1 84 0
  60 0000 0121     		movs	r1, #1
  61              		.loc 1 85 0
  62 0002 0023     		movs	r3, #0
  63              		.loc 1 84 0
  64 0004 0170     		strb	r1, [r0, #0]
  65              		.loc 1 85 0
  66 0006 4360     		str	r3, [r0, #4]
  67              		.loc 1 89 0
  68 0008 0C30     		adds	r0, r0, #12
  69              	.LVL1:
  70              		.loc 1 98 0
  71              		.loc 1 89 0
  72 000a FFF7FEBF 		b	chMtxInit
  73              		.cfi_endproc
  74              	.LFE56:
  75              		.size	i2cObjectInit, .-i2cObjectInit
  76 000e 00BF     		.section	.text.i2cStart,"ax",%progbits
  77              		.align	2
  78              		.p2align 4,,15
  79              		.global	i2cStart
  80              		.thumb
  81              		.thumb_func
  82              		.type	i2cStart, %function
  83              	i2cStart:
  84              	.LFB57:
  85              		.loc 1 108 0
  86              		.cfi_startproc
  87              		@ args = 0, pretend = 0, frame = 0
  88              		@ frame_needed = 0, uses_anonymous_args = 0
  89              	.LVL2:
  90 0000 38B5     		push	{r3, r4, r5, lr}
  91              	.LCFI0:
  92              		.cfi_def_cfa_offset 16
  93              		.loc 1 110 0
  94 0002 0446     		mov	r4, r0
  95              		.cfi_offset 14, -4
  96              		.cfi_offset 5, -8
  97              		.cfi_offset 4, -12
  98              		.cfi_offset 3, -16
  99              		.loc 1 108 0
 100 0004 0D46     		mov	r5, r1
 101              		.loc 1 110 0
 102 0006 C8B1     		cbz	r0, .L4
 103              		.loc 1 110 0 is_stmt 0 discriminator 2
 104 0008 C1B1     		cbz	r1, .L4
 105              	.LVL3:
 106              	.L5:
 107              		.loc 1 111 0 is_stmt 1
 108 000a 2378     		ldrb	r3, [r4, #0]	@ zero_extendqisi2
ARM GAS  C:\DOCUME~1\z_80\LOCALS~1\Temp\ccsaqqWa.s 			page 3


 109 000c 581E     		subs	r0, r3, #1
 110 000e C2B2     		uxtb	r2, r0
 111 0010 012A     		cmp	r2, #1
 112 0012 04D9     		bls	.L6
 113              		.loc 1 111 0 is_stmt 0 discriminator 1
 114 0014 052B     		cmp	r3, #5
 115 0016 02D0     		beq	.L6
 116              		.loc 1 111 0 discriminator 2
 117 0018 0A48     		ldr	r0, .L8
 118 001a FFF7FEFF 		bl	chDbgPanic
 119              	.L6:
 120              		.loc 1 116 0 is_stmt 1
 121              	@ 116 "../chibios_2.4.x/os/hal/src/i2c.c" 1
 122 001e FFF7FEFF 		bl      _port_lock
 123              	@ 0 "" 2
 124              		.thumb
 125 0022 FFF7FEFF 		bl	dbg_check_lock
 126              		.loc 1 118 0
 127 0026 2046     		mov	r0, r4
 128              		.loc 1 117 0
 129 0028 6560     		str	r5, [r4, #4]
 130              		.loc 1 118 0
 131 002a FFF7FEFF 		bl	i2c_lld_start
 132              		.loc 1 119 0
 133 002e 0223     		movs	r3, #2
 134 0030 2370     		strb	r3, [r4, #0]
 135              		.loc 1 120 0
 136 0032 FFF7FEFF 		bl	dbg_check_unlock
 137              	@ 120 "../chibios_2.4.x/os/hal/src/i2c.c" 1
 138 0036 FFF7FEFF 		bl      _port_unlock
 139              	@ 0 "" 2
 140              		.loc 1 121 0
 141              		.thumb
 142 003a 38BD     		pop	{r3, r4, r5, pc}
 143              	.L4:
 144              		.loc 1 110 0 discriminator 1
 145 003c 0248     		ldr	r0, .L8+4
 146 003e FFF7FEFF 		bl	chDbgPanic
 147 0042 E2E7     		b	.L5
 148              	.L9:
 149              		.align	2
 150              	.L8:
 151 0044 10000000 		.word	.LC1
 152 0048 00000000 		.word	.LC0
 153              		.cfi_endproc
 154              	.LFE57:
 155              		.size	i2cStart, .-i2cStart
 156 004c AFF30080 		.section	.text.i2cStop,"ax",%progbits
 157              		.align	2
 158              		.p2align 4,,15
 159              		.global	i2cStop
 160              		.thumb
 161              		.thumb_func
 162              		.type	i2cStop, %function
 163              	i2cStop:
 164              	.LFB58:
 165              		.loc 1 130 0
ARM GAS  C:\DOCUME~1\z_80\LOCALS~1\Temp\ccsaqqWa.s 			page 4


 166              		.cfi_startproc
 167              		@ args = 0, pretend = 0, frame = 0
 168              		@ frame_needed = 0, uses_anonymous_args = 0
 169              	.LVL4:
 170 0000 10B5     		push	{r4, lr}
 171              	.LCFI1:
 172              		.cfi_def_cfa_offset 8
 173              		.loc 1 132 0
 174 0002 0446     		mov	r4, r0
 175              		.cfi_offset 14, -4
 176              		.cfi_offset 4, -8
 177 0004 B8B1     		cbz	r0, .L13
 178              	.LVL5:
 179              	.L11:
 180              		.loc 1 133 0
 181 0006 2378     		ldrb	r3, [r4, #0]	@ zero_extendqisi2
 182 0008 581E     		subs	r0, r3, #1
 183 000a C2B2     		uxtb	r2, r0
 184 000c 012A     		cmp	r2, #1
 185 000e 04D9     		bls	.L12
 186              		.loc 1 133 0 is_stmt 0 discriminator 1
 187 0010 052B     		cmp	r3, #5
 188 0012 02D0     		beq	.L12
 189              		.loc 1 133 0 discriminator 2
 190 0014 0A48     		ldr	r0, .L14
 191 0016 FFF7FEFF 		bl	chDbgPanic
 192              	.L12:
 193              		.loc 1 138 0 is_stmt 1
 194              	@ 138 "../chibios_2.4.x/os/hal/src/i2c.c" 1
 195 001a FFF7FEFF 		bl      _port_lock
 196              	@ 0 "" 2
 197              		.thumb
 198 001e FFF7FEFF 		bl	dbg_check_lock
 199              		.loc 1 139 0
 200 0022 2046     		mov	r0, r4
 201 0024 FFF7FEFF 		bl	i2c_lld_stop
 202              		.loc 1 140 0
 203 0028 0123     		movs	r3, #1
 204 002a 2370     		strb	r3, [r4, #0]
 205              		.loc 1 141 0
 206 002c FFF7FEFF 		bl	dbg_check_unlock
 207              	@ 141 "../chibios_2.4.x/os/hal/src/i2c.c" 1
 208 0030 FFF7FEFF 		bl      _port_unlock
 209              	@ 0 "" 2
 210              		.loc 1 142 0
 211              		.thumb
 212 0034 10BD     		pop	{r4, pc}
 213              	.L13:
 214              		.loc 1 132 0 discriminator 1
 215 0036 0348     		ldr	r0, .L14+4
 216 0038 FFF7FEFF 		bl	chDbgPanic
 217 003c E3E7     		b	.L11
 218              	.L15:
 219 003e 00BF     		.align	2
 220              	.L14:
 221 0040 2C000000 		.word	.LC3
 222 0044 20000000 		.word	.LC2
ARM GAS  C:\DOCUME~1\z_80\LOCALS~1\Temp\ccsaqqWa.s 			page 5


 223              		.cfi_endproc
 224              	.LFE58:
 225              		.size	i2cStop, .-i2cStop
 226 0048 AFF30080 		.section	.text.i2cGetErrors,"ax",%progbits
 226      AFF30080 
 227              		.align	2
 228              		.p2align 4,,15
 229              		.global	i2cGetErrors
 230              		.thumb
 231              		.thumb_func
 232              		.type	i2cGetErrors, %function
 233              	i2cGetErrors:
 234              	.LFB59:
 235              		.loc 1 152 0
 236              		.cfi_startproc
 237              		@ args = 0, pretend = 0, frame = 0
 238              		@ frame_needed = 0, uses_anonymous_args = 0
 239              	.LVL6:
 240 0000 10B5     		push	{r4, lr}
 241              	.LCFI2:
 242              		.cfi_def_cfa_offset 8
 243              		.loc 1 154 0
 244 0002 0446     		mov	r4, r0
 245              		.cfi_offset 14, -4
 246              		.cfi_offset 4, -8
 247 0004 08B1     		cbz	r0, .L18
 248              		.loc 1 157 0
 249 0006 A068     		ldr	r0, [r4, #8]
 250              	.LVL7:
 251 0008 10BD     		pop	{r4, pc}
 252              	.L18:
 253              		.loc 1 154 0 discriminator 1
 254 000a 0248     		ldr	r0, .L19
 255 000c FFF7FEFF 		bl	chDbgPanic
 256              		.loc 1 157 0 discriminator 1
 257 0010 A068     		ldr	r0, [r4, #8]
 258 0012 10BD     		pop	{r4, pc}
 259              	.L20:
 260              		.align	2
 261              	.L19:
 262 0014 3C000000 		.word	.LC4
 263              		.cfi_endproc
 264              	.LFE59:
 265              		.size	i2cGetErrors, .-i2cGetErrors
 266 0018 AFF30080 		.section	.text.i2cMasterTransmitTimeout,"ax",%progbits
 266      AFF30080 
 267              		.align	2
 268              		.p2align 4,,15
 269              		.global	i2cMasterTransmitTimeout
 270              		.thumb
 271              		.thumb_func
 272              		.type	i2cMasterTransmitTimeout, %function
 273              	i2cMasterTransmitTimeout:
 274              	.LFB60:
 275              		.loc 1 191 0
 276              		.cfi_startproc
 277              		@ args = 12, pretend = 0, frame = 0
ARM GAS  C:\DOCUME~1\z_80\LOCALS~1\Temp\ccsaqqWa.s 			page 6


 278              		@ frame_needed = 0, uses_anonymous_args = 0
 279              	.LVL8:
 280 0000 2DE9F047 		push	{r4, r5, r6, r7, r8, r9, sl, lr}
 281              	.LCFI3:
 282              		.cfi_def_cfa_offset 32
 283 0004 84B0     		sub	sp, sp, #16
 284              	.LCFI4:
 285              		.cfi_def_cfa_offset 48
 286              		.loc 1 194 0
 287 0006 0446     		mov	r4, r0
 288              		.cfi_offset 14, -4
 289              		.cfi_offset 10, -8
 290              		.cfi_offset 9, -12
 291              		.cfi_offset 8, -16
 292              		.cfi_offset 7, -20
 293              		.cfi_offset 6, -24
 294              		.cfi_offset 5, -28
 295              		.cfi_offset 4, -32
 296              		.loc 1 191 0
 297 0008 8846     		mov	r8, r1
 298 000a 9146     		mov	r9, r2
 299 000c 1D46     		mov	r5, r3
 300 000e DDF830A0 		ldr	sl, [sp, #48]
 301 0012 0D9E     		ldr	r6, [sp, #52]
 302 0014 0E9F     		ldr	r7, [sp, #56]
 303              		.loc 1 194 0
 304 0016 08B1     		cbz	r0, .L22
 305              		.loc 1 194 0 is_stmt 0 discriminator 2
 306 0018 0029     		cmp	r1, #0
 307 001a 28D1     		bne	.L28
 308              	.L22:
 309              		.loc 1 194 0 discriminator 1
 310 001c 1B48     		ldr	r0, .L30
 311              	.LVL9:
 312 001e FFF7FEFF 		bl	chDbgPanic
 313              	.LVL10:
 314              	.L24:
 315              		.loc 1 200 0 is_stmt 1
 316 0022 2378     		ldrb	r3, [r4, #0]	@ zero_extendqisi2
 317 0024 022B     		cmp	r3, #2
 318 0026 02D0     		beq	.L25
 319              		.loc 1 200 0 is_stmt 0 discriminator 1
 320 0028 1948     		ldr	r0, .L30+4
 321 002a FFF7FEFF 		bl	chDbgPanic
 322              	.L25:
 323              		.loc 1 203 0 is_stmt 1
 324              	@ 203 "../chibios_2.4.x/os/hal/src/i2c.c" 1
 325 002e FFF7FEFF 		bl      _port_lock
 326              	@ 0 "" 2
 327              		.thumb
 328 0032 FFF7FEFF 		bl	dbg_check_lock
 329              		.loc 1 204 0
 330 0036 0021     		movs	r1, #0
 331              		.loc 1 205 0
 332 0038 0320     		movs	r0, #3
 333              		.loc 1 204 0
 334 003a A160     		str	r1, [r4, #8]
ARM GAS  C:\DOCUME~1\z_80\LOCALS~1\Temp\ccsaqqWa.s 			page 7


 335              		.loc 1 205 0
 336 003c 2070     		strb	r0, [r4, #0]
 337              		.loc 1 206 0
 338 003e 2B46     		mov	r3, r5
 339 0040 2046     		mov	r0, r4
 340 0042 4146     		mov	r1, r8
 341 0044 4A46     		mov	r2, r9
 342 0046 CDF800A0 		str	sl, [sp, #0]
 343 004a 0196     		str	r6, [sp, #4]
 344 004c 0297     		str	r7, [sp, #8]
 345 004e FFF7FEFF 		bl	i2c_lld_master_transmit_timeout
 346              		.loc 1 208 0
 347 0052 B0F1FF3F 		cmp	r0, #-1
 348              		.loc 1 206 0
 349 0056 0546     		mov	r5, r0
 350              	.LVL11:
 351              		.loc 1 208 0
 352 0058 14D0     		beq	.L29
 353              		.loc 1 211 0
 354 005a 0223     		movs	r3, #2
 355 005c 2370     		strb	r3, [r4, #0]
 356              	.L27:
 357              		.loc 1 212 0
 358 005e FFF7FEFF 		bl	dbg_check_unlock
 359              	.LVL12:
 360              	@ 212 "../chibios_2.4.x/os/hal/src/i2c.c" 1
 361 0062 FFF7FEFF 		bl      _port_unlock
 362              	@ 0 "" 2
 363              		.loc 1 214 0
 364              		.thumb
 365 0066 2846     		mov	r0, r5
 366 0068 04B0     		add	sp, sp, #16
 367 006a BDE8F087 		pop	{r4, r5, r6, r7, r8, r9, sl, pc}
 368              	.LVL13:
 369              	.L28:
 370              		.loc 1 194 0 discriminator 3
 371 006e 002B     		cmp	r3, #0
 372 0070 D4D0     		beq	.L22
 373              		.loc 1 194 0 is_stmt 0 discriminator 4
 374 0072 002A     		cmp	r2, #0
 375 0074 D2D0     		beq	.L22
 376              		.loc 1 194 0 discriminator 5
 377 0076 16B1     		cbz	r6, .L23
 378              		.loc 1 194 0 discriminator 6
 379 0078 BAF1000F 		cmp	sl, #0
 380 007c CED0     		beq	.L22
 381              	.L23:
 382              		.loc 1 194 0 discriminator 7
 383 007e 002F     		cmp	r7, #0
 384 0080 CFD1     		bne	.L24
 385 0082 CBE7     		b	.L22
 386              	.LVL14:
 387              	.L29:
 388              		.loc 1 209 0 is_stmt 1
 389 0084 0522     		movs	r2, #5
 390 0086 2270     		strb	r2, [r4, #0]
 391 0088 E9E7     		b	.L27
ARM GAS  C:\DOCUME~1\z_80\LOCALS~1\Temp\ccsaqqWa.s 			page 8


 392              	.L31:
 393 008a 00BF     		.align	2
 394              	.L30:
 395 008c 50000000 		.word	.LC5
 396 0090 70000000 		.word	.LC6
 397              		.cfi_endproc
 398              	.LFE60:
 399              		.size	i2cMasterTransmitTimeout, .-i2cMasterTransmitTimeout
 400 0094 AFF30080 		.section	.text.i2cMasterReceiveTimeout,"ax",%progbits
 400      AFF30080 
 400      AFF30080 
 401              		.align	2
 402              		.p2align 4,,15
 403              		.global	i2cMasterReceiveTimeout
 404              		.thumb
 405              		.thumb_func
 406              		.type	i2cMasterReceiveTimeout, %function
 407              	i2cMasterReceiveTimeout:
 408              	.LFB61:
 409              		.loc 1 240 0
 410              		.cfi_startproc
 411              		@ args = 4, pretend = 0, frame = 0
 412              		@ frame_needed = 0, uses_anonymous_args = 0
 413              	.LVL15:
 414 0000 2DE9F041 		push	{r4, r5, r6, r7, r8, lr}
 415              	.LCFI5:
 416              		.cfi_def_cfa_offset 24
 417 0004 82B0     		sub	sp, sp, #8
 418              	.LCFI6:
 419              		.cfi_def_cfa_offset 32
 420              		.loc 1 244 0
 421 0006 0446     		mov	r4, r0
 422              		.cfi_offset 14, -4
 423              		.cfi_offset 8, -8
 424              		.cfi_offset 7, -12
 425              		.cfi_offset 6, -16
 426              		.cfi_offset 5, -20
 427              		.cfi_offset 4, -24
 428              		.loc 1 240 0
 429 0008 0F46     		mov	r7, r1
 430 000a 9046     		mov	r8, r2
 431 000c 1D46     		mov	r5, r3
 432 000e 089E     		ldr	r6, [sp, #32]
 433              		.loc 1 244 0
 434 0010 08B1     		cbz	r0, .L33
 435              		.loc 1 244 0 is_stmt 0 discriminator 2
 436 0012 0029     		cmp	r1, #0
 437 0014 25D1     		bne	.L38
 438              	.L33:
 439              		.loc 1 244 0 discriminator 1
 440 0016 1848     		ldr	r0, .L40
 441              	.LVL16:
 442 0018 FFF7FEFF 		bl	chDbgPanic
 443              	.LVL17:
 444              	.L34:
 445              		.loc 1 249 0 is_stmt 1
 446 001c 2378     		ldrb	r3, [r4, #0]	@ zero_extendqisi2
ARM GAS  C:\DOCUME~1\z_80\LOCALS~1\Temp\ccsaqqWa.s 			page 9


 447 001e 022B     		cmp	r3, #2
 448 0020 02D0     		beq	.L35
 449              		.loc 1 249 0 is_stmt 0 discriminator 1
 450 0022 1648     		ldr	r0, .L40+4
 451 0024 FFF7FEFF 		bl	chDbgPanic
 452              	.L35:
 453              		.loc 1 252 0 is_stmt 1
 454              	@ 252 "../chibios_2.4.x/os/hal/src/i2c.c" 1
 455 0028 FFF7FEFF 		bl      _port_lock
 456              	@ 0 "" 2
 457              		.thumb
 458 002c FFF7FEFF 		bl	dbg_check_lock
 459              		.loc 1 253 0
 460 0030 0021     		movs	r1, #0
 461              		.loc 1 254 0
 462 0032 0420     		movs	r0, #4
 463              		.loc 1 253 0
 464 0034 A160     		str	r1, [r4, #8]
 465              		.loc 1 254 0
 466 0036 2070     		strb	r0, [r4, #0]
 467              		.loc 1 255 0
 468 0038 2B46     		mov	r3, r5
 469 003a 2046     		mov	r0, r4
 470 003c 3946     		mov	r1, r7
 471 003e 4246     		mov	r2, r8
 472 0040 0096     		str	r6, [sp, #0]
 473 0042 FFF7FEFF 		bl	i2c_lld_master_receive_timeout
 474              		.loc 1 256 0
 475 0046 B0F1FF3F 		cmp	r0, #-1
 476              		.loc 1 255 0
 477 004a 0546     		mov	r5, r0
 478              	.LVL18:
 479              		.loc 1 256 0
 480 004c 10D0     		beq	.L39
 481              		.loc 1 259 0
 482 004e 0223     		movs	r3, #2
 483 0050 2370     		strb	r3, [r4, #0]
 484              	.L37:
 485              		.loc 1 260 0
 486 0052 FFF7FEFF 		bl	dbg_check_unlock
 487              	.LVL19:
 488              	@ 260 "../chibios_2.4.x/os/hal/src/i2c.c" 1
 489 0056 FFF7FEFF 		bl      _port_unlock
 490              	@ 0 "" 2
 491              		.loc 1 262 0
 492              		.thumb
 493 005a 2846     		mov	r0, r5
 494 005c 02B0     		add	sp, sp, #8
 495 005e BDE8F081 		pop	{r4, r5, r6, r7, r8, pc}
 496              	.LVL20:
 497              	.L38:
 498              		.loc 1 244 0 discriminator 3
 499 0062 002B     		cmp	r3, #0
 500 0064 D7D0     		beq	.L33
 501              		.loc 1 244 0 is_stmt 0 discriminator 4
 502 0066 002A     		cmp	r2, #0
 503 0068 D5D0     		beq	.L33
ARM GAS  C:\DOCUME~1\z_80\LOCALS~1\Temp\ccsaqqWa.s 			page 10


 504              		.loc 1 244 0 discriminator 5
 505 006a 002E     		cmp	r6, #0
 506 006c D6D1     		bne	.L34
 507 006e D2E7     		b	.L33
 508              	.LVL21:
 509              	.L39:
 510              		.loc 1 257 0 is_stmt 1
 511 0070 0522     		movs	r2, #5
 512 0072 2270     		strb	r2, [r4, #0]
 513 0074 EDE7     		b	.L37
 514              	.L41:
 515 0076 00BF     		.align	2
 516              	.L40:
 517 0078 90000000 		.word	.LC7
 518 007c AC000000 		.word	.LC8
 519              		.cfi_endproc
 520              	.LFE61:
 521              		.size	i2cMasterReceiveTimeout, .-i2cMasterReceiveTimeout
 522              		.section	.text.i2cAcquireBus,"ax",%progbits
 523              		.align	2
 524              		.p2align 4,,15
 525              		.global	i2cAcquireBus
 526              		.thumb
 527              		.thumb_func
 528              		.type	i2cAcquireBus, %function
 529              	i2cAcquireBus:
 530              	.LFB62:
 531              		.loc 1 276 0
 532              		.cfi_startproc
 533              		@ args = 0, pretend = 0, frame = 0
 534              		@ frame_needed = 0, uses_anonymous_args = 0
 535              	.LVL22:
 536 0000 10B5     		push	{r4, lr}
 537              	.LCFI7:
 538              		.cfi_def_cfa_offset 8
 539              		.loc 1 278 0
 540 0002 0446     		mov	r4, r0
 541              		.cfi_offset 14, -4
 542              		.cfi_offset 4, -8
 543 0004 28B1     		cbz	r0, .L44
 544              	.LVL23:
 545              	.L43:
 546              		.loc 1 281 0
 547 0006 04F10C00 		add	r0, r4, #12
 548              		.loc 1 285 0
 549 000a BDE81040 		pop	{r4, lr}
 550              		.loc 1 281 0
 551 000e FFF7FEBF 		b	chMtxLock
 552              	.L44:
 553              		.loc 1 278 0 discriminator 1
 554 0012 0248     		ldr	r0, .L45
 555 0014 FFF7FEFF 		bl	chDbgPanic
 556 0018 F5E7     		b	.L43
 557              	.L46:
 558 001a 00BF     		.align	2
 559              	.L45:
 560 001c C4000000 		.word	.LC9
ARM GAS  C:\DOCUME~1\z_80\LOCALS~1\Temp\ccsaqqWa.s 			page 11


 561              		.cfi_endproc
 562              	.LFE62:
 563              		.size	i2cAcquireBus, .-i2cAcquireBus
 564              		.section	.text.i2cReleaseBus,"ax",%progbits
 565              		.align	2
 566              		.p2align 4,,15
 567              		.global	i2cReleaseBus
 568              		.thumb
 569              		.thumb_func
 570              		.type	i2cReleaseBus, %function
 571              	i2cReleaseBus:
 572              	.LFB63:
 573              		.loc 1 296 0
 574              		.cfi_startproc
 575              		@ args = 0, pretend = 0, frame = 0
 576              		@ frame_needed = 0, uses_anonymous_args = 0
 577              	.LVL24:
 578 0000 10B5     		push	{r4, lr}
 579              	.LCFI8:
 580              		.cfi_def_cfa_offset 8
 581              		.loc 1 298 0
 582 0002 18B1     		cbz	r0, .L49
 583              		.cfi_offset 14, -4
 584              		.cfi_offset 4, -8
 585              	.LVL25:
 586              	.L48:
 587              		.loc 1 305 0
 588 0004 BDE81040 		pop	{r4, lr}
 589              		.loc 1 301 0
 590 0008 FFF7FEBF 		b	chMtxUnlock
 591              	.LVL26:
 592              	.L49:
 593              		.loc 1 298 0 discriminator 1
 594 000c 0148     		ldr	r0, .L50
 595              	.LVL27:
 596 000e FFF7FEFF 		bl	chDbgPanic
 597 0012 F7E7     		b	.L48
 598              	.L51:
 599              		.align	2
 600              	.L50:
 601 0014 D8000000 		.word	.LC10
 602              		.cfi_endproc
 603              	.LFE63:
 604              		.size	i2cReleaseBus, .-i2cReleaseBus
 605 0018 AFF30080 		.section	.text.i2cSlaveReceiveTimeout,"ax",%progbits
 605      AFF30080 
 606              		.align	2
 607              		.p2align 4,,15
 608              		.global	i2cSlaveReceiveTimeout
 609              		.thumb
 610              		.thumb_func
 611              		.type	i2cSlaveReceiveTimeout, %function
 612              	i2cSlaveReceiveTimeout:
 613              	.LFB64:
 614              		.loc 1 315 0
 615              		.cfi_startproc
 616              		@ args = 12, pretend = 0, frame = 0
ARM GAS  C:\DOCUME~1\z_80\LOCALS~1\Temp\ccsaqqWa.s 			page 12


 617              		@ frame_needed = 0, uses_anonymous_args = 0
 618              	.LVL28:
 619 0000 2DE9F047 		push	{r4, r5, r6, r7, r8, r9, sl, lr}
 620              	.LCFI9:
 621              		.cfi_def_cfa_offset 32
 622 0004 84B0     		sub	sp, sp, #16
 623              	.LCFI10:
 624              		.cfi_def_cfa_offset 48
 625              		.loc 1 318 0
 626 0006 0446     		mov	r4, r0
 627              		.cfi_offset 14, -4
 628              		.cfi_offset 10, -8
 629              		.cfi_offset 9, -12
 630              		.cfi_offset 8, -16
 631              		.cfi_offset 7, -20
 632              		.cfi_offset 6, -24
 633              		.cfi_offset 5, -28
 634              		.cfi_offset 4, -32
 635              		.loc 1 315 0
 636 0008 8846     		mov	r8, r1
 637 000a 9146     		mov	r9, r2
 638 000c 1D46     		mov	r5, r3
 639 000e DDF830A0 		ldr	sl, [sp, #48]
 640 0012 0D9E     		ldr	r6, [sp, #52]
 641 0014 0E9F     		ldr	r7, [sp, #56]
 642              		.loc 1 318 0
 643 0016 08B1     		cbz	r0, .L53
 644              		.loc 1 318 0 is_stmt 0 discriminator 2
 645 0018 0029     		cmp	r1, #0
 646 001a 28D1     		bne	.L59
 647              	.L53:
 648              		.loc 1 318 0 discriminator 1
 649 001c 1B48     		ldr	r0, .L61
 650              	.LVL29:
 651 001e FFF7FEFF 		bl	chDbgPanic
 652              	.LVL30:
 653              	.L55:
 654              		.loc 1 324 0 is_stmt 1
 655 0022 2378     		ldrb	r3, [r4, #0]	@ zero_extendqisi2
 656 0024 022B     		cmp	r3, #2
 657 0026 02D0     		beq	.L56
 658              		.loc 1 324 0 is_stmt 0 discriminator 1
 659 0028 1948     		ldr	r0, .L61+4
 660 002a FFF7FEFF 		bl	chDbgPanic
 661              	.L56:
 662              		.loc 1 327 0 is_stmt 1
 663              	@ 327 "../chibios_2.4.x/os/hal/src/i2c.c" 1
 664 002e FFF7FEFF 		bl      _port_lock
 665              	@ 0 "" 2
 666              		.thumb
 667 0032 FFF7FEFF 		bl	dbg_check_lock
 668              		.loc 1 328 0
 669 0036 0021     		movs	r1, #0
 670              		.loc 1 329 0
 671 0038 0420     		movs	r0, #4
 672              		.loc 1 328 0
 673 003a A160     		str	r1, [r4, #8]
ARM GAS  C:\DOCUME~1\z_80\LOCALS~1\Temp\ccsaqqWa.s 			page 13


 674              		.loc 1 329 0
 675 003c 2070     		strb	r0, [r4, #0]
 676              		.loc 1 330 0
 677 003e 2B46     		mov	r3, r5
 678 0040 2046     		mov	r0, r4
 679 0042 4146     		mov	r1, r8
 680 0044 4A46     		mov	r2, r9
 681 0046 CDF800A0 		str	sl, [sp, #0]
 682 004a 0196     		str	r6, [sp, #4]
 683 004c 0297     		str	r7, [sp, #8]
 684 004e FFF7FEFF 		bl	i2c_lld_slave_receive_timeout
 685              		.loc 1 332 0
 686 0052 B0F1FF3F 		cmp	r0, #-1
 687              		.loc 1 330 0
 688 0056 0546     		mov	r5, r0
 689              	.LVL31:
 690              		.loc 1 332 0
 691 0058 14D0     		beq	.L60
 692              		.loc 1 335 0
 693 005a 0223     		movs	r3, #2
 694 005c 2370     		strb	r3, [r4, #0]
 695              	.L58:
 696              		.loc 1 336 0
 697 005e FFF7FEFF 		bl	dbg_check_unlock
 698              	.LVL32:
 699              	@ 336 "../chibios_2.4.x/os/hal/src/i2c.c" 1
 700 0062 FFF7FEFF 		bl      _port_unlock
 701              	@ 0 "" 2
 702              		.loc 1 339 0
 703              		.thumb
 704 0066 2846     		mov	r0, r5
 705 0068 04B0     		add	sp, sp, #16
 706 006a BDE8F087 		pop	{r4, r5, r6, r7, r8, r9, sl, pc}
 707              	.LVL33:
 708              	.L59:
 709              		.loc 1 318 0 discriminator 3
 710 006e 002B     		cmp	r3, #0
 711 0070 D4D0     		beq	.L53
 712              		.loc 1 318 0 is_stmt 0 discriminator 4
 713 0072 002A     		cmp	r2, #0
 714 0074 D2D0     		beq	.L53
 715              		.loc 1 318 0 discriminator 5
 716 0076 16B1     		cbz	r6, .L54
 717              		.loc 1 318 0 discriminator 6
 718 0078 BAF1000F 		cmp	sl, #0
 719 007c CED0     		beq	.L53
 720              	.L54:
 721              		.loc 1 318 0 discriminator 7
 722 007e 002F     		cmp	r7, #0
 723 0080 CFD1     		bne	.L55
 724 0082 CBE7     		b	.L53
 725              	.LVL34:
 726              	.L60:
 727              		.loc 1 333 0 is_stmt 1
 728 0084 0522     		movs	r2, #5
 729 0086 2270     		strb	r2, [r4, #0]
 730 0088 E9E7     		b	.L58
ARM GAS  C:\DOCUME~1\z_80\LOCALS~1\Temp\ccsaqqWa.s 			page 14


 731              	.L62:
 732 008a 00BF     		.align	2
 733              	.L61:
 734 008c 50000000 		.word	.LC5
 735 0090 70000000 		.word	.LC6
 736              		.cfi_endproc
 737              	.LFE64:
 738              		.size	i2cSlaveReceiveTimeout, .-i2cSlaveReceiveTimeout
 739 0094 AFF30080 		.section	.text.i2cSlaveTransmitTimeout,"ax",%progbits
 739      AFF30080 
 739      AFF30080 
 740              		.align	2
 741              		.p2align 4,,15
 742              		.global	i2cSlaveTransmitTimeout
 743              		.thumb
 744              		.thumb_func
 745              		.type	i2cSlaveTransmitTimeout, %function
 746              	i2cSlaveTransmitTimeout:
 747              	.LFB65:
 748              		.loc 1 346 0
 749              		.cfi_startproc
 750              		@ args = 12, pretend = 0, frame = 0
 751              		@ frame_needed = 0, uses_anonymous_args = 0
 752              	.LVL35:
 753 0000 2DE9F047 		push	{r4, r5, r6, r7, r8, r9, sl, lr}
 754              	.LCFI11:
 755              		.cfi_def_cfa_offset 32
 756 0004 84B0     		sub	sp, sp, #16
 757              	.LCFI12:
 758              		.cfi_def_cfa_offset 48
 759              		.loc 1 349 0
 760 0006 0446     		mov	r4, r0
 761              		.cfi_offset 14, -4
 762              		.cfi_offset 10, -8
 763              		.cfi_offset 9, -12
 764              		.cfi_offset 8, -16
 765              		.cfi_offset 7, -20
 766              		.cfi_offset 6, -24
 767              		.cfi_offset 5, -28
 768              		.cfi_offset 4, -32
 769              		.loc 1 346 0
 770 0008 8846     		mov	r8, r1
 771 000a 9146     		mov	r9, r2
 772 000c 1D46     		mov	r5, r3
 773 000e DDF830A0 		ldr	sl, [sp, #48]
 774 0012 0D9E     		ldr	r6, [sp, #52]
 775 0014 0E9F     		ldr	r7, [sp, #56]
 776              		.loc 1 349 0
 777 0016 08B1     		cbz	r0, .L64
 778              		.loc 1 349 0 is_stmt 0 discriminator 2
 779 0018 0029     		cmp	r1, #0
 780 001a 28D1     		bne	.L70
 781              	.L64:
 782              		.loc 1 349 0 discriminator 1
 783 001c 1B48     		ldr	r0, .L72
 784              	.LVL36:
 785 001e FFF7FEFF 		bl	chDbgPanic
ARM GAS  C:\DOCUME~1\z_80\LOCALS~1\Temp\ccsaqqWa.s 			page 15


 786              	.LVL37:
 787              	.L66:
 788              		.loc 1 355 0 is_stmt 1
 789 0022 2378     		ldrb	r3, [r4, #0]	@ zero_extendqisi2
 790 0024 022B     		cmp	r3, #2
 791 0026 02D0     		beq	.L67
 792              		.loc 1 355 0 is_stmt 0 discriminator 1
 793 0028 1948     		ldr	r0, .L72+4
 794 002a FFF7FEFF 		bl	chDbgPanic
 795              	.L67:
 796              		.loc 1 358 0 is_stmt 1
 797              	@ 358 "../chibios_2.4.x/os/hal/src/i2c.c" 1
 798 002e FFF7FEFF 		bl      _port_lock
 799              	@ 0 "" 2
 800              		.thumb
 801 0032 FFF7FEFF 		bl	dbg_check_lock
 802              		.loc 1 359 0
 803 0036 0021     		movs	r1, #0
 804              		.loc 1 360 0
 805 0038 0320     		movs	r0, #3
 806              		.loc 1 359 0
 807 003a A160     		str	r1, [r4, #8]
 808              		.loc 1 360 0
 809 003c 2070     		strb	r0, [r4, #0]
 810              		.loc 1 361 0
 811 003e 2B46     		mov	r3, r5
 812 0040 2046     		mov	r0, r4
 813 0042 4146     		mov	r1, r8
 814 0044 4A46     		mov	r2, r9
 815 0046 CDF800A0 		str	sl, [sp, #0]
 816 004a 0196     		str	r6, [sp, #4]
 817 004c 0297     		str	r7, [sp, #8]
 818 004e FFF7FEFF 		bl	i2c_lld_slave_transmit_timeout
 819              		.loc 1 363 0
 820 0052 B0F1FF3F 		cmp	r0, #-1
 821              		.loc 1 361 0
 822 0056 0546     		mov	r5, r0
 823              	.LVL38:
 824              		.loc 1 363 0
 825 0058 14D0     		beq	.L71
 826              		.loc 1 366 0
 827 005a 0223     		movs	r3, #2
 828 005c 2370     		strb	r3, [r4, #0]
 829              	.L69:
 830              		.loc 1 367 0
 831 005e FFF7FEFF 		bl	dbg_check_unlock
 832              	.LVL39:
 833              	@ 367 "../chibios_2.4.x/os/hal/src/i2c.c" 1
 834 0062 FFF7FEFF 		bl      _port_unlock
 835              	@ 0 "" 2
 836              		.loc 1 370 0
 837              		.thumb
 838 0066 2846     		mov	r0, r5
 839 0068 04B0     		add	sp, sp, #16
 840 006a BDE8F087 		pop	{r4, r5, r6, r7, r8, r9, sl, pc}
 841              	.LVL40:
 842              	.L70:
ARM GAS  C:\DOCUME~1\z_80\LOCALS~1\Temp\ccsaqqWa.s 			page 16


 843              		.loc 1 349 0 discriminator 3
 844 006e 002B     		cmp	r3, #0
 845 0070 D4D0     		beq	.L64
 846              		.loc 1 349 0 is_stmt 0 discriminator 4
 847 0072 002A     		cmp	r2, #0
 848 0074 D2D0     		beq	.L64
 849              		.loc 1 349 0 discriminator 5
 850 0076 16B1     		cbz	r6, .L65
 851              		.loc 1 349 0 discriminator 6
 852 0078 BAF1000F 		cmp	sl, #0
 853 007c CED0     		beq	.L64
 854              	.L65:
 855              		.loc 1 349 0 discriminator 7
 856 007e 002F     		cmp	r7, #0
 857 0080 CFD1     		bne	.L66
 858 0082 CBE7     		b	.L64
 859              	.LVL41:
 860              	.L71:
 861              		.loc 1 364 0 is_stmt 1
 862 0084 0522     		movs	r2, #5
 863 0086 2270     		strb	r2, [r4, #0]
 864 0088 E9E7     		b	.L69
 865              	.L73:
 866 008a 00BF     		.align	2
 867              	.L72:
 868 008c 50000000 		.word	.LC5
 869 0090 70000000 		.word	.LC6
 870              		.cfi_endproc
 871              	.LFE65:
 872              		.size	i2cSlaveTransmitTimeout, .-i2cSlaveTransmitTimeout
 873 0094 AFF30080 		.section	.rodata.str1.4,"aMS",%progbits,1
 873      AFF30080 
 873      AFF30080 
 874              		.align	2
 875              	.LC0:
 876 0000 22693263 		.ascii	"\"i2cStart\"()\000"
 876      53746172 
 876      74222829 
 876      00
 877 000d 000000   		.space	3
 878              	.LC1:
 879 0010 69326353 		.ascii	"i2cStart(), #1\000"
 879      74617274 
 879      28292C20 
 879      233100
 880 001f 00       		.space	1
 881              	.LC2:
 882 0020 22693263 		.ascii	"\"i2cStop\"()\000"
 882      53746F70 
 882      22282900 
 883              	.LC3:
 884 002c 69326353 		.ascii	"i2cStop(), #1\000"
 884      746F7028 
 884      292C2023 
 884      3100
 885 003a 0000     		.space	2
 886              	.LC4:
ARM GAS  C:\DOCUME~1\z_80\LOCALS~1\Temp\ccsaqqWa.s 			page 17


 887 003c 22693263 		.ascii	"\"i2cGetErrors\"()\000"
 887      47657445 
 887      72726F72 
 887      73222829 
 887      00
 888 004d 000000   		.space	3
 889              	.LC5:
 890 0050 22693263 		.ascii	"\"i2cMasterTransmitTimeout\"()\000"
 890      4D617374 
 890      65725472 
 890      616E736D 
 890      69745469 
 891 006d 000000   		.space	3
 892              	.LC6:
 893 0070 6932634D 		.ascii	"i2cMasterTransmitTimeout(), #1\000"
 893      61737465 
 893      72547261 
 893      6E736D69 
 893      7454696D 
 894 008f 00       		.space	1
 895              	.LC7:
 896 0090 22693263 		.ascii	"\"i2cMasterReceiveTimeout\"()\000"
 896      4D617374 
 896      65725265 
 896      63656976 
 896      6554696D 
 897              	.LC8:
 898 00ac 6932634D 		.ascii	"i2cMasterReceive(), #1\000"
 898      61737465 
 898      72526563 
 898      65697665 
 898      28292C20 
 899 00c3 00       		.space	1
 900              	.LC9:
 901 00c4 22693263 		.ascii	"\"i2cAcquireBus\"()\000"
 901      41637175 
 901      69726542 
 901      75732228 
 901      2900
 902 00d6 0000     		.space	2
 903              	.LC10:
 904 00d8 22693263 		.ascii	"\"i2cReleaseBus\"()\000"
 904      52656C65 
 904      61736542 
 904      75732228 
 904      2900
 905 00ea 0000     		.text
 906              	.Letext0: