ARM GAS  /tmp/ccHbW5dC.s 			page 1


   1              		.syntax unified
   2              		.cpu cortex-m3
   3              		.fpu softvfp
   4              		.eabi_attribute 20, 1
   5              		.eabi_attribute 21, 1
   6              		.eabi_attribute 23, 3
   7              		.eabi_attribute 24, 1
   8              		.eabi_attribute 25, 1
   9              		.eabi_attribute 26, 1
  10              		.eabi_attribute 30, 2
  11              		.eabi_attribute 18, 4
  12              		.thumb
  13              		.file	"i2c_lld.c"
  20 0000 A5060000 		.text
  20      02008E02 
  20      00000201 
  20      FB0E0D00 
  20      01010101 
  21              	.Ltext0:
  22              		.cfi_sections	.debug_frame
  23              		.section	.text.i2c_lld_abort_operation,"ax",%progbits
  24              		.align	2
  25              		.p2align 4,,15
  26              		.thumb
  27              		.thumb_func
  28              		.type	i2c_lld_abort_operation, %function
  29              	i2c_lld_abort_operation:
  30              	.LFB55:
  31              		.file 1 "../chibios_2.4.x/os/hal/platforms/STM32/i2c_lld.c"
  32              		.loc 1 151 0
  33              		.cfi_startproc
  34              		@ args = 0, pretend = 0, frame = 0
  35              		@ frame_needed = 0, uses_anonymous_args = 0
  36              		@ link register save eliminated.
  37              	.LVL0:
  38              		.loc 1 161 0
  39 0000 C26A     		ldr	r2, [r0, #44]
  40              		.loc 1 152 0
  41 0002 036B     		ldr	r3, [r0, #48]
  42              	.LVL1:
  43              		.loc 1 151 0
  44 0004 30B4     		push	{r4, r5}
  45              	.LCFI0:
  46              		.cfi_def_cfa_offset 8
  47              		.loc 1 156 0
  48 0006 0021     		movs	r1, #0
  49              		.loc 1 161 0
  50 0008 1468     		ldr	r4, [r2, #0]
  51              		.cfi_offset 5, -4
  52              		.cfi_offset 4, -8
  53              		.loc 1 155 0
ARM GAS  /tmp/ccHbW5dC.s 			page 2


  54 000a 48F20005 		movw	r5, 32768	@ movhi
  55 000e 1D80     		strh	r5, [r3, #0]	@ movhi
  56              		.loc 1 156 0
  57 0010 1980     		strh	r1, [r3, #0]	@ movhi
  58              		.loc 1 157 0
  59 0012 9980     		strh	r1, [r3, #4]	@ movhi
  60              		.loc 1 158 0
  61 0014 9982     		strh	r1, [r3, #20]	@ movhi
  62              		.loc 1 161 0
  63 0016 2368     		ldr	r3, [r4, #0]
  64 0018 0F21     		movs	r1, #15
  65 001a 23F00103 		bic	r3, r3, #1
  66 001e 2360     		str	r3, [r4, #0]
  67 0020 147A     		ldrb	r4, [r2, #8]	@ zero_extendqisi2
  68              		.loc 1 162 0
  69 0022 836A     		ldr	r3, [r0, #40]
  70              		.loc 1 161 0
  71 0024 11FA04F4 		lsls	r4, r1, r4
  72 0028 5068     		ldr	r0, [r2, #4]
  73              	.LVL2:
  74              		.loc 1 162 0
  75 002a 1A68     		ldr	r2, [r3, #0]
  76              		.loc 1 161 0
  77 002c 0460     		str	r4, [r0, #0]
  78              		.loc 1 162 0
  79 002e 1468     		ldr	r4, [r2, #0]
  80 0030 5868     		ldr	r0, [r3, #4]
  81 0032 24F00104 		bic	r4, r4, #1
  82 0036 1460     		str	r4, [r2, #0]
  83 0038 1B7A     		ldrb	r3, [r3, #8]	@ zero_extendqisi2
  84 003a 9940     		lsls	r1, r1, r3
  85 003c 0160     		str	r1, [r0, #0]
  86              		.loc 1 163 0
  87 003e 30BC     		pop	{r4, r5}
  88 0040 7047     		bx	lr
  89              		.cfi_endproc
  90              	.LFE55:
  91              		.size	i2c_lld_abort_operation, .-i2c_lld_abort_operation
  92 0042 00BFAFF3 		.section	.text.i2c_lld_safety_timeout,"ax",%progbits
  92      0080AFF3 
  92      0080AFF3 
  92      0080
  93              		.align	2
  94              		.p2align 4,,15
  95              		.thumb
  96              		.thumb_func
  97              		.type	i2c_lld_safety_timeout, %function
  98              	i2c_lld_safety_timeout:
  99              	.LFB56:
 100              		.loc 1 172 0
 101              		.cfi_startproc
 102              		@ args = 0, pretend = 0, frame = 0
 103              		@ frame_needed = 0, uses_anonymous_args = 0
 104              	.LVL3:
 105 0000 70B5     		push	{r4, r5, r6, lr}
 106              	.LCFI1:
 107              		.cfi_def_cfa_offset 16
ARM GAS  /tmp/ccHbW5dC.s 			page 3


 108              		.loc 1 175 0
 109 0002 C469     		ldr	r4, [r0, #28]
 110              		.cfi_offset 14, -4
 111              		.cfi_offset 6, -8
 112              		.cfi_offset 5, -12
 113              		.cfi_offset 4, -16
 114              		.loc 1 172 0
 115 0004 0546     		mov	r5, r0
 116              	.LVL4:
 117              		.loc 1 175 0
 118 0006 5CB1     		cbz	r4, .L2
 119              	.LVL5:
 120              	.LBB9:
 121              		.loc 1 177 0
 122 0008 FFF7FEFF 		bl	i2c_lld_abort_operation
 123              	.LVL6:
 124              		.loc 1 178 0
 125 000c 0020     		movs	r0, #0
 126 000e E861     		str	r0, [r5, #28]
 127              		.loc 1 179 0
 128 0010 4FF0FF33 		mov	r3, #-1
 129              		.loc 1 180 0
 130 0014 2046     		mov	r0, r4
 131              		.loc 1 179 0
 132 0016 A362     		str	r3, [r4, #40]
 133              	.LBE9:
 134              		.loc 1 182 0
 135 0018 BDE87040 		pop	{r4, r5, r6, lr}
 136              	.LBB10:
 137              		.loc 1 180 0
 138 001c FFF7FEBF 		b	chSchReadyI
 139              	.LVL7:
 140              	.L2:
 141 0020 70BD     		pop	{r4, r5, r6, pc}
 142              	.LBE10:
 143              		.cfi_endproc
 144              	.LFE56:
 145              		.size	i2c_lld_safety_timeout, .-i2c_lld_safety_timeout
 146 0022 00BFAFF3 		.section	.text.i2c_lld_serve_tx_end_irq,"ax",%progbits
 146      0080AFF3 
 146      0080AFF3 
 146      0080
 147              		.align	2
 148              		.p2align 4,,15
 149              		.thumb
 150              		.thumb_func
 151              		.type	i2c_lld_serve_tx_end_irq, %function
 152              	i2c_lld_serve_tx_end_irq:
 153              	.LFB61:
 154              		.loc 1 378 0
 155              		.cfi_startproc
 156              		@ args = 0, pretend = 0, frame = 0
 157              		@ frame_needed = 0, uses_anonymous_args = 0
 158              	.LVL8:
 159              		.loc 1 383 0
 160 0000 11F0080F 		tst	r1, #8
 161              		.loc 1 378 0
ARM GAS  /tmp/ccHbW5dC.s 			page 4


 162 0004 38B5     		push	{r3, r4, r5, lr}
 163              	.LCFI2:
 164              		.cfi_def_cfa_offset 16
 165              		.loc 1 378 0
 166 0006 0546     		mov	r5, r0
 167              		.cfi_offset 14, -4
 168              		.cfi_offset 5, -8
 169              		.cfi_offset 4, -12
 170              		.cfi_offset 3, -16
 171              		.loc 1 379 0
 172 0008 046B     		ldr	r4, [r0, #48]
 173              	.LVL9:
 174              		.loc 1 383 0
 175 000a 01D0     		beq	.L6
 176              		.loc 1 384 0
 177 000c FFF7FEFF 		bl	port_halt
 178              	.LVL10:
 179              	.L6:
 180              		.loc 1 390 0
 181 0010 EB6A     		ldr	r3, [r5, #44]
 182 0012 1A68     		ldr	r2, [r3, #0]
 183 0014 5968     		ldr	r1, [r3, #4]
 184 0016 1068     		ldr	r0, [r2, #0]
 185 0018 20F00100 		bic	r0, r0, #1
 186 001c 1060     		str	r0, [r2, #0]
 187 001e 1B7A     		ldrb	r3, [r3, #8]	@ zero_extendqisi2
 188 0020 0F20     		movs	r0, #15
 189 0022 10FA03F2 		lsls	r2, r0, r3
 190 0026 0A60     		str	r2, [r1, #0]
 191              		.loc 1 394 0
 192 0028 A188     		ldrh	r1, [r4, #4]
 193 002a 88B2     		uxth	r0, r1
 194 002c 40F40073 		orr	r3, r0, #512
 195 0030 A380     		strh	r3, [r4, #4]	@ movhi
 196              		.loc 1 395 0
 197 0032 38BD     		pop	{r3, r4, r5, pc}
 198              		.cfi_endproc
 199              	.LFE61:
 200              		.size	i2c_lld_serve_tx_end_irq, .-i2c_lld_serve_tx_end_irq
 201 0034 AFF30080 		.section	.text.i2c_lld_serve_rx_end_irq,"ax",%progbits
 201      AFF30080 
 201      AFF30080 
 202              		.align	2
 203              		.p2align 4,,15
 204              		.thumb
 205              		.thumb_func
 206              		.type	i2c_lld_serve_rx_end_irq, %function
 207              	i2c_lld_serve_rx_end_irq:
 208              	.LFB60:
 209              		.loc 1 351 0
 210              		.cfi_startproc
 211              		@ args = 0, pretend = 0, frame = 0
 212              		@ frame_needed = 0, uses_anonymous_args = 0
 213              	.LVL11:
 214              		.loc 1 356 0
 215 0000 11F0080F 		tst	r1, #8
 216              		.loc 1 351 0
ARM GAS  /tmp/ccHbW5dC.s 			page 5


 217 0004 38B5     		push	{r3, r4, r5, lr}
 218              	.LCFI3:
 219              		.cfi_def_cfa_offset 16
 220              		.loc 1 351 0
 221 0006 0446     		mov	r4, r0
 222              		.cfi_offset 14, -4
 223              		.cfi_offset 5, -8
 224              		.cfi_offset 4, -12
 225              		.cfi_offset 3, -16
 226              		.loc 1 352 0
 227 0008 056B     		ldr	r5, [r0, #48]
 228              	.LVL12:
 229              		.loc 1 356 0
 230 000a 2FD1     		bne	.L10
 231              	.LVL13:
 232              	.L8:
 233              		.loc 1 363 0
 234 000c A36A     		ldr	r3, [r4, #40]
 235 000e 1A68     		ldr	r2, [r3, #0]
 236 0010 5968     		ldr	r1, [r3, #4]
 237 0012 1068     		ldr	r0, [r2, #0]
 238 0014 20F00100 		bic	r0, r0, #1
 239 0018 1060     		str	r0, [r2, #0]
 240 001a 1B7A     		ldrb	r3, [r3, #8]	@ zero_extendqisi2
 241 001c 0F22     		movs	r2, #15
 242 001e 12FA03F0 		lsls	r0, r2, r3
 243 0022 0860     		str	r0, [r1, #0]
 244              		.loc 1 365 0
 245 0024 B5F804E0 		ldrh	lr, [r5, #4]
 246 0028 2EF48053 		bic	r3, lr, #4096
 247 002c 1A04     		lsls	r2, r3, #16
 248 002e 110C     		lsrs	r1, r2, #16
 249 0030 A980     		strh	r1, [r5, #4]	@ movhi
 250              		.loc 1 366 0
 251 0032 B5F800C0 		ldrh	ip, [r5, #0]
 252 0036 2CF48060 		bic	r0, ip, #1024
 253 003a 0304     		lsls	r3, r0, #16
 254 003c 1A0C     		lsrs	r2, r3, #16
 255 003e 2A80     		strh	r2, [r5, #0]	@ movhi
 256              		.loc 1 367 0
 257 0040 2988     		ldrh	r1, [r5, #0]
 258 0042 88B2     		uxth	r0, r1
 259 0044 40F40073 		orr	r3, r0, #512
 260 0048 2B80     		strh	r3, [r5, #0]	@ movhi
 261              		.loc 1 368 0
 262              	@ 368 "../chibios_2.4.x/os/hal/platforms/STM32/i2c_lld.c" 1
 263 004a FFF7FEFF 		bl      _port_lock
 264              	@ 0 "" 2
 265              		.thumb
 266 004e FFF7FEFF 		bl	dbg_check_lock_from_isr
 267 0052 E369     		ldr	r3, [r4, #28]
 268 0054 2BB1     		cbz	r3, .L9
 269              	.LVL14:
 270              	.LBB11:
 271              		.loc 1 368 0 is_stmt 0 discriminator 1
 272 0056 0021     		movs	r1, #0
 273 0058 E161     		str	r1, [r4, #28]
ARM GAS  /tmp/ccHbW5dC.s 			page 6


 274 005a 1846     		mov	r0, r3
 275 005c 9962     		str	r1, [r3, #40]
 276 005e FFF7FEFF 		bl	chSchReadyI
 277              	.LVL15:
 278              	.L9:
 279              	.LBE11:
 280              		.loc 1 368 0 discriminator 2
 281 0062 FFF7FEFF 		bl	dbg_check_unlock_from_isr
 282              	@ 368 "../chibios_2.4.x/os/hal/platforms/STM32/i2c_lld.c" 1
 283 0066 FFF7FEFF 		bl      _port_unlock
 284              	@ 0 "" 2
 285              		.loc 1 369 0 is_stmt 1 discriminator 2
 286              		.thumb
 287 006a 38BD     		pop	{r3, r4, r5, pc}
 288              	.LVL16:
 289              	.L10:
 290              		.loc 1 357 0
 291 006c FFF7FEFF 		bl	port_halt
 292              	.LVL17:
 293 0070 CCE7     		b	.L8
 294              		.cfi_endproc
 295              	.LFE60:
 296              		.size	i2c_lld_serve_rx_end_irq, .-i2c_lld_serve_rx_end_irq
 297 0072 00BFAFF3 		.section	.text.VectorBC,"ax",%progbits
 297      0080AFF3 
 297      0080AFF3 
 297      0080
 298              		.align	2
 299              		.p2align 4,,15
 300              		.global	VectorBC
 301              		.thumb
 302              		.thumb_func
 303              		.type	VectorBC, %function
 304              	VectorBC:
 305              	.LFB63:
 306              		.loc 1 464 0
 307              		.cfi_startproc
 308              		@ args = 0, pretend = 0, frame = 0
 309              		@ frame_needed = 0, uses_anonymous_args = 0
 310 0000 2DE9F041 		push	{r4, r5, r6, r7, r8, lr}
 311              	.LCFI4:
 312              		.cfi_def_cfa_offset 24
 313              	.LBB15:
 314              	.LBB17:
 315              		.loc 1 301 0
 316 0004 3F4D     		ldr	r5, .L21
 317              		.cfi_offset 14, -4
 318              		.cfi_offset 8, -8
 319              		.cfi_offset 7, -12
 320              		.cfi_offset 6, -16
 321              		.cfi_offset 5, -20
 322              		.cfi_offset 4, -24
 323              	.LBE17:
 324              	.LBE15:
 325              		.loc 1 466 0
 326 0006 FFF7FEFF 		bl	dbg_check_enter_isr
 327              	.LVL18:
ARM GAS  /tmp/ccHbW5dC.s 			page 7


 328              	.LBB20:
 329              	.LBB16:
 330              		.loc 1 301 0
 331 000a 2C6B     		ldr	r4, [r5, #48]
 332              	.LVL19:
 333              		.loc 1 308 0
 334 000c 3E4A     		ldr	r2, .L21+4
 335              		.loc 1 302 0
 336 000e 208B     		ldrh	r0, [r4, #24]
 337              	.LVL20:
 338              		.loc 1 303 0
 339 0010 A68A     		ldrh	r6, [r4, #20]
 340 0012 B6B2     		uxth	r6, r6
 341              	.LVL21:
 342              		.loc 1 308 0
 343 0014 46EA0043 		orr	r3, r6, r0, lsl #16
 344 0018 23F07F43 		bic	r3, r3, #-16777216
 345 001c 9342     		cmp	r3, r2
 346 001e 35D0     		beq	.L14
 347 0020 0ED8     		bhi	.L17
 348 0022 013A     		subs	r2, r2, #1
 349 0024 9342     		cmp	r3, r2
 350 0026 01D1     		bne	.L12
 351              		.loc 1 310 0
 352 0028 2B8C     		ldrh	r3, [r5, #32]
 353 002a 2382     		strh	r3, [r4, #16]	@ movhi
 354              	.LVL22:
 355              	.L12:
 356              		.loc 1 339 0
 357 002c 16F00A0F 		tst	r6, #10
 358              		.loc 1 340 0
 359 0030 18BF     		it	ne
 360 0032 238B     		ldrhne	r3, [r4, #24]
 361              	.L19:
 362              	.LBE16:
 363              	.LBE20:
 364              		.loc 1 470 0
 365 0034 FFF7FEFF 		bl	dbg_check_leave_isr
 366              		.loc 1 471 0
 367 0038 BDE8F041 		pop	{r4, r5, r6, r7, r8, lr}
 368              		.loc 1 470 0
 369 003c FFF7FEBF 		b	_port_irq_epilogue
 370              	.LVL23:
 371              	.L17:
 372              	.LBB21:
 373              	.LBB19:
 374              		.loc 1 308 0
 375 0040 324A     		ldr	r2, .L21+8
 376 0042 9342     		cmp	r3, r2
 377 0044 14D0     		beq	.L15
 378 0046 911C     		adds	r1, r2, #2
 379 0048 8B42     		cmp	r3, r1
 380 004a EFD1     		bne	.L12
 381              		.loc 1 325 0
 382 004c AB6A     		ldr	r3, [r5, #40]
 383 004e 1F68     		ldr	r7, [r3, #0]
 384 0050 7F68     		ldr	r7, [r7, #4]
ARM GAS  /tmp/ccHbW5dC.s 			page 8


 385 0052 002F     		cmp	r7, #0
 386 0054 39D0     		beq	.L18
 387              		.loc 1 328 0
 388 0056 B4F800C0 		ldrh	ip, [r4, #0]
 389              		.loc 1 327 0
 390 005a 2A8C     		ldrh	r2, [r5, #32]
 391              		.loc 1 328 0
 392 005c 1FFA8CF0 		uxth	r0, ip
 393              	.LVL24:
 394              		.loc 1 327 0
 395 0060 42F00101 		orr	r1, r2, #1
 396              		.loc 1 328 0
 397 0064 40F4A06E 		orr	lr, r0, #1280
 398              		.loc 1 327 0
 399 0068 2984     		strh	r1, [r5, #32]	@ movhi
 400              		.loc 1 328 0
 401 006a A4F800E0 		strh	lr, [r4, #0]	@ movhi
 402 006e E1E7     		b	.L19
 403              	.LVL25:
 404              	.L15:
 405              		.loc 1 320 0
 406 0070 B4F804C0 		ldrh	ip, [r4, #4]
 407              		.loc 1 321 0
 408 0074 E86A     		ldr	r0, [r5, #44]
 409              	.LVL26:
 410              		.loc 1 320 0
 411 0076 2CF40072 		bic	r2, ip, #512
 412 007a 1104     		lsls	r1, r2, #16
 413              		.loc 1 321 0
 414 007c 0068     		ldr	r0, [r0, #0]
 415              		.loc 1 320 0
 416 007e 0B0C     		lsrs	r3, r1, #16
 417 0080 A380     		strh	r3, [r4, #4]	@ movhi
 418              		.loc 1 321 0
 419 0082 0268     		ldr	r2, [r0, #0]
 420 0084 42F00103 		orr	r3, r2, #1
 421 0088 0360     		str	r3, [r0, #0]
 422 008a CFE7     		b	.L12
 423              	.LVL27:
 424              	.L14:
 425              		.loc 1 313 0
 426 008c B4F804C0 		ldrh	ip, [r4, #4]
 427              		.loc 1 314 0
 428 0090 A86A     		ldr	r0, [r5, #40]
 429              	.LVL28:
 430              		.loc 1 313 0
 431 0092 2CF40072 		bic	r2, ip, #512
 432 0096 1104     		lsls	r1, r2, #16
 433              		.loc 1 314 0
 434 0098 0068     		ldr	r0, [r0, #0]
 435              		.loc 1 313 0
 436 009a 0B0C     		lsrs	r3, r1, #16
 437 009c A380     		strh	r3, [r4, #4]	@ movhi
 438              		.loc 1 314 0
 439 009e 0168     		ldr	r1, [r0, #0]
 440 00a0 41F00102 		orr	r2, r1, #1
 441 00a4 0260     		str	r2, [r0, #0]
ARM GAS  /tmp/ccHbW5dC.s 			page 9


 442              		.loc 1 315 0
 443 00a6 A388     		ldrh	r3, [r4, #4]
 444 00a8 1FFA83FE 		uxth	lr, r3
 445 00ac 4EF4805C 		orr	ip, lr, #4096
 446 00b0 A4F804C0 		strh	ip, [r4, #4]	@ movhi
 447              		.loc 1 316 0
 448 00b4 4368     		ldr	r3, [r0, #4]
 449 00b6 012B     		cmp	r3, #1
 450 00b8 B8D8     		bhi	.L12
 451              		.loc 1 317 0
 452 00ba B4F800E0 		ldrh	lr, [r4, #0]
 453 00be 2EF48061 		bic	r1, lr, #1024
 454 00c2 0B04     		lsls	r3, r1, #16
 455 00c4 1B0C     		lsrs	r3, r3, #16
 456 00c6 2380     		strh	r3, [r4, #0]	@ movhi
 457 00c8 B0E7     		b	.L12
 458              	.LVL29:
 459              	.L18:
 460              		.loc 1 331 0
 461 00ca B4F804C0 		ldrh	ip, [r4, #4]
 462 00ce 2CF40073 		bic	r3, ip, #512
 463 00d2 1A04     		lsls	r2, r3, #16
 464 00d4 100C     		lsrs	r0, r2, #16
 465              	.LVL30:
 466 00d6 A080     		strh	r0, [r4, #4]	@ movhi
 467              		.loc 1 332 0
 468 00d8 2188     		ldrh	r1, [r4, #0]
 469 00da 1FFA81FE 		uxth	lr, r1
 470 00de 4EF40073 		orr	r3, lr, #512
 471 00e2 2380     		strh	r3, [r4, #0]	@ movhi
 472              		.loc 1 333 0
 473              	@ 333 "../chibios_2.4.x/os/hal/platforms/STM32/i2c_lld.c" 1
 474 00e4 FFF7FEFF 		bl      _port_lock
 475              	@ 0 "" 2
 476              		.thumb
 477 00e8 FFF7FEFF 		bl	dbg_check_lock_from_isr
 478 00ec E869     		ldr	r0, [r5, #28]
 479 00ee 18B1     		cbz	r0, .L20
 480              	.LVL31:
 481              	.LBB18:
 482 00f0 8762     		str	r7, [r0, #40]
 483 00f2 EF61     		str	r7, [r5, #28]
 484 00f4 FFF7FEFF 		bl	chSchReadyI
 485              	.LVL32:
 486              	.L20:
 487              	.LBE18:
 488 00f8 FFF7FEFF 		bl	dbg_check_unlock_from_isr
 489              	@ 333 "../chibios_2.4.x/os/hal/platforms/STM32/i2c_lld.c" 1
 490 00fc FFF7FEFF 		bl      _port_unlock
 491              	@ 0 "" 2
 492              		.thumb
 493 0100 94E7     		b	.L12
 494              	.L22:
 495 0102 00BF     		.align	2
 496              	.L21:
 497 0104 00000000 		.word	.LANCHOR0
 498 0108 02000300 		.word	196610
ARM GAS  /tmp/ccHbW5dC.s 			page 10


 499 010c 82000700 		.word	458882
 500              	.LBE19:
 501              	.LBE21:
 502              		.cfi_endproc
 503              	.LFE63:
 504              		.size	VectorBC, .-VectorBC
 505              		.section	.text.VectorC0,"ax",%progbits
 506              		.align	2
 507              		.p2align 4,,15
 508              		.global	VectorC0
 509              		.thumb
 510              		.thumb_func
 511              		.type	VectorC0, %function
 512              	VectorC0:
 513              	.LFB64:
 514              		.loc 1 476 0
 515              		.cfi_startproc
 516              		@ args = 0, pretend = 0, frame = 0
 517              		@ frame_needed = 0, uses_anonymous_args = 0
 518 0000 2DE9F041 		push	{r4, r5, r6, r7, r8, lr}
 519              	.LCFI5:
 520              		.cfi_def_cfa_offset 24
 521              	.LBB25:
 522              	.LBB27:
 523              		.loc 1 405 0
 524 0004 534D     		ldr	r5, .L36
 525              		.cfi_offset 14, -4
 526              		.cfi_offset 8, -8
 527              		.cfi_offset 7, -12
 528              		.cfi_offset 6, -16
 529              		.cfi_offset 5, -20
 530              		.cfi_offset 4, -24
 531              	.LBE27:
 532              	.LBE25:
 533              		.loc 1 478 0
 534 0006 FFF7FEFF 		bl	dbg_check_enter_isr
 535              	.LVL33:
 536              	.LBB30:
 537              	.LBB26:
 538              		.loc 1 405 0
 539 000a 2C6B     		ldr	r4, [r5, #48]
 540              	.LVL34:
 541              		.loc 1 409 0
 542              	@ 409 "../chibios_2.4.x/os/hal/platforms/STM32/i2c_lld.c" 1
 543 000c FFF7FEFF 		bl      _port_lock
 544              	@ 0 "" 2
 545              		.thumb
 546 0010 FFF7FEFF 		bl	dbg_check_lock_from_isr
 547              	.LVL35:
 548              		.loc 1 410 0
 549 0014 EA6A     		ldr	r2, [r5, #44]
 550              		.loc 1 411 0
 551 0016 AB6A     		ldr	r3, [r5, #40]
 552              		.loc 1 410 0
 553 0018 1068     		ldr	r0, [r2, #0]
 554 001a 5668     		ldr	r6, [r2, #4]
 555 001c 0768     		ldr	r7, [r0, #0]
ARM GAS  /tmp/ccHbW5dC.s 			page 11


 556 001e 0F21     		movs	r1, #15
 557 0020 27F00107 		bic	r7, r7, #1
 558 0024 0760     		str	r7, [r0, #0]
 559 0026 107A     		ldrb	r0, [r2, #8]	@ zero_extendqisi2
 560              		.loc 1 411 0
 561 0028 1A68     		ldr	r2, [r3, #0]
 562              		.loc 1 410 0
 563 002a 11FA00F0 		lsls	r0, r1, r0
 564 002e 3060     		str	r0, [r6, #0]
 565              		.loc 1 411 0
 566 0030 1668     		ldr	r6, [r2, #0]
 567 0032 5868     		ldr	r0, [r3, #4]
 568 0034 26F00106 		bic	r6, r6, #1
 569 0038 1660     		str	r6, [r2, #0]
 570 003a 1A7A     		ldrb	r2, [r3, #8]	@ zero_extendqisi2
 571 003c 9140     		lsls	r1, r1, r2
 572 003e 0160     		str	r1, [r0, #0]
 573              		.loc 1 412 0
 574 0040 FFF7FEFF 		bl	dbg_check_unlock_from_isr
 575              	@ 412 "../chibios_2.4.x/os/hal/platforms/STM32/i2c_lld.c" 1
 576 0044 FFF7FEFF 		bl      _port_unlock
 577              	@ 0 "" 2
 578              	.LVL36:
 579              		.loc 1 416 0
 580              		.thumb
 581 0048 A38A     		ldrh	r3, [r4, #20]
 582 004a 13F48073 		ands	r3, r3, #256
 583 004e 07D0     		beq	.L24
 584              		.loc 1 417 0
 585 0050 B4F814C0 		ldrh	ip, [r4, #20]
 586              		.loc 1 418 0
 587 0054 0123     		movs	r3, #1
 588              		.loc 1 417 0
 589 0056 2CF48070 		bic	r0, ip, #256
 590 005a 0204     		lsls	r2, r0, #16
 591 005c 110C     		lsrs	r1, r2, #16
 592 005e A182     		strh	r1, [r4, #20]	@ movhi
 593              	.LVL37:
 594              	.L24:
 595              		.loc 1 420 0
 596 0060 B4F814E0 		ldrh	lr, [r4, #20]
 597 0064 1EF4007F 		tst	lr, #512
 598 0068 08D0     		beq	.L25
 599              		.loc 1 421 0
 600 006a B4F814C0 		ldrh	ip, [r4, #20]
 601              		.loc 1 422 0
 602 006e 43F00203 		orr	r3, r3, #2
 603              	.LVL38:
 604              		.loc 1 421 0
 605 0072 2CF40070 		bic	r0, ip, #512
 606 0076 0204     		lsls	r2, r0, #16
 607 0078 110C     		lsrs	r1, r2, #16
 608 007a A182     		strh	r1, [r4, #20]	@ movhi
 609              	.LVL39:
 610              	.L25:
 611              		.loc 1 424 0
 612 007c B4F814E0 		ldrh	lr, [r4, #20]
ARM GAS  /tmp/ccHbW5dC.s 			page 12


 613 0080 1EF4806F 		tst	lr, #1024
 614 0084 14D0     		beq	.L26
 615              		.loc 1 425 0
 616 0086 B4F814E0 		ldrh	lr, [r4, #20]
 617              		.loc 1 428 0
 618 008a 43F00403 		orr	r3, r3, #4
 619              	.LVL40:
 620              		.loc 1 425 0
 621 008e 2EF48060 		bic	r0, lr, #1024
 622 0092 0204     		lsls	r2, r0, #16
 623 0094 110C     		lsrs	r1, r2, #16
 624 0096 A182     		strh	r1, [r4, #20]	@ movhi
 625              		.loc 1 426 0
 626 0098 B4F804C0 		ldrh	ip, [r4, #4]
 627 009c 2CF40070 		bic	r0, ip, #512
 628 00a0 0204     		lsls	r2, r0, #16
 629 00a2 110C     		lsrs	r1, r2, #16
 630 00a4 A180     		strh	r1, [r4, #4]	@ movhi
 631              		.loc 1 427 0
 632 00a6 2088     		ldrh	r0, [r4, #0]
 633 00a8 82B2     		uxth	r2, r0
 634 00aa 42F40071 		orr	r1, r2, #512
 635 00ae 2180     		strh	r1, [r4, #0]	@ movhi
 636              	.LVL41:
 637              	.L26:
 638              		.loc 1 430 0
 639 00b0 B4F814C0 		ldrh	ip, [r4, #20]
 640 00b4 1CF4006F 		tst	ip, #2048
 641 00b8 08D0     		beq	.L27
 642              		.loc 1 431 0
 643 00ba B4F814E0 		ldrh	lr, [r4, #20]
 644              		.loc 1 432 0
 645 00be 43F00803 		orr	r3, r3, #8
 646              	.LVL42:
 647              		.loc 1 431 0
 648 00c2 2EF40060 		bic	r0, lr, #2048
 649 00c6 0204     		lsls	r2, r0, #16
 650 00c8 110C     		lsrs	r1, r2, #16
 651 00ca A182     		strh	r1, [r4, #20]	@ movhi
 652              	.LVL43:
 653              	.L27:
 654              		.loc 1 434 0
 655 00cc B4F814C0 		ldrh	ip, [r4, #20]
 656 00d0 1CF4805F 		tst	ip, #4096
 657 00d4 08D0     		beq	.L28
 658              		.loc 1 435 0
 659 00d6 B4F814E0 		ldrh	lr, [r4, #20]
 660              		.loc 1 436 0
 661 00da 43F01003 		orr	r3, r3, #16
 662              	.LVL44:
 663              		.loc 1 435 0
 664 00de 2EF48050 		bic	r0, lr, #4096
 665 00e2 0204     		lsls	r2, r0, #16
 666 00e4 110C     		lsrs	r1, r2, #16
 667 00e6 A182     		strh	r1, [r4, #20]	@ movhi
 668              	.LVL45:
 669              	.L28:
ARM GAS  /tmp/ccHbW5dC.s 			page 13


 670              		.loc 1 438 0
 671 00e8 B4F814C0 		ldrh	ip, [r4, #20]
 672 00ec 1CF4804F 		tst	ip, #16384
 673 00f0 08D0     		beq	.L29
 674              		.loc 1 439 0
 675 00f2 B4F814E0 		ldrh	lr, [r4, #20]
 676              		.loc 1 440 0
 677 00f6 43F02003 		orr	r3, r3, #32
 678              	.LVL46:
 679              		.loc 1 439 0
 680 00fa 2EF48040 		bic	r0, lr, #16384
 681 00fe 0204     		lsls	r2, r0, #16
 682 0100 110C     		lsrs	r1, r2, #16
 683 0102 A182     		strh	r1, [r4, #20]	@ movhi
 684              	.LVL47:
 685              	.L29:
 686              		.loc 1 442 0
 687 0104 A18A     		ldrh	r1, [r4, #20]
 688 0106 0FFA81FC 		sxth	ip, r1
 689 010a BCF1000F 		cmp	ip, #0
 690 010e 06DB     		blt	.L35
 691              		.loc 1 448 0
 692 0110 5BB9     		cbnz	r3, .L31
 693              	.LVL48:
 694              	.L32:
 695              	.LBE26:
 696              	.LBE30:
 697              		.loc 1 482 0
 698 0112 FFF7FEFF 		bl	dbg_check_leave_isr
 699              		.loc 1 483 0
 700 0116 BDE8F041 		pop	{r4, r5, r6, r7, r8, lr}
 701              		.loc 1 482 0
 702 011a FFF7FEBF 		b	_port_irq_epilogue
 703              	.LVL49:
 704              	.L35:
 705              	.LBB31:
 706              	.LBB29:
 707              		.loc 1 443 0
 708 011e A18A     		ldrh	r1, [r4, #20]
 709              		.loc 1 444 0
 710 0120 43F04003 		orr	r3, r3, #64
 711              	.LVL50:
 712              		.loc 1 443 0
 713 0124 4804     		lsls	r0, r1, #17
 714 0126 420C     		lsrs	r2, r0, #17
 715 0128 A282     		strh	r2, [r4, #20]	@ movhi
 716              	.L31:
 717              		.loc 1 449 0
 718 012a AB60     		str	r3, [r5, #8]
 719              		.loc 1 450 0
 720              	@ 450 "../chibios_2.4.x/os/hal/platforms/STM32/i2c_lld.c" 1
 721 012c FFF7FEFF 		bl      _port_lock
 722              	@ 0 "" 2
 723              	.LVL51:
 724              		.thumb
 725 0130 FFF7FEFF 		bl	dbg_check_lock_from_isr
 726              	.LVL52:
ARM GAS  /tmp/ccHbW5dC.s 			page 14


 727 0134 E869     		ldr	r0, [r5, #28]
 728 0136 38B1     		cbz	r0, .L33
 729              	.LVL53:
 730              	.LBB28:
 731 0138 064B     		ldr	r3, .L36
 732 013a 6FF00101 		mvn	r1, #1
 733 013e 0022     		movs	r2, #0
 734 0140 8162     		str	r1, [r0, #40]
 735 0142 DA61     		str	r2, [r3, #28]
 736 0144 FFF7FEFF 		bl	chSchReadyI
 737              	.LVL54:
 738              	.L33:
 739              	.LBE28:
 740 0148 FFF7FEFF 		bl	dbg_check_unlock_from_isr
 741              	@ 450 "../chibios_2.4.x/os/hal/platforms/STM32/i2c_lld.c" 1
 742 014c FFF7FEFF 		bl      _port_unlock
 743              	@ 0 "" 2
 744              		.thumb
 745 0150 DFE7     		b	.L32
 746              	.L37:
 747 0152 00BF     		.align	2
 748              	.L36:
 749 0154 00000000 		.word	.LANCHOR0
 750              	.LBE29:
 751              	.LBE31:
 752              		.cfi_endproc
 753              	.LFE64:
 754              		.size	VectorC0, .-VectorC0
 755 0158 AFF30080 		.section	.text.i2c_lld_init,"ax",%progbits
 755      AFF30080 
 756              		.align	2
 757              		.p2align 4,,15
 758              		.global	i2c_lld_init
 759              		.thumb
 760              		.thumb_func
 761              		.type	i2c_lld_init, %function
 762              	i2c_lld_init:
 763              	.LFB65:
 764              		.loc 1 555 0
 765              		.cfi_startproc
 766              		@ args = 0, pretend = 0, frame = 0
 767              		@ frame_needed = 0, uses_anonymous_args = 0
 768 0000 10B5     		push	{r4, lr}
 769              	.LCFI6:
 770              		.cfi_def_cfa_offset 8
 771              		.loc 1 558 0
 772 0002 074C     		ldr	r4, .L39
 773              		.cfi_offset 14, -4
 774              		.cfi_offset 4, -8
 775 0004 2046     		mov	r0, r4
 776 0006 FFF7FEFF 		bl	i2cObjectInit
 777              		.loc 1 561 0
 778 000a 064B     		ldr	r3, .L39+4
 779              		.loc 1 560 0
 780 000c 0649     		ldr	r1, .L39+8
 781              		.loc 1 562 0
 782 000e A3F10C02 		sub	r2, r3, #12
ARM GAS  /tmp/ccHbW5dC.s 			page 15


 783              		.loc 1 559 0
 784 0012 0020     		movs	r0, #0
 785 0014 E061     		str	r0, [r4, #28]
 786              		.loc 1 560 0
 787 0016 2163     		str	r1, [r4, #48]
 788              		.loc 1 561 0
 789 0018 A362     		str	r3, [r4, #40]
 790              		.loc 1 562 0
 791 001a E262     		str	r2, [r4, #44]
 792              		.loc 1 580 0
 793 001c 10BD     		pop	{r4, pc}
 794              	.L40:
 795 001e 00BF     		.align	2
 796              	.L39:
 797 0020 00000000 		.word	.LANCHOR0
 798 0024 48000000 		.word	_stm32_dma_streams+72
 799 0028 00540040 		.word	1073763328
 800              		.cfi_endproc
 801              	.LFE65:
 802              		.size	i2c_lld_init, .-i2c_lld_init
 803 002c AFF30080 		.section	.text.i2c_lld_start,"ax",%progbits
 804              		.align	2
 805              		.p2align 4,,15
 806              		.global	i2c_lld_start
 807              		.thumb
 808              		.thumb_func
 809              		.type	i2c_lld_start, %function
 810              	i2c_lld_start:
 811              	.LFB66:
 812              		.loc 1 589 0
 813              		.cfi_startproc
 814              		@ args = 0, pretend = 0, frame = 0
 815              		@ frame_needed = 0, uses_anonymous_args = 0
 816              	.LVL55:
 817              		.loc 1 597 0
 818 0000 0278     		ldrb	r2, [r0, #0]	@ zero_extendqisi2
 819              		.loc 1 592 0
 820 0002 8A23     		movs	r3, #138
 821              		.loc 1 597 0
 822 0004 012A     		cmp	r2, #1
 823              		.loc 1 589 0
 824 0006 2DE9F041 		push	{r4, r5, r6, r7, r8, lr}
 825              	.LCFI7:
 826              		.cfi_def_cfa_offset 24
 827              		.loc 1 589 0
 828 000a 0446     		mov	r4, r0
 829              		.cfi_offset 14, -4
 830              		.cfi_offset 8, -8
 831              		.cfi_offset 7, -12
 832              		.cfi_offset 6, -16
 833              		.cfi_offset 5, -20
 834              		.cfi_offset 4, -24
 835              		.loc 1 592 0
 836 000c 4362     		str	r3, [r0, #36]
 837              		.loc 1 590 0
 838 000e 056B     		ldr	r5, [r0, #48]
 839              	.LVL56:
ARM GAS  /tmp/ccHbW5dC.s 			page 16


 840              		.loc 1 597 0
 841 0010 00F0A180 		beq	.L67
 842              	.L64:
 843              		.loc 1 590 0
 844 0014 2F46     		mov	r7, r5
 845              		.loc 1 600 0
 846 0016 4FF09A08 		mov	r8, #154
 847 001a 9C46     		mov	ip, r3
 848              	.LVL57:
 849              	.L42:
 850              	.LBB37:
 851              	.LBB44:
 852              		.loc 1 194 0
 853 001c 6068     		ldr	r0, [r4, #4]
 854              	.LBE44:
 855              	.LBE37:
 856              		.loc 1 679 0
 857 001e E26A     		ldr	r2, [r4, #44]
 858              		.loc 1 680 0
 859 0020 A66A     		ldr	r6, [r4, #40]
 860              		.loc 1 679 0
 861 0022 1368     		ldr	r3, [r2, #0]
 862              		.loc 1 680 0
 863 0024 3168     		ldr	r1, [r6, #0]
 864              	.LBB51:
 865              	.LBB43:
 866              		.loc 1 194 0
 867 0026 4668     		ldr	r6, [r0, #4]
 868              	.LBE43:
 869              	.LBE51:
 870              		.loc 1 683 0
 871 0028 05F11002 		add	r2, r5, #16
 872              		.loc 1 679 0
 873 002c C3F80080 		str	r8, [r3, #0]
 874              	.LBB52:
 875              	.LBB45:
 876              		.loc 1 195 0
 877 0030 90F80880 		ldrb	r8, [r0, #8]	@ zero_extendqisi2
 878              	.LBE45:
 879              	.LBE52:
 880              		.loc 1 680 0
 881 0034 C1F800C0 		str	ip, [r1, #0]
 882              		.loc 1 688 0
 883 0038 0020     		movs	r0, #0
 884              		.loc 1 683 0
 885 003a 8A60     		str	r2, [r1, #8]
 886              		.loc 1 687 0
 887 003c 48F2000C 		movw	ip, 32768	@ movhi
 888              		.loc 1 689 0
 889 0040 4FF41061 		mov	r1, #2304	@ movhi
 890              	.LBB53:
 891              	.LBB42:
 892              		.loc 1 197 0
 893 0044 002E     		cmp	r6, #0
 894              	.LBE42:
 895              	.LBE53:
 896              		.loc 1 684 0
ARM GAS  /tmp/ccHbW5dC.s 			page 17


 897 0046 9A60     		str	r2, [r3, #8]
 898              		.loc 1 687 0
 899 0048 A5F800C0 		strh	ip, [r5, #0]	@ movhi
 900              		.loc 1 688 0
 901 004c 2880     		strh	r0, [r5, #0]	@ movhi
 902              		.loc 1 689 0
 903 004e A980     		strh	r1, [r5, #4]	@ movhi
 904              	.LVL58:
 905              	.LBB54:
 906              	.LBB46:
 907              		.loc 1 197 0
 908 0050 52DD     		ble	.L45
 909 0052 8B4B     		ldr	r3, .L75
 910 0054 9E42     		cmp	r6, r3
 911 0056 4FDC     		bgt	.L45
 912              	.LVL59:
 913              	.L46:
 914              		.loc 1 201 0
 915 0058 B7F804C0 		ldrh	ip, [r7, #4]
 916 005c 2CF03F00 		bic	r0, ip, #63
 917 0060 0104     		lsls	r1, r0, #16
 918 0062 0B0C     		lsrs	r3, r1, #16
 919 0064 BB80     		strh	r3, [r7, #4]	@ movhi
 920              		.loc 1 202 0
 921 0066 BA88     		ldrh	r2, [r7, #4]
 922              		.loc 1 208 0
 923 0068 8649     		ldr	r1, .L75+4
 924              		.loc 1 202 0
 925 006a 90B2     		uxth	r0, r2
 926 006c 40F0180C 		orr	ip, r0, #24
 927              		.loc 1 208 0
 928 0070 8E42     		cmp	r6, r1
 929              		.loc 1 202 0
 930 0072 A7F804C0 		strh	ip, [r7, #4]	@ movhi
 931              	.LVL60:
 932              		.loc 1 208 0
 933 0076 43DC     		bgt	.L47
 934              		.loc 1 210 0
 935 0078 B8F1010F 		cmp	r8, #1
 936 007c 02D0     		beq	.L48
 937 007e 8248     		ldr	r0, .L75+8
 938 0080 FFF7FEFF 		bl	chDbgPanic
 939              	.L48:
 940              		.loc 1 215 0
 941 0084 8148     		ldr	r0, .L75+12
 942 0086 7600     		lsls	r6, r6, #1
 943              	.LVL61:
 944 0088 90FBF6F1 		sdiv	r1, r0, r6
 945 008c 06FB01F8 		mul	r8, r6, r1
 946              	.LVL62:
 947 0090 7E4B     		ldr	r3, .L75+12
 948 0092 C8EB0302 		rsb	r2, r8, r3
 949 0096 002A     		cmp	r2, #0
 950 0098 40F0A580 		bne	.L68
 951              		.loc 1 218 0
 952 009c 7B4A     		ldr	r2, .L75+12
 953 009e 92FBF6F6 		sdiv	r6, r2, r6
ARM GAS  /tmp/ccHbW5dC.s 			page 18


 954 00a2 B6B2     		uxth	r6, r6
 955              	.LVL63:
 956              		.loc 1 220 0
 957 00a4 032E     		cmp	r6, #3
 958 00a6 40F29480 		bls	.L69
 959              	.LVL64:
 960              	.L50:
 961              		.loc 1 226 0
 962 00aa 1921     		movs	r1, #25
 963              		.loc 1 223 0
 964 00ac 4FEA065C 		lsl	ip, r6, #20
 965              		.loc 1 259 0
 966 00b0 B6F5805F 		cmp	r6, #4096
 967              		.loc 1 226 0
 968 00b4 3984     		strh	r1, [r7, #32]	@ movhi
 969              		.loc 1 223 0
 970 00b6 4FEA1C58 		lsr	r8, ip, #20
 971              	.LVL65:
 972              		.loc 1 259 0
 973 00ba 02D3     		bcc	.L51
 974 00bc 7448     		ldr	r0, .L75+16
 975 00be FFF7FEFF 		bl	chDbgPanic
 976              	.LVL66:
 977              	.L51:
 978              	.LBE46:
 979              	.LBE54:
 980              	.LBB55:
 981              	.LBB59:
 982              		.loc 1 274 0
 983 00c2 6268     		ldr	r2, [r4, #4]
 984              	.LBE59:
 985              	.LBE55:
 986              	.LBB63:
 987              	.LBB41:
 988              		.loc 1 1036 0
 989 00c4 216B     		ldr	r1, [r4, #48]
 990              	.LVL67:
 991              	.LBE41:
 992              	.LBE63:
 993              	.LBB64:
 994              	.LBB58:
 995              		.loc 1 278 0
 996 00c6 1278     		ldrb	r2, [r2, #0]	@ zero_extendqisi2
 997              	.LBE58:
 998              	.LBE64:
 999              	.LBB65:
 1000              	.LBB47:
 1001              		.loc 1 262 0
 1002 00c8 A7F81C80 		strh	r8, [r7, #28]	@ movhi
 1003              	.LBE47:
 1004              	.LBE65:
 1005              	.LBB66:
 1006              	.LBB60:
 1007              		.loc 1 277 0
 1008 00cc B1F800C0 		ldrh	ip, [r1, #0]
 1009              		.loc 1 278 0
 1010 00d0 022A     		cmp	r2, #2
ARM GAS  /tmp/ccHbW5dC.s 			page 19


 1011              		.loc 1 277 0
 1012 00d2 1FFA8CF3 		uxth	r3, ip
 1013              	.LVL68:
 1014              		.loc 1 278 0
 1015 00d6 2DD0     		beq	.L61
 1016              	.LVL69:
 1017              	.L70:
 1018 00d8 032A     		cmp	r2, #3
 1019 00da 70D0     		beq	.L62
 1020 00dc 012A     		cmp	r2, #1
 1021 00de 03D1     		bne	.L59
 1022              		.loc 1 280 0
 1023 00e0 23F00A00 		bic	r0, r3, #10
 1024 00e4 0304     		lsls	r3, r0, #16
 1025 00e6 1B0C     		lsrs	r3, r3, #16
 1026              	.LVL70:
 1027              	.L59:
 1028              		.loc 1 290 0
 1029 00e8 0B80     		strh	r3, [r1, #0]	@ movhi
 1030              	.LBE60:
 1031              	.LBE66:
 1032              		.loc 1 696 0
 1033 00ea 2888     		ldrh	r0, [r5, #0]
 1034 00ec 83B2     		uxth	r3, r0
 1035              	.LVL71:
 1036 00ee 43F00101 		orr	r1, r3, #1
 1037              	.LVL72:
 1038 00f2 2980     		strh	r1, [r5, #0]	@ movhi
 1039              		.loc 1 697 0
 1040 00f4 BDE8F081 		pop	{r4, r5, r6, r7, r8, pc}
 1041              	.LVL73:
 1042              	.L45:
 1043              	.LBB67:
 1044              	.LBB40:
 1045              		.loc 1 197 0
 1046 00f8 6648     		ldr	r0, .L75+20
 1047 00fa FFF7FEFF 		bl	chDbgPanic
 1048 00fe ABE7     		b	.L46
 1049              	.LVL74:
 1050              	.L47:
 1051              		.loc 1 228 0
 1052 0100 6548     		ldr	r0, .L75+24
 1053 0102 8642     		cmp	r6, r0
 1054 0104 24DC     		bgt	.L65
 1055              		.loc 1 230 0
 1056 0106 A8F10203 		sub	r3, r8, #2
 1057 010a DAB2     		uxtb	r2, r3
 1058 010c 012A     		cmp	r2, #1
 1059 010e 75D9     		bls	.L54
 1060 0110 6248     		ldr	r0, .L75+28
 1061 0112 FFF7FEFF 		bl	chDbgPanic
 1062 0116 48F6FF78 		movw	r8, #36863
 1063              	.LVL75:
 1064              	.L55:
 1065              	.LBE40:
 1066              	.LBE67:
 1067              	.LBB68:
ARM GAS  /tmp/ccHbW5dC.s 			page 20


 1068              	.LBB57:
 1069              		.loc 1 274 0
 1070 011a 6268     		ldr	r2, [r4, #4]
 1071              	.LBE57:
 1072              	.LBE68:
 1073              	.LBB69:
 1074              	.LBB48:
 1075              		.loc 1 256 0
 1076 011c 0820     		movs	r0, #8
 1077              		.loc 1 1036 0
 1078 011e 216B     		ldr	r1, [r4, #48]
 1079              	.LVL76:
 1080              		.loc 1 256 0
 1081 0120 3884     		strh	r0, [r7, #32]	@ movhi
 1082              	.LBE48:
 1083              	.LBE69:
 1084              	.LBB70:
 1085              	.LBB61:
 1086              		.loc 1 278 0
 1087 0122 1278     		ldrb	r2, [r2, #0]	@ zero_extendqisi2
 1088              	.LBE61:
 1089              	.LBE70:
 1090              	.LBB71:
 1091              	.LBB39:
 1092              		.loc 1 262 0
 1093 0124 A7F81C80 		strh	r8, [r7, #28]	@ movhi
 1094              	.LBE39:
 1095              	.LBE71:
 1096              	.LBB72:
 1097              	.LBB56:
 1098              		.loc 1 277 0
 1099 0128 B1F800C0 		ldrh	ip, [r1, #0]
 1100              		.loc 1 278 0
 1101 012c 022A     		cmp	r2, #2
 1102              		.loc 1 277 0
 1103 012e 1FFA8CF3 		uxth	r3, ip
 1104              	.LVL77:
 1105              		.loc 1 278 0
 1106 0132 D1D1     		bne	.L70
 1107              	.LVL78:
 1108              	.L61:
 1109              		.loc 1 283 0
 1110 0134 43F00202 		orr	r2, r3, #2
 1111              	.LVL79:
 1112              		.loc 1 284 0
 1113 0138 4FF6F77C 		movw	ip, #65527
 1114 013c 02EA0C03 		and	r3, r2, ip
 1115              	.LVL80:
 1116              		.loc 1 290 0
 1117 0140 0B80     		strh	r3, [r1, #0]	@ movhi
 1118              	.LBE56:
 1119              	.LBE72:
 1120              		.loc 1 696 0
 1121 0142 2888     		ldrh	r0, [r5, #0]
 1122 0144 83B2     		uxth	r3, r0
 1123              	.LVL81:
 1124 0146 43F00101 		orr	r1, r3, #1
ARM GAS  /tmp/ccHbW5dC.s 			page 21


 1125              	.LVL82:
 1126 014a 2980     		strh	r1, [r5, #0]	@ movhi
 1127              		.loc 1 697 0
 1128 014c BDE8F081 		pop	{r4, r5, r6, r7, r8, pc}
 1129              	.LVL83:
 1130              	.L65:
 1131              	.LBB73:
 1132              	.LBB49:
 1133              		.loc 1 205 0
 1134 0150 4FF00008 		mov	r8, #0
 1135              	.LVL84:
 1136 0154 B5E7     		b	.L51
 1137              	.LVL85:
 1138              	.L67:
 1139              	.LBE49:
 1140              	.LBE73:
 1141              		.loc 1 600 0
 1142 0156 524E     		ldr	r6, .L75+32
 1143 0158 B042     		cmp	r0, r6
 1144 015a 7FF45BAF 		bne	.L64
 1145              	.LBB74:
 1146              		.loc 1 603 0
 1147 015e 514F     		ldr	r7, .L75+36
 1148 0160 4FF0000E 		mov	lr, #0
 1149 0164 3B69     		ldr	r3, [r7, #16]
 1150              		.loc 1 604 0
 1151 0166 806A     		ldr	r0, [r0, #40]
 1152              		.loc 1 603 0
 1153 0168 43F40018 		orr	r8, r3, #2097152
 1154 016c C7F81080 		str	r8, [r7, #16]
 1155              		.loc 1 604 0
 1156 0170 0A21     		movs	r1, #10
 1157 0172 4D4A     		ldr	r2, .L75+40
 1158 0174 2346     		mov	r3, r4
 1159              		.loc 1 603 0
 1160 0176 C7F810E0 		str	lr, [r7, #16]
 1161              		.loc 1 604 0
 1162 017a FFF7FEFF 		bl	dmaStreamAllocate
 1163              	.LVL86:
 1164              		.loc 1 608 0
 1165 017e 0028     		cmp	r0, #0
 1166 0180 76D1     		bne	.L71
 1167              	.LVL87:
 1168              	.L43:
 1169              		.loc 1 609 0
 1170 0182 F06A     		ldr	r0, [r6, #44]
 1171 0184 0A21     		movs	r1, #10
 1172 0186 494A     		ldr	r2, .L75+44
 1173 0188 454B     		ldr	r3, .L75+32
 1174 018a FFF7FEFF 		bl	dmaStreamAllocate
 1175              	.LVL88:
 1176              		.loc 1 613 0
 1177 018e 0028     		cmp	r0, #0
 1178 0190 6AD1     		bne	.L72
 1179              	.LVL89:
 1180              	.L44:
 1181              		.loc 1 614 0
ARM GAS  /tmp/ccHbW5dC.s 			page 22


 1182 0192 444F     		ldr	r7, .L75+36
 1183              		.loc 1 615 0
 1184 0194 1F20     		movs	r0, #31
 1185              		.loc 1 614 0
 1186 0196 FB69     		ldr	r3, [r7, #28]
 1187              		.loc 1 615 0
 1188 0198 A021     		movs	r1, #160
 1189              		.loc 1 614 0
 1190 019a 43F40012 		orr	r2, r3, #2097152
 1191 019e FA61     		str	r2, [r7, #28]
 1192              		.loc 1 615 0
 1193 01a0 FFF7FEFF 		bl	nvicEnableVector
 1194              		.loc 1 617 0
 1195 01a4 2020     		movs	r0, #32
 1196 01a6 A021     		movs	r1, #160
 1197 01a8 FFF7FEFF 		bl	nvicEnableVector
 1198              		.loc 1 620 0
 1199 01ac 706A     		ldr	r0, [r6, #36]
 1200 01ae 376B     		ldr	r7, [r6, #48]
 1201 01b0 40F4805C 		orr	ip, r0, #4096
 1202 01b4 C6F824C0 		str	ip, [r6, #36]
 1203 01b8 4CF01008 		orr	r8, ip, #16
 1204 01bc 2EE7     		b	.L42
 1205              	.LVL90:
 1206              	.L62:
 1207              	.LBE74:
 1208              	.LBB75:
 1209              	.LBB62:
 1210              		.loc 1 287 0
 1211 01be 43F00A03 		orr	r3, r3, #10
 1212              	.LVL91:
 1213              		.loc 1 290 0
 1214 01c2 0B80     		strh	r3, [r1, #0]	@ movhi
 1215              	.LBE62:
 1216              	.LBE75:
 1217              		.loc 1 696 0
 1218 01c4 2888     		ldrh	r0, [r5, #0]
 1219 01c6 83B2     		uxth	r3, r0
 1220              	.LVL92:
 1221 01c8 43F00101 		orr	r1, r3, #1
 1222              	.LVL93:
 1223 01cc 2980     		strh	r1, [r5, #0]	@ movhi
 1224              		.loc 1 697 0
 1225 01ce BDE8F081 		pop	{r4, r5, r6, r7, r8, pc}
 1226              	.LVL94:
 1227              	.L69:
 1228              	.LBB76:
 1229              	.LBB38:
 1230              		.loc 1 220 0
 1231 01d2 3748     		ldr	r0, .L75+48
 1232 01d4 FFF7FEFF 		bl	chDbgPanic
 1233              		.loc 1 223 0
 1234 01d8 4FEA0658 		lsl	r8, r6, #20
 1235              		.loc 1 226 0
 1236 01dc 1923     		movs	r3, #25
 1237              		.loc 1 223 0
 1238 01de 4FEA1858 		lsr	r8, r8, #20
ARM GAS  /tmp/ccHbW5dC.s 			page 23


 1239              	.LVL95:
 1240              		.loc 1 226 0
 1241 01e2 3B84     		strh	r3, [r7, #32]	@ movhi
 1242 01e4 6DE7     		b	.L51
 1243              	.LVL96:
 1244              	.L68:
 1245              		.loc 1 215 0
 1246 01e6 3348     		ldr	r0, .L75+52
 1247 01e8 FFF7FEFF 		bl	chDbgPanic
 1248              		.loc 1 218 0
 1249 01ec 274A     		ldr	r2, .L75+12
 1250 01ee 92FBF6F6 		sdiv	r6, r2, r6
 1251 01f2 B6B2     		uxth	r6, r6
 1252              	.LVL97:
 1253              		.loc 1 220 0
 1254 01f4 032E     		cmp	r6, #3
 1255 01f6 3FF658AF 		bhi	.L50
 1256 01fa EAE7     		b	.L69
 1257              	.LVL98:
 1258              	.L54:
 1259              		.loc 1 234 0
 1260 01fc B8F1020F 		cmp	r8, #2
 1261 0200 16D1     		bne	.L56
 1262              		.loc 1 236 0
 1263 0202 224A     		ldr	r2, .L75+12
 1264 0204 06EB4606 		add	r6, r6, r6, lsl #1
 1265              	.LVL99:
 1266 0208 92FBF6FC 		sdiv	ip, r2, r6
 1267 020c 06FB0CF8 		mul	r8, r6, ip
 1268              	.LVL100:
 1269 0210 1E48     		ldr	r0, .L75+12
 1270 0212 C8EB0001 		rsb	r1, r8, r0
 1271 0216 39B9     		cbnz	r1, .L73
 1272              	.LVL101:
 1273              	.L57:
 1274              		.loc 1 239 0
 1275 0218 1C48     		ldr	r0, .L75+12
 1276 021a 90FBF6F6 		sdiv	r6, r0, r6
 1277              	.LVL102:
 1278              		.loc 1 236 0
 1279 021e 3105     		lsls	r1, r6, #20
 1280 0220 0B0D     		lsrs	r3, r1, #20
 1281 0222 43F40048 		orr	r8, r3, #32768
 1282 0226 78E7     		b	.L55
 1283              	.LVL103:
 1284              	.L73:
 1285 0228 2348     		ldr	r0, .L75+56
 1286 022a FFF7FEFF 		bl	chDbgPanic
 1287              	.LVL104:
 1288 022e F3E7     		b	.L57
 1289              	.LVL105:
 1290              	.L56:
 1291              		.loc 1 241 0
 1292 0230 B8F1030F 		cmp	r8, #3
 1293 0234 20D1     		bne	.L66
 1294              		.loc 1 243 0
 1295 0236 06EB8606 		add	r6, r6, r6, lsl #2
ARM GAS  /tmp/ccHbW5dC.s 			page 24


 1296              	.LVL106:
 1297 023a 1449     		ldr	r1, .L75+12
 1298 023c 06EB8606 		add	r6, r6, r6, lsl #2
 1299 0240 91FBF6FC 		sdiv	ip, r1, r6
 1300 0244 06FB0CF8 		mul	r8, r6, ip
 1301              	.LVL107:
 1302 0248 104B     		ldr	r3, .L75+12
 1303              	.LVL108:
 1304 024a C8EB0302 		rsb	r2, r8, r3
 1305 024e 3AB9     		cbnz	r2, .L74
 1306              	.L58:
 1307              	.LVL109:
 1308              		.loc 1 246 0
 1309 0250 0E49     		ldr	r1, .L75+12
 1310 0252 91FBF6F3 		sdiv	r3, r1, r6
 1311              		.loc 1 243 0
 1312 0256 1A05     		lsls	r2, r3, #20
 1313 0258 100D     		lsrs	r0, r2, #20
 1314 025a 40F44048 		orr	r8, r0, #49152
 1315 025e 5CE7     		b	.L55
 1316              	.LVL110:
 1317              	.L74:
 1318 0260 1648     		ldr	r0, .L75+60
 1319 0262 FFF7FEFF 		bl	chDbgPanic
 1320 0266 F3E7     		b	.L58
 1321              	.LVL111:
 1322              	.L72:
 1323              	.LBE38:
 1324              	.LBE76:
 1325              	.LBB77:
 1326              		.loc 1 613 0 discriminator 1
 1327 0268 1548     		ldr	r0, .L75+64
 1328              	.LVL112:
 1329 026a FFF7FEFF 		bl	chDbgPanic
 1330 026e 90E7     		b	.L44
 1331              	.LVL113:
 1332              	.L71:
 1333              		.loc 1 608 0 discriminator 1
 1334 0270 1448     		ldr	r0, .L75+68
 1335              	.LVL114:
 1336 0272 FFF7FEFF 		bl	chDbgPanic
 1337 0276 84E7     		b	.L43
 1338              	.LVL115:
 1339              	.L66:
 1340              	.LBE77:
 1341              	.LBB78:
 1342              	.LBB50:
 1343              		.loc 1 241 0
 1344 0278 48F6FF78 		movw	r8, #36863
 1345              	.LVL116:
 1346 027c 4DE7     		b	.L55
 1347              	.L76:
 1348 027e 00BF     		.align	2
 1349              	.L75:
 1350 0280 00093D00 		.word	4000000
 1351 0284 A0860100 		.word	100000
 1352 0288 40000000 		.word	.LC3
ARM GAS  /tmp/ccHbW5dC.s 			page 25


 1353 028c 00366E01 		.word	24000000
 1354 0290 D0000000 		.word	.LC9
 1355 0294 28000000 		.word	.LC2
 1356 0298 801A0600 		.word	400000
 1357 029c 88000000 		.word	.LC6
 1358 02a0 00000000 		.word	.LANCHOR0
 1359 02a4 00100240 		.word	1073876992
 1360 02a8 00000000 		.word	i2c_lld_serve_rx_end_irq
 1361 02ac 00000000 		.word	i2c_lld_serve_tx_end_irq
 1362 02b0 70000000 		.word	.LC5
 1363 02b4 58000000 		.word	.LC4
 1364 02b8 A0000000 		.word	.LC7
 1365 02bc B8000000 		.word	.LC8
 1366 02c0 14000000 		.word	.LC1
 1367 02c4 00000000 		.word	.LC0
 1368              	.LBE50:
 1369              	.LBE78:
 1370              		.cfi_endproc
 1371              	.LFE66:
 1372              		.size	i2c_lld_start, .-i2c_lld_start
 1373 02c8 AFF30080 		.section	.text.i2c_lld_stop,"ax",%progbits
 1373      AFF30080 
 1374              		.align	2
 1375              		.p2align 4,,15
 1376              		.global	i2c_lld_stop
 1377              		.thumb
 1378              		.thumb_func
 1379              		.type	i2c_lld_stop, %function
 1380              	i2c_lld_stop:
 1381              	.LFB67:
 1382              		.loc 1 706 0
 1383              		.cfi_startproc
 1384              		@ args = 0, pretend = 0, frame = 0
 1385              		@ frame_needed = 0, uses_anonymous_args = 0
 1386              	.LVL117:
 1387              		.loc 1 709 0
 1388 0000 0378     		ldrb	r3, [r0, #0]	@ zero_extendqisi2
 1389              		.loc 1 706 0
 1390 0002 10B5     		push	{r4, lr}
 1391              	.LCFI8:
 1392              		.cfi_def_cfa_offset 8
 1393              		.loc 1 709 0
 1394 0004 012B     		cmp	r3, #1
 1395              		.loc 1 706 0
 1396 0006 0446     		mov	r4, r0
 1397              		.cfi_offset 14, -4
 1398              		.cfi_offset 4, -8
 1399              		.loc 1 709 0
 1400 0008 0AD0     		beq	.L77
 1401              		.loc 1 712 0
 1402 000a FFF7FEFF 		bl	i2c_lld_abort_operation
 1403              	.LVL118:
 1404              		.loc 1 713 0
 1405 000e E06A     		ldr	r0, [r4, #44]
 1406 0010 FFF7FEFF 		bl	dmaStreamRelease
 1407              		.loc 1 714 0
 1408 0014 A06A     		ldr	r0, [r4, #40]
ARM GAS  /tmp/ccHbW5dC.s 			page 26


 1409 0016 FFF7FEFF 		bl	dmaStreamRelease
 1410              		.loc 1 717 0
 1411 001a 0848     		ldr	r0, .L80
 1412 001c 8442     		cmp	r4, r0
 1413 001e 00D0     		beq	.L79
 1414              	.L77:
 1415 0020 10BD     		pop	{r4, pc}
 1416              	.L79:
 1417              		.loc 1 718 0
 1418 0022 1F20     		movs	r0, #31
 1419 0024 FFF7FEFF 		bl	nvicDisableVector
 1420              		.loc 1 719 0
 1421 0028 2020     		movs	r0, #32
 1422 002a FFF7FEFF 		bl	nvicDisableVector
 1423              		.loc 1 720 0
 1424 002e 0449     		ldr	r1, .L80+4
 1425 0030 CB69     		ldr	r3, [r1, #28]
 1426 0032 23F40012 		bic	r2, r3, #2097152
 1427 0036 CA61     		str	r2, [r1, #28]
 1428 0038 F2E7     		b	.L77
 1429              	.L81:
 1430 003a 00BF     		.align	2
 1431              	.L80:
 1432 003c 00000000 		.word	.LANCHOR0
 1433 0040 00100240 		.word	1073876992
 1434              		.cfi_endproc
 1435              	.LFE67:
 1436              		.size	i2c_lld_stop, .-i2c_lld_stop
 1437 0044 AFF30080 		.section	.text.i2c_lld_master_receive_timeout,"ax",%progbits
 1437      AFF30080 
 1437      AFF30080 
 1438              		.align	2
 1439              		.p2align 4,,15
 1440              		.global	i2c_lld_master_receive_timeout
 1441              		.thumb
 1442              		.thumb_func
 1443              		.type	i2c_lld_master_receive_timeout, %function
 1444              	i2c_lld_master_receive_timeout:
 1445              	.LFB68:
 1446              		.loc 1 767 0
 1447              		.cfi_startproc
 1448              		@ args = 4, pretend = 0, frame = 24
 1449              		@ frame_needed = 0, uses_anonymous_args = 0
 1450              	.LVL119:
 1451 0000 2DE9F043 		push	{r4, r5, r6, r7, r8, r9, lr}
 1452              	.LCFI9:
 1453              		.cfi_def_cfa_offset 28
 1454              		.loc 1 772 0
 1455 0004 012B     		cmp	r3, #1
 1456              		.loc 1 767 0
 1457 0006 87B0     		sub	sp, sp, #28
 1458              	.LCFI10:
 1459              		.cfi_def_cfa_offset 56
 1460              		.loc 1 767 0
 1461 0008 0646     		mov	r6, r0
 1462              		.cfi_offset 14, -4
 1463              		.cfi_offset 9, -8
ARM GAS  /tmp/ccHbW5dC.s 			page 27


 1464              		.cfi_offset 8, -12
 1465              		.cfi_offset 7, -16
 1466              		.cfi_offset 6, -20
 1467              		.cfi_offset 5, -24
 1468              		.cfi_offset 4, -28
 1469 000a 1F46     		mov	r7, r3
 1470 000c 8846     		mov	r8, r1
 1471 000e 9146     		mov	r9, r2
 1472 0010 0E9D     		ldr	r5, [sp, #56]
 1473              		.loc 1 768 0
 1474 0012 046B     		ldr	r4, [r0, #48]
 1475              	.LVL120:
 1476              		.loc 1 772 0
 1477 0014 70D9     		bls	.L96
 1478              	.LVL121:
 1479              	.L83:
 1480              		.loc 1 776 0
 1481 0016 B5F1FF3F 		cmp	r5, #-1
 1482 001a 05D0     		beq	.L84
 1483              		.loc 1 777 0
 1484 001c 01A8     		add	r0, sp, #4
 1485 001e 2946     		mov	r1, r5
 1486 0020 374A     		ldr	r2, .L99
 1487 0022 3346     		mov	r3, r6
 1488 0024 FFF7FEFF 		bl	chVTSetI
 1489              	.L84:
 1490              		.loc 1 780 0
 1491 0028 FFF7FEFF 		bl	dbg_check_unlock
 1492              	@ 780 "../chibios_2.4.x/os/hal/platforms/STM32/i2c_lld.c" 1
 1493 002c FFF7FEFF 		bl      _port_unlock
 1494              	@ 0 "" 2
 1495              		.loc 1 787 0
 1496              		.thumb
 1497 0030 B06A     		ldr	r0, [r6, #40]
 1498              		.loc 1 783 0
 1499 0032 4FEA4808 		lsl	r8, r8, #1
 1500              		.loc 1 787 0
 1501 0036 0368     		ldr	r3, [r0, #0]
 1502              		.loc 1 783 0
 1503 0038 48F00108 		orr	r8, r8, #1
 1504              		.loc 1 784 0
 1505 003c 0022     		movs	r2, #0
 1506              		.loc 1 783 0
 1507 003e A6F82080 		strh	r8, [r6, #32]	@ movhi
 1508              		.loc 1 784 0
 1509 0042 B260     		str	r2, [r6, #8]
 1510              		.loc 1 787 0
 1511 0044 C3F80C90 		str	r9, [r3, #12]
 1512              		.loc 1 788 0
 1513 0048 5F60     		str	r7, [r3, #4]
 1514              		.loc 1 792 0
 1515 004a 03E0     		b	.L85
 1516              	.L86:
 1517              		.loc 1 796 0
 1518 004c FFF7FEFF 		bl	dbg_check_unlock
 1519              	@ 796 "../chibios_2.4.x/os/hal/platforms/STM32/i2c_lld.c" 1
 1520 0050 FFF7FEFF 		bl      _port_unlock
ARM GAS  /tmp/ccHbW5dC.s 			page 28


 1521              	@ 0 "" 2
 1522              		.thumb
 1523              	.L85:
 1524              		.loc 1 792 0 discriminator 1
 1525 0054 B4F818C0 		ldrh	ip, [r4, #24]
 1526 0058 1CF0020F 		tst	ip, #2
 1527 005c 04D1     		bne	.L88
 1528              		.loc 1 792 0 is_stmt 0 discriminator 2
 1529 005e B4F800E0 		ldrh	lr, [r4, #0]
 1530 0062 1EF4007F 		tst	lr, #512
 1531 0066 0CD0     		beq	.L97
 1532              	.L88:
 1533              		.loc 1 793 0 is_stmt 1
 1534              	@ 793 "../chibios_2.4.x/os/hal/platforms/STM32/i2c_lld.c" 1
 1535 0068 FFF7FEFF 		bl      _port_lock
 1536              	@ 0 "" 2
 1537              		.thumb
 1538 006c FFF7FEFF 		bl	dbg_check_lock
 1539              		.loc 1 794 0
 1540 0070 B5F1FF3F 		cmp	r5, #-1
 1541 0074 EAD0     		beq	.L86
 1542              		.loc 1 794 0 is_stmt 0 discriminator 1
 1543 0076 0499     		ldr	r1, [sp, #16]
 1544 0078 0029     		cmp	r1, #0
 1545 007a E7D1     		bne	.L86
 1546              	.L94:
 1547              		.loc 1 805 0 is_stmt 1
 1548 007c 4FF0FF30 		mov	r0, #-1
 1549 0080 1BE0     		b	.L87
 1550              	.L97:
 1551              		.loc 1 800 0
 1552              	@ 800 "../chibios_2.4.x/os/hal/platforms/STM32/i2c_lld.c" 1
 1553 0082 FFF7FEFF 		bl      _port_lock
 1554              	@ 0 "" 2
 1555              		.thumb
 1556 0086 FFF7FEFF 		bl	dbg_check_lock
 1557              		.loc 1 804 0
 1558 008a B5F1FF3F 		cmp	r5, #-1
 1559 008e 17D1     		bne	.L98
 1560              		.loc 1 808 0
 1561 0090 A188     		ldrh	r1, [r4, #4]
 1562              		.loc 1 812 0
 1563 0092 1C4D     		ldr	r5, .L99+4
 1564              		.loc 1 808 0
 1565 0094 8BB2     		uxth	r3, r1
 1566 0096 43F4007E 		orr	lr, r3, #512
 1567 009a A4F804E0 		strh	lr, [r4, #4]	@ movhi
 1568              		.loc 1 809 0
 1569 009e B4F800C0 		ldrh	ip, [r4, #0]
 1570              		.loc 1 812 0
 1571 00a2 E969     		ldr	r1, [r5, #28]
 1572              		.loc 1 809 0
 1573 00a4 1FFA8CF0 		uxth	r0, ip
 1574 00a8 40F4A062 		orr	r2, r0, #1280
 1575 00ac 2280     		strh	r2, [r4, #0]	@ movhi
 1576              		.loc 1 813 0
 1577 00ae 0220     		movs	r0, #2
ARM GAS  /tmp/ccHbW5dC.s 			page 29


 1578              		.loc 1 812 0
 1579 00b0 F161     		str	r1, [r6, #28]
 1580              		.loc 1 813 0
 1581 00b2 FFF7FEFF 		bl	chSchGoSleepS
 1582              	.L91:
 1583              		.loc 1 817 0
 1584 00b6 EA69     		ldr	r2, [r5, #28]
 1585 00b8 906A     		ldr	r0, [r2, #40]
 1586              	.L87:
 1587              		.loc 1 818 0
 1588 00ba 07B0     		add	sp, sp, #28
 1589 00bc BDE8F083 		pop	{r4, r5, r6, r7, r8, r9, pc}
 1590              	.L98:
 1591              		.loc 1 804 0 discriminator 1
 1592 00c0 049B     		ldr	r3, [sp, #16]
 1593 00c2 002B     		cmp	r3, #0
 1594 00c4 DAD0     		beq	.L94
 1595              		.loc 1 808 0
 1596 00c6 A388     		ldrh	r3, [r4, #4]
 1597              		.loc 1 812 0
 1598 00c8 0E4D     		ldr	r5, .L99+4
 1599              		.loc 1 808 0
 1600 00ca 98B2     		uxth	r0, r3
 1601 00cc 40F40072 		orr	r2, r0, #512
 1602 00d0 A280     		strh	r2, [r4, #4]	@ movhi
 1603              		.loc 1 809 0
 1604 00d2 2188     		ldrh	r1, [r4, #0]
 1605              		.loc 1 812 0
 1606 00d4 EB69     		ldr	r3, [r5, #28]
 1607              		.loc 1 809 0
 1608 00d6 1FFA81FE 		uxth	lr, r1
 1609 00da 4EF4A06C 		orr	ip, lr, #1280
 1610 00de A4F800C0 		strh	ip, [r4, #0]	@ movhi
 1611              		.loc 1 813 0
 1612 00e2 0220     		movs	r0, #2
 1613              		.loc 1 812 0
 1614 00e4 F361     		str	r3, [r6, #28]
 1615              		.loc 1 813 0
 1616 00e6 FFF7FEFF 		bl	chSchGoSleepS
 1617              		.loc 1 814 0
 1618 00ea 0498     		ldr	r0, [sp, #16]
 1619 00ec 0028     		cmp	r0, #0
 1620 00ee E2D0     		beq	.L91
 1621              		.loc 1 815 0
 1622 00f0 01A8     		add	r0, sp, #4
 1623 00f2 FFF7FEFF 		bl	chVTResetI
 1624 00f6 DEE7     		b	.L91
 1625              	.LVL122:
 1626              	.L96:
 1627              		.loc 1 772 0 discriminator 1
 1628 00f8 0348     		ldr	r0, .L99+8
 1629 00fa FFF7FEFF 		bl	chDbgPanic
 1630              	.LVL123:
 1631 00fe 8AE7     		b	.L83
 1632              	.L100:
 1633              		.align	2
 1634              	.L99:
ARM GAS  /tmp/ccHbW5dC.s 			page 30


 1635 0100 00000000 		.word	i2c_lld_safety_timeout
 1636 0104 00000000 		.word	rlist
 1637 0108 E8000000 		.word	.LC10
 1638              		.cfi_endproc
 1639              	.LFE68:
 1640              		.size	i2c_lld_master_receive_timeout, .-i2c_lld_master_receive_timeout
 1641 010c AFF30080 		.section	.text.i2c_lld_master_transmit_timeout,"ax",%progbits
 1642              		.align	2
 1643              		.p2align 4,,15
 1644              		.global	i2c_lld_master_transmit_timeout
 1645              		.thumb
 1646              		.thumb_func
 1647              		.type	i2c_lld_master_transmit_timeout, %function
 1648              	i2c_lld_master_transmit_timeout:
 1649              	.LFB69:
 1650              		.loc 1 848 0
 1651              		.cfi_startproc
 1652              		@ args = 12, pretend = 0, frame = 24
 1653              		@ frame_needed = 0, uses_anonymous_args = 0
 1654              	.LVL124:
 1655 0000 2DE9F04F 		push	{r4, r5, r6, r7, r8, r9, sl, fp, lr}
 1656              	.LCFI11:
 1657              		.cfi_def_cfa_offset 36
 1658 0004 87B0     		sub	sp, sp, #28
 1659              	.LCFI12:
 1660              		.cfi_def_cfa_offset 64
 1661              		.loc 1 848 0
 1662 0006 119F     		ldr	r7, [sp, #68]
 1663              		.cfi_offset 14, -4
 1664              		.cfi_offset 11, -8
 1665              		.cfi_offset 10, -12
 1666              		.cfi_offset 9, -16
 1667              		.cfi_offset 8, -20
 1668              		.cfi_offset 7, -24
 1669              		.cfi_offset 6, -28
 1670              		.cfi_offset 5, -32
 1671              		.cfi_offset 4, -36
 1672 0008 0646     		mov	r6, r0
 1673 000a 8846     		mov	r8, r1
 1674 000c 9146     		mov	r9, r2
 1675 000e 9A46     		mov	sl, r3
 1676 0010 DDF840B0 		ldr	fp, [sp, #64]
 1677 0014 129D     		ldr	r5, [sp, #72]
 1678              		.loc 1 849 0
 1679 0016 046B     		ldr	r4, [r0, #48]
 1680              	.LVL125:
 1681              		.loc 1 853 0
 1682 0018 27B1     		cbz	r7, .L102
 1683              		.loc 1 853 0 is_stmt 0 discriminator 1
 1684 001a 012F     		cmp	r7, #1
 1685 001c 5BD9     		bls	.L103
 1686              		.loc 1 853 0 discriminator 3
 1687 001e BBF1000F 		cmp	fp, #0
 1688 0022 58D0     		beq	.L103
 1689              	.LVL126:
 1690              	.L102:
 1691              		.loc 1 858 0 is_stmt 1
ARM GAS  /tmp/ccHbW5dC.s 			page 31


 1692 0024 B5F1FF3F 		cmp	r5, #-1
 1693 0028 05D0     		beq	.L104
 1694              		.loc 1 859 0
 1695 002a 01A8     		add	r0, sp, #4
 1696 002c 2946     		mov	r1, r5
 1697 002e 3A4A     		ldr	r2, .L118
 1698 0030 3346     		mov	r3, r6
 1699 0032 FFF7FEFF 		bl	chVTSetI
 1700              	.L104:
 1701              		.loc 1 862 0
 1702 0036 FFF7FEFF 		bl	dbg_check_unlock
 1703              	@ 862 "../chibios_2.4.x/os/hal/platforms/STM32/i2c_lld.c" 1
 1704 003a FFF7FEFF 		bl      _port_unlock
 1705              	@ 0 "" 2
 1706              		.loc 1 869 0
 1707              		.thumb
 1708 003e F36A     		ldr	r3, [r6, #44]
 1709              		.loc 1 873 0
 1710 0040 B06A     		ldr	r0, [r6, #40]
 1711              		.loc 1 869 0
 1712 0042 1A68     		ldr	r2, [r3, #0]
 1713              		.loc 1 873 0
 1714 0044 0368     		ldr	r3, [r0, #0]
 1715              		.loc 1 865 0
 1716 0046 4FEA4808 		lsl	r8, r8, #1
 1717              		.loc 1 866 0
 1718 004a 0021     		movs	r1, #0
 1719              		.loc 1 865 0
 1720 004c A6F82080 		strh	r8, [r6, #32]	@ movhi
 1721              		.loc 1 866 0
 1722 0050 B160     		str	r1, [r6, #8]
 1723              		.loc 1 869 0
 1724 0052 C2F80C90 		str	r9, [r2, #12]
 1725              		.loc 1 870 0
 1726 0056 C2F804A0 		str	sl, [r2, #4]
 1727              		.loc 1 873 0
 1728 005a C3F80CB0 		str	fp, [r3, #12]
 1729              		.loc 1 874 0
 1730 005e 5F60     		str	r7, [r3, #4]
 1731              		.loc 1 878 0
 1732 0060 03E0     		b	.L105
 1733              	.L106:
 1734              		.loc 1 882 0
 1735 0062 FFF7FEFF 		bl	dbg_check_unlock
 1736              	@ 882 "../chibios_2.4.x/os/hal/platforms/STM32/i2c_lld.c" 1
 1737 0066 FFF7FEFF 		bl      _port_unlock
 1738              	@ 0 "" 2
 1739              		.thumb
 1740              	.L105:
 1741              		.loc 1 878 0 discriminator 1
 1742 006a B4F818C0 		ldrh	ip, [r4, #24]
 1743 006e 1CF0020F 		tst	ip, #2
 1744 0072 04D1     		bne	.L108
 1745              		.loc 1 878 0 is_stmt 0 discriminator 2
 1746 0074 B4F800E0 		ldrh	lr, [r4, #0]
 1747 0078 1EF4007F 		tst	lr, #512
 1748 007c 0CD0     		beq	.L116
ARM GAS  /tmp/ccHbW5dC.s 			page 32


 1749              	.L108:
 1750              		.loc 1 879 0 is_stmt 1
 1751              	@ 879 "../chibios_2.4.x/os/hal/platforms/STM32/i2c_lld.c" 1
 1752 007e FFF7FEFF 		bl      _port_lock
 1753              	@ 0 "" 2
 1754              		.thumb
 1755 0082 FFF7FEFF 		bl	dbg_check_lock
 1756              		.loc 1 880 0
 1757 0086 B5F1FF3F 		cmp	r5, #-1
 1758 008a EAD0     		beq	.L106
 1759              		.loc 1 880 0 is_stmt 0 discriminator 1
 1760 008c 049A     		ldr	r2, [sp, #16]
 1761 008e 002A     		cmp	r2, #0
 1762 0090 E7D1     		bne	.L106
 1763              	.L114:
 1764              		.loc 1 891 0 is_stmt 1
 1765 0092 4FF0FF30 		mov	r0, #-1
 1766 0096 1BE0     		b	.L107
 1767              	.L116:
 1768              		.loc 1 886 0
 1769              	@ 886 "../chibios_2.4.x/os/hal/platforms/STM32/i2c_lld.c" 1
 1770 0098 FFF7FEFF 		bl      _port_lock
 1771              	@ 0 "" 2
 1772              		.thumb
 1773 009c FFF7FEFF 		bl	dbg_check_lock
 1774              		.loc 1 890 0
 1775 00a0 B5F1FF3F 		cmp	r5, #-1
 1776 00a4 1BD1     		bne	.L117
 1777              		.loc 1 894 0
 1778 00a6 A388     		ldrh	r3, [r4, #4]
 1779              		.loc 1 898 0
 1780 00a8 1C4D     		ldr	r5, .L118+4
 1781              		.loc 1 894 0
 1782 00aa 99B2     		uxth	r1, r3
 1783 00ac 41F4007E 		orr	lr, r1, #512
 1784 00b0 A4F804E0 		strh	lr, [r4, #4]	@ movhi
 1785              		.loc 1 895 0
 1786 00b4 B4F800C0 		ldrh	ip, [r4, #0]
 1787              		.loc 1 898 0
 1788 00b8 EB69     		ldr	r3, [r5, #28]
 1789              		.loc 1 895 0
 1790 00ba 1FFA8CF2 		uxth	r2, ip
 1791 00be 42F48070 		orr	r0, r2, #256
 1792 00c2 2080     		strh	r0, [r4, #0]	@ movhi
 1793              		.loc 1 899 0
 1794 00c4 0220     		movs	r0, #2
 1795              		.loc 1 898 0
 1796 00c6 F361     		str	r3, [r6, #28]
 1797              		.loc 1 899 0
 1798 00c8 FFF7FEFF 		bl	chSchGoSleepS
 1799              	.L111:
 1800              		.loc 1 903 0
 1801 00cc E869     		ldr	r0, [r5, #28]
 1802 00ce 806A     		ldr	r0, [r0, #40]
 1803              	.L107:
 1804              		.loc 1 904 0
 1805 00d0 07B0     		add	sp, sp, #28
ARM GAS  /tmp/ccHbW5dC.s 			page 33


 1806 00d2 BDE8F08F 		pop	{r4, r5, r6, r7, r8, r9, sl, fp, pc}
 1807              	.LVL127:
 1808              	.L103:
 1809              		.loc 1 853 0 discriminator 2
 1810 00d6 1248     		ldr	r0, .L118+8
 1811 00d8 FFF7FEFF 		bl	chDbgPanic
 1812              	.LVL128:
 1813 00dc A2E7     		b	.L102
 1814              	.L117:
 1815              		.loc 1 890 0 discriminator 1
 1816 00de 0499     		ldr	r1, [sp, #16]
 1817 00e0 0029     		cmp	r1, #0
 1818 00e2 D6D0     		beq	.L114
 1819              		.loc 1 894 0
 1820 00e4 A188     		ldrh	r1, [r4, #4]
 1821              		.loc 1 898 0
 1822 00e6 0D4D     		ldr	r5, .L118+4
 1823              		.loc 1 894 0
 1824 00e8 8AB2     		uxth	r2, r1
 1825 00ea 42F40070 		orr	r0, r2, #512
 1826 00ee A080     		strh	r0, [r4, #4]	@ movhi
 1827              		.loc 1 895 0
 1828 00f0 2388     		ldrh	r3, [r4, #0]
 1829              		.loc 1 898 0
 1830 00f2 E969     		ldr	r1, [r5, #28]
 1831              		.loc 1 895 0
 1832 00f4 1FFA83FE 		uxth	lr, r3
 1833 00f8 4EF4807C 		orr	ip, lr, #256
 1834 00fc A4F800C0 		strh	ip, [r4, #0]	@ movhi
 1835              		.loc 1 899 0
 1836 0100 0220     		movs	r0, #2
 1837              		.loc 1 898 0
 1838 0102 F161     		str	r1, [r6, #28]
 1839              		.loc 1 899 0
 1840 0104 FFF7FEFF 		bl	chSchGoSleepS
 1841              		.loc 1 900 0
 1842 0108 049A     		ldr	r2, [sp, #16]
 1843 010a 002A     		cmp	r2, #0
 1844 010c DED0     		beq	.L111
 1845              		.loc 1 901 0
 1846 010e 01A8     		add	r0, sp, #4
 1847 0110 FFF7FEFF 		bl	chVTResetI
 1848 0114 DAE7     		b	.L111
 1849              	.L119:
 1850 0116 00BF     		.align	2
 1851              	.L118:
 1852 0118 00000000 		.word	i2c_lld_safety_timeout
 1853 011c 00000000 		.word	rlist
 1854 0120 0C010000 		.word	.LC11
 1855              		.cfi_endproc
 1856              	.LFE69:
 1857              		.size	i2c_lld_master_transmit_timeout, .-i2c_lld_master_transmit_timeout
 1858 0124 AFF30080 		.section	.text.i2c_lld_slave_receive_timeout,"ax",%progbits
 1858      AFF30080 
 1858      AFF30080 
 1859              		.align	2
 1860              		.p2align 4,,15
ARM GAS  /tmp/ccHbW5dC.s 			page 34


 1861              		.global	i2c_lld_slave_receive_timeout
 1862              		.thumb
 1863              		.thumb_func
 1864              		.type	i2c_lld_slave_receive_timeout, %function
 1865              	i2c_lld_slave_receive_timeout:
 1866              	.LFB70:
 1867              		.loc 1 912 0
 1868              		.cfi_startproc
 1869              		@ args = 12, pretend = 0, frame = 24
 1870              		@ frame_needed = 0, uses_anonymous_args = 0
 1871              	.LVL129:
 1872 0000 2DE9F043 		push	{r4, r5, r6, r7, r8, r9, lr}
 1873              	.LCFI13:
 1874              		.cfi_def_cfa_offset 28
 1875 0004 87B0     		sub	sp, sp, #28
 1876              	.LCFI14:
 1877              		.cfi_def_cfa_offset 56
 1878              		.loc 1 912 0
 1879 0006 0646     		mov	r6, r0
 1880              		.cfi_offset 14, -4
 1881              		.cfi_offset 9, -8
 1882              		.cfi_offset 8, -12
 1883              		.cfi_offset 7, -16
 1884              		.cfi_offset 6, -20
 1885              		.cfi_offset 5, -24
 1886              		.cfi_offset 4, -28
 1887              		.loc 1 917 0
 1888 0008 1F46     		mov	r7, r3
 1889              		.loc 1 912 0
 1890 000a 8946     		mov	r9, r1
 1891 000c 9046     		mov	r8, r2
 1892 000e 109D     		ldr	r5, [sp, #64]
 1893              		.loc 1 913 0
 1894 0010 046B     		ldr	r4, [r0, #48]
 1895              	.LVL130:
 1896              		.loc 1 917 0
 1897 0012 1BB1     		cbz	r3, .L121
 1898              	.LVL131:
 1899              		.loc 1 917 0 is_stmt 0 discriminator 1
 1900 0014 012B     		cmp	r3, #1
 1901 0016 5ED9     		bls	.L122
 1902              		.loc 1 917 0 discriminator 3
 1903 0018 002A     		cmp	r2, #0
 1904 001a 5CD0     		beq	.L122
 1905              	.LVL132:
 1906              	.L121:
 1907              		.loc 1 922 0 is_stmt 1
 1908 001c B5F1FF3F 		cmp	r5, #-1
 1909 0020 05D0     		beq	.L123
 1910              		.loc 1 923 0
 1911 0022 01A8     		add	r0, sp, #4
 1912 0024 2946     		mov	r1, r5
 1913 0026 3E4A     		ldr	r2, .L137
 1914 0028 3346     		mov	r3, r6
 1915 002a FFF7FEFF 		bl	chVTSetI
 1916              	.L123:
 1917              		.loc 1 926 0
ARM GAS  /tmp/ccHbW5dC.s 			page 35


 1918 002e FFF7FEFF 		bl	dbg_check_unlock
 1919              	@ 926 "../chibios_2.4.x/os/hal/platforms/STM32/i2c_lld.c" 1
 1920 0032 FFF7FEFF 		bl      _port_unlock
 1921              	@ 0 "" 2
 1922              		.loc 1 933 0
 1923              		.thumb
 1924 0036 B06A     		ldr	r0, [r6, #40]
 1925              		.loc 1 937 0
 1926 0038 F36A     		ldr	r3, [r6, #44]
 1927              		.loc 1 933 0
 1928 003a 0268     		ldr	r2, [r0, #0]
 1929              		.loc 1 929 0
 1930 003c 4FEA4909 		lsl	r9, r9, #1
 1931 0040 49F0010C 		orr	ip, r9, #1
 1932              		.loc 1 930 0
 1933 0044 0021     		movs	r1, #0
 1934              		.loc 1 937 0
 1935 0046 1B68     		ldr	r3, [r3, #0]
 1936 0048 0E98     		ldr	r0, [sp, #56]
 1937              		.loc 1 929 0
 1938 004a A6F820C0 		strh	ip, [r6, #32]	@ movhi
 1939              		.loc 1 930 0
 1940 004e B160     		str	r1, [r6, #8]
 1941              		.loc 1 933 0
 1942 0050 C2F80C80 		str	r8, [r2, #12]
 1943              		.loc 1 934 0
 1944 0054 5760     		str	r7, [r2, #4]
 1945              		.loc 1 938 0
 1946 0056 0F9A     		ldr	r2, [sp, #60]
 1947              		.loc 1 937 0
 1948 0058 D860     		str	r0, [r3, #12]
 1949              		.loc 1 938 0
 1950 005a 5A60     		str	r2, [r3, #4]
 1951              		.loc 1 942 0
 1952 005c 03E0     		b	.L124
 1953              	.L125:
 1954              		.loc 1 947 0
 1955 005e FFF7FEFF 		bl	dbg_check_unlock
 1956              	@ 947 "../chibios_2.4.x/os/hal/platforms/STM32/i2c_lld.c" 1
 1957 0062 FFF7FEFF 		bl      _port_unlock
 1958              	@ 0 "" 2
 1959              		.thumb
 1960              	.L124:
 1961              		.loc 1 942 0 discriminator 1
 1962 0066 B4F818E0 		ldrh	lr, [r4, #24]
 1963 006a 1EF0020F 		tst	lr, #2
 1964 006e 03D1     		bne	.L127
 1965              		.loc 1 942 0 is_stmt 0 discriminator 2
 1966 0070 2188     		ldrh	r1, [r4, #0]
 1967 0072 11F4007F 		tst	r1, #512
 1968 0076 0CD0     		beq	.L135
 1969              	.L127:
 1970              		.loc 1 944 0 is_stmt 1
 1971              	@ 944 "../chibios_2.4.x/os/hal/platforms/STM32/i2c_lld.c" 1
 1972 0078 FFF7FEFF 		bl      _port_lock
 1973              	@ 0 "" 2
 1974              		.thumb
ARM GAS  /tmp/ccHbW5dC.s 			page 36


 1975 007c FFF7FEFF 		bl	dbg_check_lock
 1976              		.loc 1 945 0
 1977 0080 B5F1FF3F 		cmp	r5, #-1
 1978 0084 EBD0     		beq	.L125
 1979              		.loc 1 945 0 is_stmt 0 discriminator 1
 1980 0086 049A     		ldr	r2, [sp, #16]
 1981 0088 002A     		cmp	r2, #0
 1982 008a E8D1     		bne	.L125
 1983              	.L133:
 1984              		.loc 1 956 0 is_stmt 1
 1985 008c 4FF0FF30 		mov	r0, #-1
 1986 0090 1EE0     		b	.L126
 1987              	.L135:
 1988              		.loc 1 951 0
 1989              	@ 951 "../chibios_2.4.x/os/hal/platforms/STM32/i2c_lld.c" 1
 1990 0092 FFF7FEFF 		bl      _port_lock
 1991              	@ 0 "" 2
 1992              		.thumb
 1993 0096 FFF7FEFF 		bl	dbg_check_lock
 1994              		.loc 1 955 0
 1995 009a B5F1FF3F 		cmp	r5, #-1
 1996 009e 1ED1     		bne	.L136
 1997              		.loc 1 959 0
 1998 00a0 09F0FE09 		and	r9, r9, #254
 1999 00a4 A4F80890 		strh	r9, [r4, #8]	@ movhi
 2000              		.loc 1 960 0
 2001 00a8 A188     		ldrh	r1, [r4, #4]
 2002              		.loc 1 965 0
 2003 00aa 1E4D     		ldr	r5, .L137+4
 2004              		.loc 1 960 0
 2005 00ac 8BB2     		uxth	r3, r1
 2006 00ae 43F4007E 		orr	lr, r3, #512
 2007 00b2 A4F804E0 		strh	lr, [r4, #4]	@ movhi
 2008              		.loc 1 961 0
 2009 00b6 2288     		ldrh	r2, [r4, #0]
 2010              		.loc 1 965 0
 2011 00b8 E969     		ldr	r1, [r5, #28]
 2012              		.loc 1 961 0
 2013 00ba 90B2     		uxth	r0, r2
 2014 00bc 40F4806C 		orr	ip, r0, #1024
 2015 00c0 A4F800C0 		strh	ip, [r4, #0]	@ movhi
 2016              		.loc 1 966 0
 2017 00c4 0220     		movs	r0, #2
 2018              		.loc 1 965 0
 2019 00c6 F161     		str	r1, [r6, #28]
 2020              		.loc 1 966 0
 2021 00c8 FFF7FEFF 		bl	chSchGoSleepS
 2022              	.L130:
 2023              		.loc 1 970 0
 2024 00cc E869     		ldr	r0, [r5, #28]
 2025 00ce 806A     		ldr	r0, [r0, #40]
 2026              	.L126:
 2027              		.loc 1 971 0
 2028 00d0 07B0     		add	sp, sp, #28
 2029 00d2 BDE8F083 		pop	{r4, r5, r6, r7, r8, r9, pc}
 2030              	.LVL133:
 2031              	.L122:
ARM GAS  /tmp/ccHbW5dC.s 			page 37


 2032              		.loc 1 917 0 discriminator 2
 2033 00d6 1448     		ldr	r0, .L137+8
 2034 00d8 FFF7FEFF 		bl	chDbgPanic
 2035              	.LVL134:
 2036 00dc 9EE7     		b	.L121
 2037              	.L136:
 2038              		.loc 1 955 0 discriminator 1
 2039 00de 049B     		ldr	r3, [sp, #16]
 2040 00e0 002B     		cmp	r3, #0
 2041 00e2 D3D0     		beq	.L133
 2042              		.loc 1 959 0
 2043 00e4 09F0FE09 		and	r9, r9, #254
 2044 00e8 A4F80890 		strh	r9, [r4, #8]	@ movhi
 2045              		.loc 1 960 0
 2046 00ec A388     		ldrh	r3, [r4, #4]
 2047              		.loc 1 965 0
 2048 00ee 0D4D     		ldr	r5, .L137+4
 2049              		.loc 1 960 0
 2050 00f0 9AB2     		uxth	r2, r3
 2051 00f2 42F40070 		orr	r0, r2, #512
 2052 00f6 A080     		strh	r0, [r4, #4]	@ movhi
 2053              		.loc 1 961 0
 2054 00f8 2188     		ldrh	r1, [r4, #0]
 2055              		.loc 1 965 0
 2056 00fa EB69     		ldr	r3, [r5, #28]
 2057              		.loc 1 961 0
 2058 00fc 1FFA81FE 		uxth	lr, r1
 2059 0100 4EF4806C 		orr	ip, lr, #1024
 2060 0104 A4F800C0 		strh	ip, [r4, #0]	@ movhi
 2061              		.loc 1 966 0
 2062 0108 0220     		movs	r0, #2
 2063              		.loc 1 965 0
 2064 010a F361     		str	r3, [r6, #28]
 2065              		.loc 1 966 0
 2066 010c FFF7FEFF 		bl	chSchGoSleepS
 2067              		.loc 1 967 0
 2068 0110 049A     		ldr	r2, [sp, #16]
 2069 0112 002A     		cmp	r2, #0
 2070 0114 DAD0     		beq	.L130
 2071              		.loc 1 968 0
 2072 0116 01A8     		add	r0, sp, #4
 2073 0118 FFF7FEFF 		bl	chVTResetI
 2074 011c D6E7     		b	.L130
 2075              	.L138:
 2076 011e 00BF     		.align	2
 2077              	.L137:
 2078 0120 00000000 		.word	i2c_lld_safety_timeout
 2079 0124 00000000 		.word	rlist
 2080 0128 0C010000 		.word	.LC11
 2081              		.cfi_endproc
 2082              	.LFE70:
 2083              		.size	i2c_lld_slave_receive_timeout, .-i2c_lld_slave_receive_timeout
 2084 012c AFF30080 		.section	.text.i2c_lld_slave_transmit_timeout,"ax",%progbits
 2085              		.align	2
 2086              		.p2align 4,,15
 2087              		.global	i2c_lld_slave_transmit_timeout
 2088              		.thumb
ARM GAS  /tmp/ccHbW5dC.s 			page 38


 2089              		.thumb_func
 2090              		.type	i2c_lld_slave_transmit_timeout, %function
 2091              	i2c_lld_slave_transmit_timeout:
 2092              	.LFB71:
 2093              		.loc 1 977 0
 2094              		.cfi_startproc
 2095              		@ args = 12, pretend = 0, frame = 24
 2096              		@ frame_needed = 0, uses_anonymous_args = 0
 2097              	.LVL135:
 2098 0000 2DE9F04F 		push	{r4, r5, r6, r7, r8, r9, sl, fp, lr}
 2099              	.LCFI15:
 2100              		.cfi_def_cfa_offset 36
 2101 0004 87B0     		sub	sp, sp, #28
 2102              	.LCFI16:
 2103              		.cfi_def_cfa_offset 64
 2104              		.loc 1 977 0
 2105 0006 119F     		ldr	r7, [sp, #68]
 2106              		.cfi_offset 14, -4
 2107              		.cfi_offset 11, -8
 2108              		.cfi_offset 10, -12
 2109              		.cfi_offset 9, -16
 2110              		.cfi_offset 8, -20
 2111              		.cfi_offset 7, -24
 2112              		.cfi_offset 6, -28
 2113              		.cfi_offset 5, -32
 2114              		.cfi_offset 4, -36
 2115 0008 0646     		mov	r6, r0
 2116 000a 8846     		mov	r8, r1
 2117 000c 9146     		mov	r9, r2
 2118 000e 9A46     		mov	sl, r3
 2119 0010 DDF840B0 		ldr	fp, [sp, #64]
 2120 0014 129D     		ldr	r5, [sp, #72]
 2121              		.loc 1 978 0
 2122 0016 046B     		ldr	r4, [r0, #48]
 2123              	.LVL136:
 2124              		.loc 1 982 0
 2125 0018 27B1     		cbz	r7, .L140
 2126              	.LVL137:
 2127              		.loc 1 982 0 is_stmt 0 discriminator 1
 2128 001a 012F     		cmp	r7, #1
 2129 001c 5FD9     		bls	.L141
 2130              		.loc 1 982 0 discriminator 3
 2131 001e BBF1000F 		cmp	fp, #0
 2132 0022 5CD0     		beq	.L141
 2133              	.LVL138:
 2134              	.L140:
 2135              		.loc 1 987 0 is_stmt 1
 2136 0024 B5F1FF3F 		cmp	r5, #-1
 2137 0028 05D0     		beq	.L142
 2138              		.loc 1 988 0
 2139 002a 01A8     		add	r0, sp, #4
 2140 002c 2946     		mov	r1, r5
 2141 002e 3E4A     		ldr	r2, .L156
 2142 0030 3346     		mov	r3, r6
 2143 0032 FFF7FEFF 		bl	chVTSetI
 2144              	.L142:
 2145              		.loc 1 991 0
ARM GAS  /tmp/ccHbW5dC.s 			page 39


 2146 0036 FFF7FEFF 		bl	dbg_check_unlock
 2147              	@ 991 "../chibios_2.4.x/os/hal/platforms/STM32/i2c_lld.c" 1
 2148 003a FFF7FEFF 		bl      _port_unlock
 2149              	@ 0 "" 2
 2150              		.loc 1 998 0
 2151              		.thumb
 2152 003e F36A     		ldr	r3, [r6, #44]
 2153              		.loc 1 1002 0
 2154 0040 B06A     		ldr	r0, [r6, #40]
 2155              		.loc 1 998 0
 2156 0042 1A68     		ldr	r2, [r3, #0]
 2157              		.loc 1 1002 0
 2158 0044 0368     		ldr	r3, [r0, #0]
 2159              		.loc 1 994 0
 2160 0046 4FEA4808 		lsl	r8, r8, #1
 2161              		.loc 1 995 0
 2162 004a 0021     		movs	r1, #0
 2163              		.loc 1 994 0
 2164 004c A6F82080 		strh	r8, [r6, #32]	@ movhi
 2165              		.loc 1 995 0
 2166 0050 B160     		str	r1, [r6, #8]
 2167              		.loc 1 998 0
 2168 0052 C2F80C90 		str	r9, [r2, #12]
 2169              		.loc 1 999 0
 2170 0056 C2F804A0 		str	sl, [r2, #4]
 2171              		.loc 1 1002 0
 2172 005a C3F80CB0 		str	fp, [r3, #12]
 2173              		.loc 1 1003 0
 2174 005e 5F60     		str	r7, [r3, #4]
 2175              		.loc 1 1007 0
 2176 0060 03E0     		b	.L143
 2177              	.L144:
 2178              		.loc 1 1012 0
 2179 0062 FFF7FEFF 		bl	dbg_check_unlock
 2180              	@ 1012 "../chibios_2.4.x/os/hal/platforms/STM32/i2c_lld.c" 1
 2181 0066 FFF7FEFF 		bl      _port_unlock
 2182              	@ 0 "" 2
 2183              		.thumb
 2184              	.L143:
 2185              		.loc 1 1007 0 discriminator 1
 2186 006a B4F818C0 		ldrh	ip, [r4, #24]
 2187 006e 1CF0020F 		tst	ip, #2
 2188 0072 04D1     		bne	.L146
 2189              		.loc 1 1007 0 is_stmt 0 discriminator 2
 2190 0074 B4F800E0 		ldrh	lr, [r4, #0]
 2191 0078 1EF4007F 		tst	lr, #512
 2192 007c 0CD0     		beq	.L154
 2193              	.L146:
 2194              		.loc 1 1009 0 is_stmt 1
 2195              	@ 1009 "../chibios_2.4.x/os/hal/platforms/STM32/i2c_lld.c" 1
 2196 007e FFF7FEFF 		bl      _port_lock
 2197              	@ 0 "" 2
 2198              		.thumb
 2199 0082 FFF7FEFF 		bl	dbg_check_lock
 2200              		.loc 1 1010 0
 2201 0086 B5F1FF3F 		cmp	r5, #-1
 2202 008a EAD0     		beq	.L144
ARM GAS  /tmp/ccHbW5dC.s 			page 40


 2203              		.loc 1 1010 0 is_stmt 0 discriminator 1
 2204 008c 049A     		ldr	r2, [sp, #16]
 2205 008e 002A     		cmp	r2, #0
 2206 0090 E7D1     		bne	.L144
 2207              	.L152:
 2208              		.loc 1 1021 0 is_stmt 1
 2209 0092 4FF0FF30 		mov	r0, #-1
 2210 0096 1FE0     		b	.L145
 2211              	.L154:
 2212              		.loc 1 1016 0
 2213              	@ 1016 "../chibios_2.4.x/os/hal/platforms/STM32/i2c_lld.c" 1
 2214 0098 FFF7FEFF 		bl      _port_lock
 2215              	@ 0 "" 2
 2216              		.thumb
 2217 009c FFF7FEFF 		bl	dbg_check_lock
 2218              		.loc 1 1020 0
 2219 00a0 B5F1FF3F 		cmp	r5, #-1
 2220 00a4 1FD1     		bne	.L155
 2221              		.loc 1 1024 0
 2222 00a6 08F0FE08 		and	r8, r8, #254
 2223 00aa A4F80880 		strh	r8, [r4, #8]	@ movhi
 2224              		.loc 1 1025 0
 2225 00ae A388     		ldrh	r3, [r4, #4]
 2226              		.loc 1 1030 0
 2227 00b0 1E4D     		ldr	r5, .L156+4
 2228              		.loc 1 1025 0
 2229 00b2 99B2     		uxth	r1, r3
 2230 00b4 41F4007E 		orr	lr, r1, #512
 2231 00b8 A4F804E0 		strh	lr, [r4, #4]	@ movhi
 2232              		.loc 1 1026 0
 2233 00bc B4F800C0 		ldrh	ip, [r4, #0]
 2234              		.loc 1 1030 0
 2235 00c0 EB69     		ldr	r3, [r5, #28]
 2236              		.loc 1 1026 0
 2237 00c2 1FFA8CF2 		uxth	r2, ip
 2238 00c6 42F48060 		orr	r0, r2, #1024
 2239 00ca 2080     		strh	r0, [r4, #0]	@ movhi
 2240              		.loc 1 1031 0
 2241 00cc 0220     		movs	r0, #2
 2242              		.loc 1 1030 0
 2243 00ce F361     		str	r3, [r6, #28]
 2244              		.loc 1 1031 0
 2245 00d0 FFF7FEFF 		bl	chSchGoSleepS
 2246              	.L149:
 2247              		.loc 1 1035 0
 2248 00d4 E869     		ldr	r0, [r5, #28]
 2249 00d6 806A     		ldr	r0, [r0, #40]
 2250              	.L145:
 2251              		.loc 1 1036 0
 2252 00d8 07B0     		add	sp, sp, #28
 2253 00da BDE8F08F 		pop	{r4, r5, r6, r7, r8, r9, sl, fp, pc}
 2254              	.LVL139:
 2255              	.L141:
 2256              		.loc 1 982 0 discriminator 2
 2257 00de 1448     		ldr	r0, .L156+8
 2258 00e0 FFF7FEFF 		bl	chDbgPanic
 2259              	.LVL140:
ARM GAS  /tmp/ccHbW5dC.s 			page 41


 2260 00e4 9EE7     		b	.L140
 2261              	.L155:
 2262              		.loc 1 1020 0 discriminator 1
 2263 00e6 0499     		ldr	r1, [sp, #16]
 2264 00e8 0029     		cmp	r1, #0
 2265 00ea D2D0     		beq	.L152
 2266              		.loc 1 1024 0
 2267 00ec 08F0FE08 		and	r8, r8, #254
 2268 00f0 A4F80880 		strh	r8, [r4, #8]	@ movhi
 2269              		.loc 1 1025 0
 2270 00f4 A188     		ldrh	r1, [r4, #4]
 2271              		.loc 1 1030 0
 2272 00f6 0D4D     		ldr	r5, .L156+4
 2273              		.loc 1 1025 0
 2274 00f8 8AB2     		uxth	r2, r1
 2275 00fa 42F40070 		orr	r0, r2, #512
 2276 00fe A080     		strh	r0, [r4, #4]	@ movhi
 2277              		.loc 1 1026 0
 2278 0100 2388     		ldrh	r3, [r4, #0]
 2279              		.loc 1 1030 0
 2280 0102 E969     		ldr	r1, [r5, #28]
 2281              		.loc 1 1026 0
 2282 0104 1FFA83FE 		uxth	lr, r3
 2283 0108 4EF4806C 		orr	ip, lr, #1024
 2284 010c A4F800C0 		strh	ip, [r4, #0]	@ movhi
 2285              		.loc 1 1031 0
 2286 0110 0220     		movs	r0, #2
 2287              		.loc 1 1030 0
 2288 0112 F161     		str	r1, [r6, #28]
 2289              		.loc 1 1031 0
 2290 0114 FFF7FEFF 		bl	chSchGoSleepS
 2291              		.loc 1 1032 0
 2292 0118 049A     		ldr	r2, [sp, #16]
 2293 011a 002A     		cmp	r2, #0
 2294 011c DAD0     		beq	.L149
 2295              		.loc 1 1033 0
 2296 011e 01A8     		add	r0, sp, #4
 2297 0120 FFF7FEFF 		bl	chVTResetI
 2298 0124 D6E7     		b	.L149
 2299              	.L157:
 2300 0126 00BF     		.align	2
 2301              	.L156:
 2302 0128 00000000 		.word	i2c_lld_safety_timeout
 2303 012c 00000000 		.word	rlist
 2304 0130 0C010000 		.word	.LC11
 2305              		.cfi_endproc
 2306              	.LFE71:
 2307              		.size	i2c_lld_slave_transmit_timeout, .-i2c_lld_slave_transmit_timeout
 2308              		.global	I2CD1
 2309 0134 AFF30080 		.section	.rodata.str1.4,"aMS",%progbits,1
 2309      AFF30080 
 2309      AFF30080 
 2310              		.align	2
 2311              	.LC0:
 2312 0000 6932635F 		.ascii	"i2c_lld_start(), #1\000"
 2312      6C6C645F 
 2312      73746172 
ARM GAS  /tmp/ccHbW5dC.s 			page 42


 2312      7428292C 
 2312      20233100 
 2313              	.LC1:
 2314 0014 6932635F 		.ascii	"i2c_lld_start(), #2\000"
 2314      6C6C645F 
 2314      73746172 
 2314      7428292C 
 2314      20233200 
 2315              	.LC2:
 2316 0028 22693263 		.ascii	"\"i2c_lld_set_clock\"()\000"
 2316      5F6C6C64 
 2316      5F736574 
 2316      5F636C6F 
 2316      636B2228 
 2317 003e 0000     		.space	2
 2318              	.LC3:
 2319 0040 6932635F 		.ascii	"i2c_lld_set_clock(), #1\000"
 2319      6C6C645F 
 2319      7365745F 
 2319      636C6F63 
 2319      6B28292C 
 2320              	.LC4:
 2321 0058 6932635F 		.ascii	"i2c_lld_set_clock(), #2\000"
 2321      6C6C645F 
 2321      7365745F 
 2321      636C6F63 
 2321      6B28292C 
 2322              	.LC5:
 2323 0070 6932635F 		.ascii	"i2c_lld_set_clock(), #3\000"
 2323      6C6C645F 
 2323      7365745F 
 2323      636C6F63 
 2323      6B28292C 
 2324              	.LC6:
 2325 0088 6932635F 		.ascii	"i2c_lld_set_clock(), #4\000"
 2325      6C6C645F 
 2325      7365745F 
 2325      636C6F63 
 2325      6B28292C 
 2326              	.LC7:
 2327 00a0 6932635F 		.ascii	"i2c_lld_set_clock(), #5\000"
 2327      6C6C645F 
 2327      7365745F 
 2327      636C6F63 
 2327      6B28292C 
 2328              	.LC8:
 2329 00b8 6932635F 		.ascii	"i2c_lld_set_clock(), #6\000"
 2329      6C6C645F 
 2329      7365745F 
 2329      636C6F63 
 2329      6B28292C 
 2330              	.LC9:
 2331 00d0 6932635F 		.ascii	"i2c_lld_set_clock(), #8\000"
 2331      6C6C645F 
 2331      7365745F 
 2331      636C6F63 
 2331      6B28292C 
ARM GAS  /tmp/ccHbW5dC.s 			page 43


 2332              	.LC10:
 2333 00e8 22693263 		.ascii	"\"i2c_lld_master_receive_timeout\"()\000"
 2333      5F6C6C64 
 2333      5F6D6173 
 2333      7465725F 
 2333      72656365 
 2334 010b 00       		.space	1
 2335              	.LC11:
 2336 010c 22693263 		.ascii	"\"i2c_lld_master_transmit_timeout\"()\000"
 2336      5F6C6C64 
 2336      5F6D6173 
 2336      7465725F 
 2336      7472616E 
 2337              		.section	.bss.I2CD1,"aw",%nobits
 2338              		.align	2
 2339              		.set	.LANCHOR0,. + 0
 2340              		.type	I2CD1, %object
 2341              		.size	I2CD1, 52
 2342              	I2CD1:
 2343 0000 00000000 		.space	52
 2343      00000000 
 2343      00000000 
 2343      00000000 
 2343      00000000 
 2344              		.text
 2345              	.Letext0: