ARM GAS  C:\DOCUME~1\z_80\LOCALS~1\Temp\ccYNxRZe.s 			page 1


   1              		.syntax unified
   2              		.cpu cortex-m3
   3              		.fpu softvfp
   4              		.eabi_attribute 20, 1
   5              		.eabi_attribute 21, 1
   6              		.eabi_attribute 23, 3
   7              		.eabi_attribute 24, 1
   8              		.eabi_attribute 25, 1
   9              		.eabi_attribute 26, 1
  10              		.eabi_attribute 30, 2
  11              		.eabi_attribute 18, 4
  12              		.thumb
  13              		.file	"pal.c"
  20 0000 FD010000 		.text
  20      02009501 
  20      00000201 
  20      FB0E0D00 
  20      01010101 
  21              	.Ltext0:
  22              		.cfi_sections	.debug_frame
  23              		.section	.text.palReadBus,"ax",%progbits
  24              		.align	2
  25              		.p2align 4,,15
  26              		.global	palReadBus
  27              		.thumb
  28              		.thumb_func
  29              		.type	palReadBus, %function
  30              	palReadBus:
  31              	.LFB55:
  32              		.file 1 "../chibios_2.4.x/os/hal/src/pal.c"
  33              		.loc 1 76 0
  34              		.cfi_startproc
  35              		@ args = 0, pretend = 0, frame = 0
  36              		@ frame_needed = 0, uses_anonymous_args = 0
  37              	.LVL0:
  38 0000 10B5     		push	{r4, lr}
  39              	.LCFI0:
  40              		.cfi_def_cfa_offset 8
  41              		.loc 1 78 0
  42 0002 0446     		mov	r4, r0
  43              		.cfi_offset 14, -4
  44              		.cfi_offset 4, -8
  45 0004 10B1     		cbz	r0, .L2
  46              		.loc 1 78 0 is_stmt 0 discriminator 2
  47 0006 8368     		ldr	r3, [r0, #8]
  48 0008 0F2B     		cmp	r3, #15
  49 000a 03D9     		bls	.L3
  50              	.L2:
  51              		.loc 1 78 0 discriminator 1
  52 000c 0548     		ldr	r0, .L5
  53              	.LVL1:
ARM GAS  C:\DOCUME~1\z_80\LOCALS~1\Temp\ccYNxRZe.s 			page 2


  54 000e FFF7FEFF 		bl	chDbgPanic
  55 0012 A368     		ldr	r3, [r4, #8]
  56              	.L3:
  57              		.loc 1 81 0 is_stmt 1
  58 0014 2068     		ldr	r0, [r4, #0]
  59 0016 6268     		ldr	r2, [r4, #4]
  60 0018 8168     		ldr	r1, [r0, #8]
  61 001a 31FA03F3 		lsrs	r3, r1, r3
  62              		.loc 1 82 0
  63 001e 03EA0200 		and	r0, r3, r2
  64 0022 10BD     		pop	{r4, pc}
  65              	.L6:
  66              		.align	2
  67              	.L5:
  68 0024 00000000 		.word	.LC0
  69              		.cfi_endproc
  70              	.LFE55:
  71              		.size	palReadBus, .-palReadBus
  72 0028 AFF30080 		.section	.text.palWriteBus,"ax",%progbits
  72      AFF30080 
  73              		.align	2
  74              		.p2align 4,,15
  75              		.global	palWriteBus
  76              		.thumb
  77              		.thumb_func
  78              		.type	palWriteBus, %function
  79              	palWriteBus:
  80              	.LFB56:
  81              		.loc 1 101 0
  82              		.cfi_startproc
  83              		@ args = 0, pretend = 0, frame = 0
  84              		@ frame_needed = 0, uses_anonymous_args = 0
  85              	.LVL2:
  86 0000 38B5     		push	{r3, r4, r5, lr}
  87              	.LCFI1:
  88              		.cfi_def_cfa_offset 16
  89              		.loc 1 103 0
  90 0002 0446     		mov	r4, r0
  91              		.cfi_offset 14, -4
  92              		.cfi_offset 5, -8
  93              		.cfi_offset 4, -12
  94              		.cfi_offset 3, -16
  95              		.loc 1 101 0
  96 0004 0D46     		mov	r5, r1
  97              		.loc 1 103 0
  98 0006 10B1     		cbz	r0, .L8
  99              		.loc 1 103 0 is_stmt 0 discriminator 2
 100 0008 8368     		ldr	r3, [r0, #8]
 101 000a 0F2B     		cmp	r3, #15
 102 000c 03D9     		bls	.L9
 103              	.L8:
 104              		.loc 1 103 0 discriminator 1
 105 000e 0948     		ldr	r0, .L10
 106              	.LVL3:
 107 0010 FFF7FEFF 		bl	chDbgPanic
 108              	.LVL4:
 109 0014 A368     		ldr	r3, [r4, #8]
ARM GAS  C:\DOCUME~1\z_80\LOCALS~1\Temp\ccYNxRZe.s 			page 3


 110              	.L9:
 111              		.loc 1 106 0 is_stmt 1
 112 0016 6268     		ldr	r2, [r4, #4]
 113 0018 03F11001 		add	r1, r3, #16
 114 001c 22EA0500 		bic	r0, r2, r5
 115 0020 1540     		ands	r5, r5, r2
 116              	.LVL5:
 117 0022 8840     		lsls	r0, r0, r1
 118 0024 15FA03F2 		lsls	r2, r5, r3
 119 0028 2168     		ldr	r1, [r4, #0]
 120 002a 40EA0203 		orr	r3, r0, r2
 121 002e 0B61     		str	r3, [r1, #16]
 122              		.loc 1 107 0
 123 0030 38BD     		pop	{r3, r4, r5, pc}
 124              	.L11:
 125 0032 00BF     		.align	2
 126              	.L10:
 127 0034 10000000 		.word	.LC1
 128              		.cfi_endproc
 129              	.LFE56:
 130              		.size	palWriteBus, .-palWriteBus
 131 0038 AFF30080 		.section	.text.palSetBusMode,"ax",%progbits
 131      AFF30080 
 132              		.align	2
 133              		.p2align 4,,15
 134              		.global	palSetBusMode
 135              		.thumb
 136              		.thumb_func
 137              		.type	palSetBusMode, %function
 138              	palSetBusMode:
 139              	.LFB57:
 140              		.loc 1 124 0
 141              		.cfi_startproc
 142              		@ args = 0, pretend = 0, frame = 0
 143              		@ frame_needed = 0, uses_anonymous_args = 0
 144              	.LVL6:
 145 0000 70B5     		push	{r4, r5, r6, lr}
 146              	.LCFI2:
 147              		.cfi_def_cfa_offset 16
 148              		.loc 1 126 0
 149 0002 0446     		mov	r4, r0
 150              		.cfi_offset 14, -4
 151              		.cfi_offset 6, -8
 152              		.cfi_offset 5, -12
 153              		.cfi_offset 4, -16
 154              		.loc 1 124 0
 155 0004 0D46     		mov	r5, r1
 156              		.loc 1 126 0
 157 0006 10B1     		cbz	r0, .L13
 158              		.loc 1 126 0 is_stmt 0 discriminator 2
 159 0008 8368     		ldr	r3, [r0, #8]
 160 000a 0F2B     		cmp	r3, #15
 161 000c 03D9     		bls	.L14
 162              	.L13:
 163              		.loc 1 126 0 discriminator 1
 164 000e 0648     		ldr	r0, .L15
 165              	.LVL7:
ARM GAS  C:\DOCUME~1\z_80\LOCALS~1\Temp\ccYNxRZe.s 			page 4


 166 0010 FFF7FEFF 		bl	chDbgPanic
 167              	.LVL8:
 168 0014 A368     		ldr	r3, [r4, #8]
 169              	.L14:
 170              		.loc 1 129 0 is_stmt 1
 171 0016 6168     		ldr	r1, [r4, #4]
 172 0018 2068     		ldr	r0, [r4, #0]
 173 001a 9940     		lsls	r1, r1, r3
 174 001c 2A46     		mov	r2, r5
 175              		.loc 1 130 0
 176 001e BDE87040 		pop	{r4, r5, r6, lr}
 177              		.loc 1 129 0
 178 0022 FFF7FEBF 		b	_pal_lld_setgroupmode
 179              	.L16:
 180 0026 00BF     		.align	2
 181              	.L15:
 182 0028 20000000 		.word	.LC2
 183              		.cfi_endproc
 184              	.LFE57:
 185              		.size	palSetBusMode, .-palSetBusMode
 186 002c AFF30080 		.section	.rodata.str1.4,"aMS",%progbits,1
 187              		.align	2
 188              	.LC0:
 189 0000 2270616C 		.ascii	"\"palReadBus\"()\000"
 189      52656164 
 189      42757322 
 189      282900
 190 000f 00       		.space	1
 191              	.LC1:
 192 0010 2270616C 		.ascii	"\"palWriteBus\"()\000"
 192      57726974 
 192      65427573 
 192      22282900 
 193              	.LC2:
 194 0020 2270616C 		.ascii	"\"palSetBusMode\"()\000"
 194      53657442 
 194      75734D6F 
 194      64652228 
 194      2900
 195 0032 0000     		.text
 196              	.Letext0: