ARM GAS  C:\DOCUME~1\z_80\LOCALS~1\Temp\ccgOMXZf.s 			page 1


   1              		.syntax unified
   2              		.cpu cortex-m3
   3              		.fpu softvfp
   4              		.eabi_attribute 20, 1
   5              		.eabi_attribute 21, 1
   6              		.eabi_attribute 23, 3
   7              		.eabi_attribute 24, 1
   8              		.eabi_attribute 25, 1
   9              		.eabi_attribute 26, 1
  10              		.eabi_attribute 30, 2
  11              		.eabi_attribute 18, 4
  12              		.thumb
  13              		.file	"pal_lld.c"
  20 0000 1F020000 		.text
  20      02005401 
  20      00000201 
  20      FB0E0D00 
  20      01010101 
  21              	.Ltext0:
  22              		.cfi_sections	.debug_frame
  23              		.section	.text._pal_lld_init,"ax",%progbits
  24              		.align	2
  25              		.p2align 4,,15
  26              		.global	_pal_lld_init
  27              		.thumb
  28              		.thumb_func
  29              		.type	_pal_lld_init, %function
  30              	_pal_lld_init:
  31              	.LFB55:
  32              		.file 1 "../chibios_2.4.x/os/hal/platforms/STM32/GPIOv1/pal_lld.c"
  33              		.loc 1 84 0
  34              		.cfi_startproc
  35              		@ args = 0, pretend = 0, frame = 0
  36              		@ frame_needed = 0, uses_anonymous_args = 0
  37              		@ link register save eliminated.
  38              	.LVL0:
  39              		.loc 1 89 0
  40 0000 154B     		ldr	r3, .L2
  41              		.loc 1 84 0
  42 0002 30B4     		push	{r4, r5}
  43              	.LCFI0:
  44              		.cfi_def_cfa_offset 8
  45              		.loc 1 89 0
  46 0004 9A69     		ldr	r2, [r3, #24]
  47              		.loc 1 94 0
  48 0006 154D     		ldr	r5, .L2+4
  49              		.cfi_offset 5, -4
  50              		.cfi_offset 4, -8
  51              		.loc 1 89 0
  52 0008 42F07D04 		orr	r4, r2, #125
  53 000c 9C61     		str	r4, [r3, #24]
ARM GAS  C:\DOCUME~1\z_80\LOCALS~1\Temp\ccgOMXZf.s 			page 2


  54              		.loc 1 94 0
  55 000e 0168     		ldr	r1, [r0, #0]
  56              		.loc 1 97 0
  57 0010 134C     		ldr	r4, .L2+8
  58              		.loc 1 94 0
  59 0012 E960     		str	r1, [r5, #12]
  60              		.loc 1 95 0
  61 0014 8268     		ldr	r2, [r0, #8]
  62              		.loc 1 100 0
  63 0016 1349     		ldr	r1, .L2+12
  64              		.loc 1 95 0
  65 0018 6A60     		str	r2, [r5, #4]
  66              		.loc 1 96 0
  67 001a 4368     		ldr	r3, [r0, #4]
  68              		.loc 1 103 0
  69 001c 124A     		ldr	r2, .L2+16
  70              		.loc 1 96 0
  71 001e 2B60     		str	r3, [r5, #0]
  72              		.loc 1 97 0
  73 0020 C568     		ldr	r5, [r0, #12]
  74              		.loc 1 107 0
  75 0022 124B     		ldr	r3, .L2+20
  76              		.loc 1 97 0
  77 0024 E560     		str	r5, [r4, #12]
  78              		.loc 1 98 0
  79 0026 4569     		ldr	r5, [r0, #20]
  80 0028 6560     		str	r5, [r4, #4]
  81              		.loc 1 99 0
  82 002a 0569     		ldr	r5, [r0, #16]
  83 002c 2560     		str	r5, [r4, #0]
  84              		.loc 1 100 0
  85 002e 8469     		ldr	r4, [r0, #24]
  86 0030 CC60     		str	r4, [r1, #12]
  87              		.loc 1 101 0
  88 0032 046A     		ldr	r4, [r0, #32]
  89 0034 4C60     		str	r4, [r1, #4]
  90              		.loc 1 102 0
  91 0036 C469     		ldr	r4, [r0, #28]
  92 0038 0C60     		str	r4, [r1, #0]
  93              		.loc 1 103 0
  94 003a 416A     		ldr	r1, [r0, #36]
  95 003c D160     		str	r1, [r2, #12]
  96              		.loc 1 104 0
  97 003e C16A     		ldr	r1, [r0, #44]
  98 0040 5160     		str	r1, [r2, #4]
  99              		.loc 1 105 0
 100 0042 816A     		ldr	r1, [r0, #40]
 101 0044 1160     		str	r1, [r2, #0]
 102              		.loc 1 107 0
 103 0046 026B     		ldr	r2, [r0, #48]
 104 0048 DA60     		str	r2, [r3, #12]
 105              		.loc 1 108 0
 106 004a 816B     		ldr	r1, [r0, #56]
 107 004c 5960     		str	r1, [r3, #4]
 108              		.loc 1 109 0
 109 004e 426B     		ldr	r2, [r0, #52]
 110 0050 1A60     		str	r2, [r3, #0]
ARM GAS  C:\DOCUME~1\z_80\LOCALS~1\Temp\ccgOMXZf.s 			page 3


 111              		.loc 1 121 0
 112 0052 30BC     		pop	{r4, r5}
 113 0054 7047     		bx	lr
 114              	.L3:
 115 0056 00BF     		.align	2
 116              	.L2:
 117 0058 00100240 		.word	1073876992
 118 005c 00080140 		.word	1073809408
 119 0060 000C0140 		.word	1073810432
 120 0064 00100140 		.word	1073811456
 121 0068 00140140 		.word	1073812480
 122 006c 00180140 		.word	1073813504
 123              		.cfi_endproc
 124              	.LFE55:
 125              		.size	_pal_lld_init, .-_pal_lld_init
 126              		.section	.text._pal_lld_setgroupmode,"ax",%progbits
 127              		.align	2
 128              		.p2align 4,,15
 129              		.global	_pal_lld_setgroupmode
 130              		.thumb
 131              		.thumb_func
 132              		.type	_pal_lld_setgroupmode, %function
 133              	_pal_lld_setgroupmode:
 134              	.LFB56:
 135              		.loc 1 140 0
 136              		.cfi_startproc
 137              		@ args = 0, pretend = 0, frame = 0
 138              		@ frame_needed = 0, uses_anonymous_args = 0
 139              		@ link register save eliminated.
 140              	.LVL1:
 141              		.loc 1 164 0
 142 0000 032A     		cmp	r2, #3
 143              		.loc 1 140 0
 144 0002 F0B4     		push	{r4, r5, r6, r7}
 145              	.LCFI1:
 146              		.cfi_def_cfa_offset 16
 147              		.loc 1 164 0
 148 0004 00F09A80 		beq	.L40
 149              		.cfi_offset 7, -4
 150              		.cfi_offset 6, -8
 151              		.cfi_offset 5, -12
 152              		.cfi_offset 4, -16
 153              		.loc 1 166 0
 154 0008 042A     		cmp	r2, #4
 155              		.loc 1 167 0
 156 000a 08BF     		it	eq
 157 000c 4161     		streq	r1, [r0, #20]
 158              	.L6:
 159              		.loc 1 168 0
 160 000e 4C4B     		ldr	r3, .L42
 161              		.loc 1 175 0
 162 0010 11F08007 		ands	r7, r1, #128
 163              		.loc 1 168 0
 164 0014 9B5C     		ldrb	r3, [r3, r2]	@ zero_extendqisi2
 165              	.LVL2:
 166              		.loc 1 175 0
 167 0016 40F08880 		bne	.L37
ARM GAS  C:\DOCUME~1\z_80\LOCALS~1\Temp\ccgOMXZf.s 			page 4


 168              	.LVL3:
 169              		.loc 1 176 0
 170 001a 0F24     		movs	r4, #15
 171              	.LVL4:
 172              		.loc 1 179 0
 173 001c 11F40045 		ands	r5, r1, #32768
 174 0020 40F08980 		bne	.L38
 175              	.L41:
 176              	.LVL5:
 177              		.loc 1 180 0
 178 0024 0F26     		movs	r6, #15
 179              	.LVL6:
 180              	.L8:
 181              		.loc 1 183 0
 182 0026 4A00     		lsls	r2, r1, #1
 183              	.LVL7:
 184              		.loc 1 171 0
 185 0028 2401     		lsls	r4, r4, #4
 186              	.LVL8:
 187              		.loc 1 172 0
 188 002a 3601     		lsls	r6, r6, #4
 189              	.LVL9:
 190              		.loc 1 173 0
 191 002c 3901     		lsls	r1, r7, #4
 192              	.LVL10:
 193              		.loc 1 174 0
 194 002e 2D01     		lsls	r5, r5, #4
 195              	.LVL11:
 196              		.loc 1 175 0
 197 0030 12F0800F 		tst	r2, #128
 198              		.loc 1 178 0
 199 0034 14BF     		ite	ne
 200 0036 1943     		orrne	r1, r1, r3
 201              	.LVL12:
 202              		.loc 1 176 0
 203 0038 44F00F04 		orreq	r4, r4, #15
 204              	.LVL13:
 205              		.loc 1 179 0
 206 003c 12F4004F 		tst	r2, #32768
 207              		.loc 1 182 0
 208 0040 14BF     		ite	ne
 209 0042 1D43     		orrne	r5, r5, r3
 210              	.LVL14:
 211              		.loc 1 180 0
 212 0044 46F00F06 		orreq	r6, r6, #15
 213              	.LVL15:
 214              		.loc 1 183 0
 215 0048 5200     		lsls	r2, r2, #1
 216              	.LVL16:
 217              		.loc 1 171 0
 218 004a 2401     		lsls	r4, r4, #4
 219              	.LVL17:
 220              		.loc 1 172 0
 221 004c 3601     		lsls	r6, r6, #4
 222              	.LVL18:
 223              		.loc 1 173 0
 224 004e 0901     		lsls	r1, r1, #4
ARM GAS  C:\DOCUME~1\z_80\LOCALS~1\Temp\ccgOMXZf.s 			page 5


 225              	.LVL19:
 226              		.loc 1 174 0
 227 0050 2D01     		lsls	r5, r5, #4
 228              	.LVL20:
 229              		.loc 1 175 0
 230 0052 12F0800F 		tst	r2, #128
 231              		.loc 1 178 0
 232 0056 14BF     		ite	ne
 233 0058 1943     		orrne	r1, r1, r3
 234              	.LVL21:
 235              		.loc 1 176 0
 236 005a 44F00F04 		orreq	r4, r4, #15
 237              	.LVL22:
 238              		.loc 1 179 0
 239 005e 12F4004F 		tst	r2, #32768
 240              		.loc 1 182 0
 241 0062 14BF     		ite	ne
 242 0064 1D43     		orrne	r5, r5, r3
 243              	.LVL23:
 244              		.loc 1 180 0
 245 0066 46F00F06 		orreq	r6, r6, #15
 246              	.LVL24:
 247              		.loc 1 183 0
 248 006a 5200     		lsls	r2, r2, #1
 249              	.LVL25:
 250              		.loc 1 171 0
 251 006c 2401     		lsls	r4, r4, #4
 252              	.LVL26:
 253              		.loc 1 172 0
 254 006e 3601     		lsls	r6, r6, #4
 255              	.LVL27:
 256              		.loc 1 173 0
 257 0070 0901     		lsls	r1, r1, #4
 258              	.LVL28:
 259              		.loc 1 174 0
 260 0072 2D01     		lsls	r5, r5, #4
 261              	.LVL29:
 262              		.loc 1 175 0
 263 0074 12F0800F 		tst	r2, #128
 264              		.loc 1 178 0
 265 0078 14BF     		ite	ne
 266 007a 1943     		orrne	r1, r1, r3
 267              	.LVL30:
 268              		.loc 1 176 0
 269 007c 44F00F04 		orreq	r4, r4, #15
 270              	.LVL31:
 271              		.loc 1 179 0
 272 0080 12F4004F 		tst	r2, #32768
 273              		.loc 1 182 0
 274 0084 14BF     		ite	ne
 275 0086 1D43     		orrne	r5, r5, r3
 276              	.LVL32:
 277              		.loc 1 180 0
 278 0088 46F00F06 		orreq	r6, r6, #15
 279              	.LVL33:
 280              		.loc 1 183 0
 281 008c 5200     		lsls	r2, r2, #1
ARM GAS  C:\DOCUME~1\z_80\LOCALS~1\Temp\ccgOMXZf.s 			page 6


 282              	.LVL34:
 283              		.loc 1 171 0
 284 008e 2401     		lsls	r4, r4, #4
 285              	.LVL35:
 286              		.loc 1 172 0
 287 0090 3601     		lsls	r6, r6, #4
 288              	.LVL36:
 289              		.loc 1 173 0
 290 0092 0901     		lsls	r1, r1, #4
 291              	.LVL37:
 292              		.loc 1 174 0
 293 0094 2D01     		lsls	r5, r5, #4
 294              	.LVL38:
 295              		.loc 1 175 0
 296 0096 12F0800F 		tst	r2, #128
 297              		.loc 1 178 0
 298 009a 14BF     		ite	ne
 299 009c 1943     		orrne	r1, r1, r3
 300              	.LVL39:
 301              		.loc 1 176 0
 302 009e 44F00F04 		orreq	r4, r4, #15
 303              	.LVL40:
 304              		.loc 1 179 0
 305 00a2 12F4004F 		tst	r2, #32768
 306              		.loc 1 182 0
 307 00a6 14BF     		ite	ne
 308 00a8 1D43     		orrne	r5, r5, r3
 309              	.LVL41:
 310              		.loc 1 180 0
 311 00aa 46F00F06 		orreq	r6, r6, #15
 312              	.LVL42:
 313              		.loc 1 183 0
 314 00ae 5200     		lsls	r2, r2, #1
 315              	.LVL43:
 316              		.loc 1 171 0
 317 00b0 2401     		lsls	r4, r4, #4
 318              	.LVL44:
 319              		.loc 1 172 0
 320 00b2 3601     		lsls	r6, r6, #4
 321              	.LVL45:
 322              		.loc 1 173 0
 323 00b4 0901     		lsls	r1, r1, #4
 324              	.LVL46:
 325              		.loc 1 174 0
 326 00b6 2D01     		lsls	r5, r5, #4
 327              	.LVL47:
 328              		.loc 1 175 0
 329 00b8 12F0800F 		tst	r2, #128
 330              		.loc 1 178 0
 331 00bc 14BF     		ite	ne
 332 00be 1943     		orrne	r1, r1, r3
 333              	.LVL48:
 334              		.loc 1 176 0
 335 00c0 44F00F04 		orreq	r4, r4, #15
 336              	.LVL49:
 337              		.loc 1 179 0
 338 00c4 12F4004F 		tst	r2, #32768
ARM GAS  C:\DOCUME~1\z_80\LOCALS~1\Temp\ccgOMXZf.s 			page 7


 339              		.loc 1 182 0
 340 00c8 14BF     		ite	ne
 341 00ca 1D43     		orrne	r5, r5, r3
 342              	.LVL50:
 343              		.loc 1 180 0
 344 00cc 46F00F06 		orreq	r6, r6, #15
 345              	.LVL51:
 346              		.loc 1 183 0
 347 00d0 5200     		lsls	r2, r2, #1
 348              	.LVL52:
 349              		.loc 1 171 0
 350 00d2 2401     		lsls	r4, r4, #4
 351              	.LVL53:
 352              		.loc 1 172 0
 353 00d4 3601     		lsls	r6, r6, #4
 354              	.LVL54:
 355              		.loc 1 173 0
 356 00d6 0901     		lsls	r1, r1, #4
 357              	.LVL55:
 358              		.loc 1 174 0
 359 00d8 2D01     		lsls	r5, r5, #4
 360              	.LVL56:
 361              		.loc 1 175 0
 362 00da 12F0800F 		tst	r2, #128
 363              		.loc 1 178 0
 364 00de 14BF     		ite	ne
 365 00e0 1943     		orrne	r1, r1, r3
 366              	.LVL57:
 367              		.loc 1 176 0
 368 00e2 44F00F04 		orreq	r4, r4, #15
 369              	.LVL58:
 370              		.loc 1 179 0
 371 00e6 12F4004F 		tst	r2, #32768
 372              		.loc 1 182 0
 373 00ea 14BF     		ite	ne
 374 00ec 1D43     		orrne	r5, r5, r3
 375              	.LVL59:
 376              		.loc 1 180 0
 377 00ee 46F00F06 		orreq	r6, r6, #15
 378              	.LVL60:
 379              		.loc 1 183 0
 380 00f2 5200     		lsls	r2, r2, #1
 381              	.LVL61:
 382              		.loc 1 171 0
 383 00f4 2401     		lsls	r4, r4, #4
 384              	.LVL62:
 385              		.loc 1 172 0
 386 00f6 3601     		lsls	r6, r6, #4
 387              	.LVL63:
 388              		.loc 1 173 0
 389 00f8 0901     		lsls	r1, r1, #4
 390              	.LVL64:
 391              		.loc 1 174 0
 392 00fa 2D01     		lsls	r5, r5, #4
 393              	.LVL65:
 394              		.loc 1 175 0
 395 00fc 12F0800F 		tst	r2, #128
ARM GAS  C:\DOCUME~1\z_80\LOCALS~1\Temp\ccgOMXZf.s 			page 8


 396              		.loc 1 178 0
 397 0100 14BF     		ite	ne
 398 0102 1943     		orrne	r1, r1, r3
 399              	.LVL66:
 400              		.loc 1 176 0
 401 0104 44F00F04 		orreq	r4, r4, #15
 402              	.LVL67:
 403              		.loc 1 179 0
 404 0108 12F4004F 		tst	r2, #32768
 405              		.loc 1 182 0
 406 010c 18BF     		it	ne
 407 010e 1D43     		orrne	r5, r5, r3
 408              	.LVL68:
 409              		.loc 1 185 0
 410 0110 4368     		ldr	r3, [r0, #4]
 411              	.LVL69:
 412              		.loc 1 180 0
 413 0112 08BF     		it	eq
 414 0114 46F00F06 		orreq	r6, r6, #15
 415              	.LVL70:
 416              		.loc 1 185 0
 417 0118 1E40     		ands	r6, r6, r3
 418              	.LVL71:
 419 011a 3543     		orrs	r5, r5, r6
 420              	.LVL72:
 421 011c 4560     		str	r5, [r0, #4]
 422              		.loc 1 186 0
 423 011e 0268     		ldr	r2, [r0, #0]
 424 0120 1440     		ands	r4, r4, r2
 425              	.LVL73:
 426 0122 2143     		orrs	r1, r1, r4
 427              	.LVL74:
 428 0124 0160     		str	r1, [r0, #0]
 429              		.loc 1 187 0
 430 0126 F0BC     		pop	{r4, r5, r6, r7}
 431 0128 7047     		bx	lr
 432              	.LVL75:
 433              	.L37:
 434              		.loc 1 171 0
 435 012a 0024     		movs	r4, #0
 436              		.loc 1 179 0
 437 012c 11F40045 		ands	r5, r1, #32768
 438              		.loc 1 178 0
 439 0130 1F46     		mov	r7, r3
 440              	.LVL76:
 441              		.loc 1 179 0
 442 0132 3FF477AF 		beq	.L41
 443              	.LVL77:
 444              	.L38:
 445              		.loc 1 182 0
 446 0136 1D46     		mov	r5, r3
 447              		.loc 1 172 0
 448 0138 0026     		movs	r6, #0
 449 013a 74E7     		b	.L8
 450              	.LVL78:
 451              	.L40:
 452              		.loc 1 165 0
ARM GAS  C:\DOCUME~1\z_80\LOCALS~1\Temp\ccgOMXZf.s 			page 9


 453 013c 0161     		str	r1, [r0, #16]
 454 013e 66E7     		b	.L6
 455              	.L43:
 456              		.align	2
 457              	.L42:
 458 0140 00000000 		.word	.LANCHOR0
 459              		.cfi_endproc
 460              	.LFE56:
 461              		.size	_pal_lld_setgroupmode, .-_pal_lld_setgroupmode
 462 0144 AFF30080 		.section	.rodata.cfgtab.6169,"a",%progbits
 462      AFF30080 
 462      AFF30080 
 463              		.align	2
 464              		.set	.LANCHOR0,. + 0
 465              		.type	cfgtab.6169, %object
 466              		.size	cfgtab.6169, 18
 467              	cfgtab.6169:
 468 0000 04       		.byte	4
 469 0001 02       		.byte	2
 470 0002 04       		.byte	4
 471 0003 08       		.byte	8
 472 0004 08       		.byte	8
 473 0005 00       		.byte	0
 474 0006 03       		.byte	3
 475 0007 07       		.byte	7
 476 0008 08       		.byte	8
 477 0009 08       		.byte	8
 478 000a 08       		.byte	8
 479 000b 08       		.byte	8
 480 000c 08       		.byte	8
 481 000d 08       		.byte	8
 482 000e 08       		.byte	8
 483 000f 08       		.byte	8
 484 0010 0B       		.byte	11
 485 0011 0F       		.byte	15
 486 0012 0000     		.text
 487              	.Letext0: