ARM GAS  C:\DOCUME~1\z_80\LOCALS~1\Temp\ccUrn0HF.s 			page 1


   1              		.syntax unified
   2              		.cpu cortex-m3
   3              		.fpu softvfp
   4              		.eabi_attribute 20, 1
   5              		.eabi_attribute 21, 1
   6              		.eabi_attribute 23, 3
   7              		.eabi_attribute 24, 1
   8              		.eabi_attribute 25, 1
   9              		.eabi_attribute 26, 1
  10              		.eabi_attribute 30, 2
  11              		.eabi_attribute 18, 4
  12              		.thumb
  13              		.file	"pwm.c"
  20 0000 62020000 		.text
  20      02005E01 
  20      00000201 
  20      FB0E0D00 
  20      01010101 
  21              	.Ltext0:
  22              		.cfi_sections	.debug_frame
  23              		.section	.text.pwmInit,"ax",%progbits
  24              		.align	2
  25              		.p2align 4,,15
  26              		.global	pwmInit
  27              		.thumb
  28              		.thumb_func
  29              		.type	pwmInit, %function
  30              	pwmInit:
  31              	.LFB55:
  32              		.file 1 "../chibios_2.4.x/os/hal/src/pwm.c"
  33              		.loc 1 68 0
  34              		.cfi_startproc
  35              		@ args = 0, pretend = 0, frame = 0
  36              		@ frame_needed = 0, uses_anonymous_args = 0
  37              		@ link register save eliminated.
  38              		.loc 1 71 0
  39              		.loc 1 70 0
  40 0000 FFF7FEBF 		b	pwm_lld_init
  41              		.cfi_endproc
  42              	.LFE55:
  43              		.size	pwmInit, .-pwmInit
  44 0004 AFF30080 		.section	.text.pwmObjectInit,"ax",%progbits
  44      AFF30080 
  44      AFF30080 
  45              		.align	2
  46              		.p2align 4,,15
  47              		.global	pwmObjectInit
  48              		.thumb
  49              		.thumb_func
  50              		.type	pwmObjectInit, %function
  51              	pwmObjectInit:
ARM GAS  C:\DOCUME~1\z_80\LOCALS~1\Temp\ccUrn0HF.s 			page 2


  52              	.LFB56:
  53              		.loc 1 80 0
  54              		.cfi_startproc
  55              		@ args = 0, pretend = 0, frame = 0
  56              		@ frame_needed = 0, uses_anonymous_args = 0
  57              		@ link register save eliminated.
  58              	.LVL0:
  59              		.loc 1 82 0
  60 0000 0121     		movs	r1, #1
  61              		.loc 1 83 0
  62 0002 0023     		movs	r3, #0
  63              		.loc 1 82 0
  64 0004 0170     		strb	r1, [r0, #0]
  65              		.loc 1 83 0
  66 0006 4360     		str	r3, [r0, #4]
  67              		.loc 1 87 0
  68 0008 7047     		bx	lr
  69              		.cfi_endproc
  70              	.LFE56:
  71              		.size	pwmObjectInit, .-pwmObjectInit
  72 000a 00BFAFF3 		.section	.text.pwmStart,"ax",%progbits
  72      0080
  73              		.align	2
  74              		.p2align 4,,15
  75              		.global	pwmStart
  76              		.thumb
  77              		.thumb_func
  78              		.type	pwmStart, %function
  79              	pwmStart:
  80              	.LFB57:
  81              		.loc 1 99 0
  82              		.cfi_startproc
  83              		@ args = 0, pretend = 0, frame = 0
  84              		@ frame_needed = 0, uses_anonymous_args = 0
  85              	.LVL1:
  86 0000 38B5     		push	{r3, r4, r5, lr}
  87              	.LCFI0:
  88              		.cfi_def_cfa_offset 16
  89              		.loc 1 101 0
  90 0002 0446     		mov	r4, r0
  91              		.cfi_offset 14, -4
  92              		.cfi_offset 5, -8
  93              		.cfi_offset 4, -12
  94              		.cfi_offset 3, -16
  95              		.loc 1 99 0
  96 0004 0D46     		mov	r5, r1
  97              		.loc 1 101 0
  98 0006 C8B1     		cbz	r0, .L4
  99              		.loc 1 101 0 is_stmt 0 discriminator 2
 100 0008 C1B1     		cbz	r1, .L4
 101              	.LVL2:
 102              	.L5:
 103              		.loc 1 103 0 is_stmt 1
 104              	@ 103 "../chibios_2.4.x/os/hal/src/pwm.c" 1
 105 000a FFF7FEFF 		bl      _port_lock
 106              	@ 0 "" 2
 107              		.thumb
ARM GAS  C:\DOCUME~1\z_80\LOCALS~1\Temp\ccUrn0HF.s 			page 3


 108 000e FFF7FEFF 		bl	dbg_check_lock
 109              		.loc 1 104 0
 110 0012 2178     		ldrb	r1, [r4, #0]	@ zero_extendqisi2
 111 0014 481E     		subs	r0, r1, #1
 112 0016 C3B2     		uxtb	r3, r0
 113 0018 012B     		cmp	r3, #1
 114 001a 02D9     		bls	.L6
 115              		.loc 1 104 0 is_stmt 0 discriminator 1
 116 001c 0948     		ldr	r0, .L8
 117 001e FFF7FEFF 		bl	chDbgPanic
 118              	.L6:
 119              		.loc 1 106 0 is_stmt 1
 120 0022 6560     		str	r5, [r4, #4]
 121              		.loc 1 107 0
 122 0024 AD88     		ldrh	r5, [r5, #4]
 123              	.LVL3:
 124              		.loc 1 108 0
 125 0026 2046     		mov	r0, r4
 126              		.loc 1 107 0
 127 0028 2581     		strh	r5, [r4, #8]	@ movhi
 128              		.loc 1 108 0
 129 002a FFF7FEFF 		bl	pwm_lld_start
 130              	.LVL4:
 131              		.loc 1 109 0
 132 002e 0222     		movs	r2, #2
 133 0030 2270     		strb	r2, [r4, #0]
 134              		.loc 1 110 0
 135 0032 FFF7FEFF 		bl	dbg_check_unlock
 136              	@ 110 "../chibios_2.4.x/os/hal/src/pwm.c" 1
 137 0036 FFF7FEFF 		bl      _port_unlock
 138              	@ 0 "" 2
 139              		.loc 1 111 0
 140              		.thumb
 141 003a 38BD     		pop	{r3, r4, r5, pc}
 142              	.LVL5:
 143              	.L4:
 144              		.loc 1 101 0 discriminator 1
 145 003c 0248     		ldr	r0, .L8+4
 146 003e FFF7FEFF 		bl	chDbgPanic
 147              	.LVL6:
 148 0042 E2E7     		b	.L5
 149              	.L9:
 150              		.align	2
 151              	.L8:
 152 0044 10000000 		.word	.LC1
 153 0048 00000000 		.word	.LC0
 154              		.cfi_endproc
 155              	.LFE57:
 156              		.size	pwmStart, .-pwmStart
 157 004c AFF30080 		.section	.text.pwmStop,"ax",%progbits
 158              		.align	2
 159              		.p2align 4,,15
 160              		.global	pwmStop
 161              		.thumb
 162              		.thumb_func
 163              		.type	pwmStop, %function
 164              	pwmStop:
ARM GAS  C:\DOCUME~1\z_80\LOCALS~1\Temp\ccUrn0HF.s 			page 4


 165              	.LFB58:
 166              		.loc 1 120 0
 167              		.cfi_startproc
 168              		@ args = 0, pretend = 0, frame = 0
 169              		@ frame_needed = 0, uses_anonymous_args = 0
 170              	.LVL7:
 171 0000 10B5     		push	{r4, lr}
 172              	.LCFI1:
 173              		.cfi_def_cfa_offset 8
 174              		.loc 1 122 0
 175 0002 0446     		mov	r4, r0
 176              		.cfi_offset 14, -4
 177              		.cfi_offset 4, -8
 178 0004 A8B1     		cbz	r0, .L13
 179              	.LVL8:
 180              	.L11:
 181              		.loc 1 124 0
 182              	@ 124 "../chibios_2.4.x/os/hal/src/pwm.c" 1
 183 0006 FFF7FEFF 		bl      _port_lock
 184              	@ 0 "" 2
 185              		.thumb
 186 000a FFF7FEFF 		bl	dbg_check_lock
 187              		.loc 1 125 0
 188 000e 2178     		ldrb	r1, [r4, #0]	@ zero_extendqisi2
 189 0010 481E     		subs	r0, r1, #1
 190 0012 C3B2     		uxtb	r3, r0
 191 0014 012B     		cmp	r3, #1
 192 0016 02D9     		bls	.L12
 193              		.loc 1 125 0 is_stmt 0 discriminator 1
 194 0018 0848     		ldr	r0, .L14
 195 001a FFF7FEFF 		bl	chDbgPanic
 196              	.L12:
 197              		.loc 1 127 0 is_stmt 1
 198 001e 2046     		mov	r0, r4
 199 0020 FFF7FEFF 		bl	pwm_lld_stop
 200              		.loc 1 128 0
 201 0024 0122     		movs	r2, #1
 202 0026 2270     		strb	r2, [r4, #0]
 203              		.loc 1 129 0
 204 0028 FFF7FEFF 		bl	dbg_check_unlock
 205              	@ 129 "../chibios_2.4.x/os/hal/src/pwm.c" 1
 206 002c FFF7FEFF 		bl      _port_unlock
 207              	@ 0 "" 2
 208              		.loc 1 130 0
 209              		.thumb
 210 0030 10BD     		pop	{r4, pc}
 211              	.L13:
 212              		.loc 1 122 0 discriminator 1
 213 0032 0348     		ldr	r0, .L14+4
 214 0034 FFF7FEFF 		bl	chDbgPanic
 215 0038 E5E7     		b	.L11
 216              	.L15:
 217 003a 00BF     		.align	2
 218              	.L14:
 219 003c 2C000000 		.word	.LC3
 220 0040 20000000 		.word	.LC2
 221              		.cfi_endproc
ARM GAS  C:\DOCUME~1\z_80\LOCALS~1\Temp\ccUrn0HF.s 			page 5


 222              	.LFE58:
 223              		.size	pwmStop, .-pwmStop
 224 0044 AFF30080 		.section	.text.pwmChangePeriod,"ax",%progbits
 224      AFF30080 
 224      AFF30080 
 225              		.align	2
 226              		.p2align 4,,15
 227              		.global	pwmChangePeriod
 228              		.thumb
 229              		.thumb_func
 230              		.type	pwmChangePeriod, %function
 231              	pwmChangePeriod:
 232              	.LFB59:
 233              		.loc 1 147 0
 234              		.cfi_startproc
 235              		@ args = 0, pretend = 0, frame = 0
 236              		@ frame_needed = 0, uses_anonymous_args = 0
 237              	.LVL9:
 238 0000 38B5     		push	{r3, r4, r5, lr}
 239              	.LCFI2:
 240              		.cfi_def_cfa_offset 16
 241              		.loc 1 149 0
 242 0002 0446     		mov	r4, r0
 243              		.cfi_offset 14, -4
 244              		.cfi_offset 5, -8
 245              		.cfi_offset 4, -12
 246              		.cfi_offset 3, -16
 247              		.loc 1 147 0
 248 0004 0D46     		mov	r5, r1
 249              		.loc 1 149 0
 250 0006 98B1     		cbz	r0, .L19
 251              	.LVL10:
 252              	.L17:
 253              		.loc 1 151 0
 254              	@ 151 "../chibios_2.4.x/os/hal/src/pwm.c" 1
 255 0008 FFF7FEFF 		bl      _port_lock
 256              	@ 0 "" 2
 257              		.thumb
 258 000c FFF7FEFF 		bl	dbg_check_lock
 259              		.loc 1 152 0
 260 0010 2378     		ldrb	r3, [r4, #0]	@ zero_extendqisi2
 261 0012 022B     		cmp	r3, #2
 262 0014 02D0     		beq	.L18
 263              		.loc 1 152 0 is_stmt 0 discriminator 1
 264 0016 0848     		ldr	r0, .L20
 265 0018 FFF7FEFF 		bl	chDbgPanic
 266              	.L18:
 267              		.loc 1 154 0 is_stmt 1
 268 001c 2069     		ldr	r0, [r4, #16]
 269 001e 691E     		subs	r1, r5, #1
 270 0020 8AB2     		uxth	r2, r1
 271 0022 2581     		strh	r5, [r4, #8]	@ movhi
 272 0024 C262     		str	r2, [r0, #44]
 273              		.loc 1 155 0
 274 0026 FFF7FEFF 		bl	dbg_check_unlock
 275              	@ 155 "../chibios_2.4.x/os/hal/src/pwm.c" 1
 276 002a FFF7FEFF 		bl      _port_unlock
ARM GAS  C:\DOCUME~1\z_80\LOCALS~1\Temp\ccUrn0HF.s 			page 6


 277              	@ 0 "" 2
 278              		.loc 1 156 0
 279              		.thumb
 280 002e 38BD     		pop	{r3, r4, r5, pc}
 281              	.LVL11:
 282              	.L19:
 283              		.loc 1 149 0 discriminator 1
 284 0030 0248     		ldr	r0, .L20+4
 285 0032 FFF7FEFF 		bl	chDbgPanic
 286              	.LVL12:
 287 0036 E7E7     		b	.L17
 288              	.L21:
 289              		.align	2
 290              	.L20:
 291 0038 50000000 		.word	.LC5
 292 003c 3C000000 		.word	.LC4
 293              		.cfi_endproc
 294              	.LFE59:
 295              		.size	pwmChangePeriod, .-pwmChangePeriod
 296              		.section	.text.pwmEnableChannel,"ax",%progbits
 297              		.align	2
 298              		.p2align 4,,15
 299              		.global	pwmEnableChannel
 300              		.thumb
 301              		.thumb_func
 302              		.type	pwmEnableChannel, %function
 303              	pwmEnableChannel:
 304              	.LFB60:
 305              		.loc 1 174 0
 306              		.cfi_startproc
 307              		@ args = 0, pretend = 0, frame = 0
 308              		@ frame_needed = 0, uses_anonymous_args = 0
 309              	.LVL13:
 310 0000 70B5     		push	{r4, r5, r6, lr}
 311              	.LCFI3:
 312              		.cfi_def_cfa_offset 16
 313              		.loc 1 176 0
 314 0002 0446     		mov	r4, r0
 315              		.cfi_offset 14, -4
 316              		.cfi_offset 6, -8
 317              		.cfi_offset 5, -12
 318              		.cfi_offset 4, -16
 319              		.loc 1 174 0
 320 0004 0D46     		mov	r5, r1
 321 0006 1646     		mov	r6, r2
 322              		.loc 1 176 0
 323 0008 A8B1     		cbz	r0, .L23
 324              		.loc 1 176 0 is_stmt 0 discriminator 2
 325 000a 0329     		cmp	r1, #3
 326 000c 13D8     		bhi	.L23
 327              	.LVL14:
 328              	.L24:
 329              		.loc 1 179 0 is_stmt 1
 330              	@ 179 "../chibios_2.4.x/os/hal/src/pwm.c" 1
 331 000e FFF7FEFF 		bl      _port_lock
 332              	@ 0 "" 2
 333              		.thumb
ARM GAS  C:\DOCUME~1\z_80\LOCALS~1\Temp\ccUrn0HF.s 			page 7


 334 0012 FFF7FEFF 		bl	dbg_check_lock
 335              		.loc 1 180 0
 336 0016 2378     		ldrb	r3, [r4, #0]	@ zero_extendqisi2
 337 0018 022B     		cmp	r3, #2
 338 001a 02D0     		beq	.L25
 339              		.loc 1 180 0 is_stmt 0 discriminator 1
 340 001c 0848     		ldr	r0, .L26
 341 001e FFF7FEFF 		bl	chDbgPanic
 342              	.L25:
 343              		.loc 1 182 0 is_stmt 1
 344 0022 2046     		mov	r0, r4
 345 0024 2946     		mov	r1, r5
 346 0026 3246     		mov	r2, r6
 347 0028 FFF7FEFF 		bl	pwm_lld_enable_channel
 348              		.loc 1 183 0
 349 002c FFF7FEFF 		bl	dbg_check_unlock
 350              	@ 183 "../chibios_2.4.x/os/hal/src/pwm.c" 1
 351 0030 FFF7FEFF 		bl      _port_unlock
 352              	@ 0 "" 2
 353              		.loc 1 184 0
 354              		.thumb
 355 0034 70BD     		pop	{r4, r5, r6, pc}
 356              	.LVL15:
 357              	.L23:
 358              		.loc 1 176 0 discriminator 1
 359 0036 0348     		ldr	r0, .L26+4
 360 0038 FFF7FEFF 		bl	chDbgPanic
 361              	.LVL16:
 362 003c E7E7     		b	.L24
 363              	.L27:
 364 003e 00BF     		.align	2
 365              	.L26:
 366 0040 80000000 		.word	.LC7
 367 0044 68000000 		.word	.LC6
 368              		.cfi_endproc
 369              	.LFE60:
 370              		.size	pwmEnableChannel, .-pwmEnableChannel
 371 0048 AFF30080 		.section	.text.pwmDisableChannel,"ax",%progbits
 371      AFF30080 
 372              		.align	2
 373              		.p2align 4,,15
 374              		.global	pwmDisableChannel
 375              		.thumb
 376              		.thumb_func
 377              		.type	pwmDisableChannel, %function
 378              	pwmDisableChannel:
 379              	.LFB61:
 380              		.loc 1 200 0
 381              		.cfi_startproc
 382              		@ args = 0, pretend = 0, frame = 0
 383              		@ frame_needed = 0, uses_anonymous_args = 0
 384              	.LVL17:
 385 0000 38B5     		push	{r3, r4, r5, lr}
 386              	.LCFI4:
 387              		.cfi_def_cfa_offset 16
 388              		.loc 1 202 0
 389 0002 0446     		mov	r4, r0
ARM GAS  C:\DOCUME~1\z_80\LOCALS~1\Temp\ccUrn0HF.s 			page 8


 390              		.cfi_offset 14, -4
 391              		.cfi_offset 5, -8
 392              		.cfi_offset 4, -12
 393              		.cfi_offset 3, -16
 394              		.loc 1 200 0
 395 0004 0D46     		mov	r5, r1
 396              		.loc 1 202 0
 397 0006 A0B1     		cbz	r0, .L29
 398              		.loc 1 202 0 is_stmt 0 discriminator 2
 399 0008 0329     		cmp	r1, #3
 400 000a 12D8     		bhi	.L29
 401              	.LVL18:
 402              	.L30:
 403              		.loc 1 205 0 is_stmt 1
 404              	@ 205 "../chibios_2.4.x/os/hal/src/pwm.c" 1
 405 000c FFF7FEFF 		bl      _port_lock
 406              	@ 0 "" 2
 407              		.thumb
 408 0010 FFF7FEFF 		bl	dbg_check_lock
 409              		.loc 1 206 0
 410 0014 2378     		ldrb	r3, [r4, #0]	@ zero_extendqisi2
 411 0016 022B     		cmp	r3, #2
 412 0018 02D0     		beq	.L31
 413              		.loc 1 206 0 is_stmt 0 discriminator 1
 414 001a 0848     		ldr	r0, .L32
 415 001c FFF7FEFF 		bl	chDbgPanic
 416              	.L31:
 417              		.loc 1 208 0 is_stmt 1
 418 0020 2046     		mov	r0, r4
 419 0022 2946     		mov	r1, r5
 420 0024 FFF7FEFF 		bl	pwm_lld_disable_channel
 421              		.loc 1 209 0
 422 0028 FFF7FEFF 		bl	dbg_check_unlock
 423              	@ 209 "../chibios_2.4.x/os/hal/src/pwm.c" 1
 424 002c FFF7FEFF 		bl      _port_unlock
 425              	@ 0 "" 2
 426              		.loc 1 210 0
 427              		.thumb
 428 0030 38BD     		pop	{r3, r4, r5, pc}
 429              	.LVL19:
 430              	.L29:
 431              		.loc 1 202 0 discriminator 1
 432 0032 0348     		ldr	r0, .L32+4
 433 0034 FFF7FEFF 		bl	chDbgPanic
 434              	.LVL20:
 435 0038 E8E7     		b	.L30
 436              	.L33:
 437 003a 00BF     		.align	2
 438              	.L32:
 439 003c 98000000 		.word	.LC8
 440 0040 68000000 		.word	.LC6
 441              		.cfi_endproc
 442              	.LFE61:
 443              		.size	pwmDisableChannel, .-pwmDisableChannel
 444 0044 AFF30080 		.section	.rodata.str1.4,"aMS",%progbits,1
 444      AFF30080 
 444      AFF30080 
ARM GAS  C:\DOCUME~1\z_80\LOCALS~1\Temp\ccUrn0HF.s 			page 9


 445              		.align	2
 446              	.LC0:
 447 0000 2270776D 		.ascii	"\"pwmStart\"()\000"
 447      53746172 
 447      74222829 
 447      00
 448 000d 000000   		.space	3
 449              	.LC1:
 450 0010 70776D53 		.ascii	"pwmStart(), #1\000"
 450      74617274 
 450      28292C20 
 450      233100
 451 001f 00       		.space	1
 452              	.LC2:
 453 0020 2270776D 		.ascii	"\"pwmStop\"()\000"
 453      53746F70 
 453      22282900 
 454              	.LC3:
 455 002c 70776D53 		.ascii	"pwmStop(), #1\000"
 455      746F7028 
 455      292C2023 
 455      3100
 456 003a 0000     		.space	2
 457              	.LC4:
 458 003c 2270776D 		.ascii	"\"pwmChangePeriod\"()\000"
 458      4368616E 
 458      67655065 
 458      72696F64 
 458      22282900 
 459              	.LC5:
 460 0050 70776D43 		.ascii	"pwmChangePeriod(), #1\000"
 460      68616E67 
 460      65506572 
 460      696F6428 
 460      292C2023 
 461 0066 0000     		.space	2
 462              	.LC6:
 463 0068 2270776D 		.ascii	"\"pwmEnableChannel\"()\000"
 463      456E6162 
 463      6C654368 
 463      616E6E65 
 463      6C222829 
 464 007d 000000   		.space	3
 465              	.LC7:
 466 0080 70776D45 		.ascii	"pwmEnableChannel(), #1\000"
 466      6E61626C 
 466      65436861 
 466      6E6E656C 
 466      28292C20 
 467 0097 00       		.space	1
 468              	.LC8:
 469 0098 70776D44 		.ascii	"pwmDisableChannel(), #1\000"
 469      69736162 
 469      6C654368 
 469      616E6E65 
 469      6C28292C 
 470              		.text
ARM GAS  C:\DOCUME~1\z_80\LOCALS~1\Temp\ccUrn0HF.s 			page 10


 471              	.Letext0: