ARM GAS  C:\DOCUME~1\z_80\LOCALS~1\Temp\ccF4aAsj.s 			page 1


   1              		.syntax unified
   2              		.cpu cortex-m3
   3              		.fpu softvfp
   4              		.eabi_attribute 20, 1
   5              		.eabi_attribute 21, 1
   6              		.eabi_attribute 23, 3
   7              		.eabi_attribute 24, 1
   8              		.eabi_attribute 25, 1
   9              		.eabi_attribute 26, 1
  10              		.eabi_attribute 30, 2
  11              		.eabi_attribute 18, 4
  12              		.thumb
  13              		.file	"pwm_lld.c"
  20 0000 9E020000 		.text
  20      02008101 
  20      00000201 
  20      FB0E0D00 
  20      01010101 
  21              	.Ltext0:
  22              		.cfi_sections	.debug_frame
  23              		.section	.text.VectorB8,"ax",%progbits
  24              		.align	2
  25              		.p2align 4,,15
  26              		.global	VectorB8
  27              		.thumb
  28              		.thumb_func
  29              		.type	VectorB8, %function
  30              	VectorB8:
  31              	.LFB56:
  32              		.file 1 "../chibios_2.4.x/os/hal/platforms/STM32/pwm_lld.c"
  33              		.loc 1 221 0
  34              		.cfi_startproc
  35              		@ args = 0, pretend = 0, frame = 0
  36              		@ frame_needed = 0, uses_anonymous_args = 0
  37 0000 70B5     		push	{r4, r5, r6, lr}
  38              	.LCFI0:
  39              		.cfi_def_cfa_offset 16
  40              	.LBB4:
  41              	.LBB6:
  42              		.loc 1 114 0
  43 0002 1B4D     		ldr	r5, .L12
  44              		.cfi_offset 14, -4
  45              		.cfi_offset 6, -8
  46              		.cfi_offset 5, -12
  47              		.cfi_offset 4, -16
  48              	.LBE6:
  49              	.LBE4:
  50              		.loc 1 223 0
  51 0004 FFF7FEFF 		bl	dbg_check_enter_isr
  52              	.LVL0:
  53              	.LBB8:
ARM GAS  C:\DOCUME~1\z_80\LOCALS~1\Temp\ccF4aAsj.s 			page 2


  54              	.LBB5:
  55              		.loc 1 114 0
  56 0008 2B69     		ldr	r3, [r5, #16]
  57              		.loc 1 116 0
  58 000a 4FF6E071 		movw	r1, 65504	@ movhi
  59              		.loc 1 114 0
  60 000e 1A8A     		ldrh	r2, [r3, #16]
  61              	.LVL1:
  62              		.loc 1 115 0
  63 0010 9C89     		ldrh	r4, [r3, #12]
  64              		.loc 1 116 0
  65 0012 1982     		strh	r1, [r3, #16]	@ movhi
  66              	.LVL2:
  67              		.loc 1 118 0
  68 0014 1440     		ands	r4, r4, r2
  69              	.LVL3:
  70 0016 14F0020F 		tst	r4, #2
  71 001a 24D1     		bne	.L8
  72              	.L2:
  73              		.loc 1 120 0
  74 001c 14F0040F 		tst	r4, #4
  75 0020 1CD1     		bne	.L9
  76              	.L3:
  77              		.loc 1 122 0
  78 0022 14F0080F 		tst	r4, #8
  79 0026 14D1     		bne	.L10
  80              	.L4:
  81              		.loc 1 124 0
  82 0028 14F0100F 		tst	r4, #16
  83 002c 0CD1     		bne	.L11
  84              	.L5:
  85              		.loc 1 126 0
  86 002e 14F0010F 		tst	r4, #1
  87 0032 03D0     		beq	.L6
  88              		.loc 1 127 0
  89 0034 6A68     		ldr	r2, [r5, #4]
  90 0036 0E48     		ldr	r0, .L12
  91 0038 9368     		ldr	r3, [r2, #8]
  92 003a 9847     		blx	r3
  93              	.L6:
  94              	.LBE5:
  95              	.LBE8:
  96              		.loc 1 227 0
  97 003c FFF7FEFF 		bl	dbg_check_leave_isr
  98              		.loc 1 228 0
  99 0040 BDE87040 		pop	{r4, r5, r6, lr}
 100              		.loc 1 227 0
 101 0044 FFF7FEBF 		b	_port_irq_epilogue
 102              	.L11:
 103              	.LBB9:
 104              	.LBB7:
 105              		.loc 1 125 0
 106 0048 6968     		ldr	r1, [r5, #4]
 107 004a 0948     		ldr	r0, .L12
 108 004c 8A6A     		ldr	r2, [r1, #40]
 109 004e 9047     		blx	r2
 110 0050 EDE7     		b	.L5
ARM GAS  C:\DOCUME~1\z_80\LOCALS~1\Temp\ccF4aAsj.s 			page 3


 111              	.L10:
 112              		.loc 1 123 0
 113 0052 6B68     		ldr	r3, [r5, #4]
 114 0054 0648     		ldr	r0, .L12
 115 0056 196A     		ldr	r1, [r3, #32]
 116 0058 8847     		blx	r1
 117 005a E5E7     		b	.L4
 118              	.L9:
 119              		.loc 1 121 0
 120 005c 6A68     		ldr	r2, [r5, #4]
 121 005e 0448     		ldr	r0, .L12
 122 0060 9369     		ldr	r3, [r2, #24]
 123 0062 9847     		blx	r3
 124 0064 DDE7     		b	.L3
 125              	.L8:
 126              		.loc 1 119 0
 127 0066 6968     		ldr	r1, [r5, #4]
 128 0068 2846     		mov	r0, r5
 129 006a 0A69     		ldr	r2, [r1, #16]
 130 006c 9047     		blx	r2
 131 006e D5E7     		b	.L2
 132              	.L13:
 133              		.align	2
 134              	.L12:
 135 0070 00000000 		.word	.LANCHOR0
 136              	.LBE7:
 137              	.LBE9:
 138              		.cfi_endproc
 139              	.LFE56:
 140              		.size	VectorB8, .-VectorB8
 141 0074 AFF30080 		.section	.text.pwm_lld_init,"ax",%progbits
 141      AFF30080 
 141      AFF30080 
 142              		.align	2
 143              		.p2align 4,,15
 144              		.global	pwm_lld_init
 145              		.thumb
 146              		.thumb_func
 147              		.type	pwm_lld_init, %function
 148              	pwm_lld_init:
 149              	.LFB57:
 150              		.loc 1 303 0
 151              		.cfi_startproc
 152              		@ args = 0, pretend = 0, frame = 0
 153              		@ frame_needed = 0, uses_anonymous_args = 0
 154 0000 10B5     		push	{r4, lr}
 155              	.LCFI1:
 156              		.cfi_def_cfa_offset 8
 157              		.loc 1 325 0
 158 0002 034C     		ldr	r4, .L15
 159              		.cfi_offset 14, -4
 160              		.cfi_offset 4, -8
 161 0004 2046     		mov	r0, r4
 162 0006 FFF7FEFF 		bl	pwmObjectInit
 163              		.loc 1 326 0
 164 000a 024B     		ldr	r3, .L15+4
 165 000c 2361     		str	r3, [r4, #16]
ARM GAS  C:\DOCUME~1\z_80\LOCALS~1\Temp\ccF4aAsj.s 			page 4


 166              		.loc 1 340 0
 167 000e 10BD     		pop	{r4, pc}
 168              	.L16:
 169              		.align	2
 170              	.L15:
 171 0010 00000000 		.word	.LANCHOR0
 172 0014 00080040 		.word	1073743872
 173              		.cfi_endproc
 174              	.LFE57:
 175              		.size	pwm_lld_init, .-pwm_lld_init
 176 0018 AFF30080 		.section	.text.pwm_lld_start,"ax",%progbits
 176      AFF30080 
 177              		.align	2
 178              		.p2align 4,,15
 179              		.global	pwm_lld_start
 180              		.thumb
 181              		.thumb_func
 182              		.type	pwm_lld_start, %function
 183              	pwm_lld_start:
 184              	.LFB58:
 185              		.loc 1 351 0
 186              		.cfi_startproc
 187              		@ args = 0, pretend = 0, frame = 0
 188              		@ frame_needed = 0, uses_anonymous_args = 0
 189              	.LVL4:
 190              		.loc 1 355 0
 191 0000 0378     		ldrb	r3, [r0, #0]	@ zero_extendqisi2
 192              		.loc 1 351 0
 193 0002 70B5     		push	{r4, r5, r6, lr}
 194              	.LCFI2:
 195              		.cfi_def_cfa_offset 16
 196              		.loc 1 355 0
 197 0004 012B     		cmp	r3, #1
 198              		.loc 1 351 0
 199 0006 0446     		mov	r4, r0
 200              		.cfi_offset 14, -4
 201              		.cfi_offset 6, -8
 202              		.cfi_offset 5, -12
 203              		.cfi_offset 4, -16
 204              		.loc 1 355 0
 205 0008 6DD0     		beq	.L37
 206              		.loc 1 430 0
 207 000a 0369     		ldr	r3, [r0, #16]
 208 000c 0020     		movs	r0, #0
 209              	.LVL5:
 210 000e 1880     		strh	r0, [r3, #0]	@ movhi
 211              		.loc 1 431 0
 212 0010 9881     		strh	r0, [r3, #12]	@ movhi
 213              		.loc 1 432 0
 214 0012 1882     		strh	r0, [r3, #16]	@ movhi
 215              		.loc 1 433 0
 216 0014 5863     		str	r0, [r3, #52]
 217              		.loc 1 434 0
 218 0016 9863     		str	r0, [r3, #56]
 219              		.loc 1 435 0
 220 0018 D863     		str	r0, [r3, #60]
 221              		.loc 1 436 0
ARM GAS  C:\DOCUME~1\z_80\LOCALS~1\Temp\ccF4aAsj.s 			page 5


 222 001a 1864     		str	r0, [r3, #64]
 223              		.loc 1 437 0
 224 001c 5862     		str	r0, [r3, #36]
 225              	.L20:
 226              		.loc 1 441 0
 227 001e 6268     		ldr	r2, [r4, #4]
 228 0020 E168     		ldr	r1, [r4, #12]
 229 0022 1668     		ldr	r6, [r2, #0]
 230 0024 B1FBF6F0 		udiv	r0, r1, r6
 231 0028 451E     		subs	r5, r0, #1
 232              	.LVL6:
 233              		.loc 1 442 0
 234 002a B5F5803F 		cmp	r5, #65536
 235 002e 03D2     		bcs	.L21
 236              		.loc 1 442 0 is_stmt 0 discriminator 2
 237 0030 06FB00FC 		mul	ip, r6, r0
 238 0034 6145     		cmp	r1, ip
 239 0036 04D0     		beq	.L22
 240              	.L21:
 241              		.loc 1 442 0 discriminator 1
 242 0038 3948     		ldr	r0, .L45
 243 003a FFF7FEFF 		bl	chDbgPanic
 244 003e 6268     		ldr	r2, [r4, #4]
 245 0040 2369     		ldr	r3, [r4, #16]
 246              	.L22:
 247              		.loc 1 446 0 is_stmt 1
 248 0042 2089     		ldrh	r0, [r4, #8]
 249              		.loc 1 451 0
 250 0044 D168     		ldr	r1, [r2, #12]
 251              		.loc 1 446 0
 252 0046 441E     		subs	r4, r0, #1
 253              	.LVL7:
 254              		.loc 1 451 0
 255 0048 01F00F01 		and	r1, r1, #15
 256              		.loc 1 447 0
 257 004c 908D     		ldrh	r0, [r2, #44]
 258              		.loc 1 446 0
 259 004e A4B2     		uxth	r4, r4
 260              		.loc 1 451 0
 261 0050 0129     		cmp	r1, #1
 262              		.loc 1 445 0
 263 0052 1D85     		strh	r5, [r3, #40]	@ movhi
 264              		.loc 1 446 0
 265 0054 DC62     		str	r4, [r3, #44]
 266              		.loc 1 447 0
 267 0056 9880     		strh	r0, [r3, #4]	@ movhi
 268              	.LVL8:
 269              		.loc 1 451 0
 270 0058 03D0     		beq	.L23
 271              		.loc 1 450 0
 272 005a 0229     		cmp	r1, #2
 273 005c 0CBF     		ite	eq
 274 005e 0321     		moveq	r1, #3
 275 0060 0021     		movne	r1, #0
 276              	.L23:
 277              	.LVL9:
 278              		.loc 1 459 0
ARM GAS  C:\DOCUME~1\z_80\LOCALS~1\Temp\ccF4aAsj.s 			page 6


 279 0062 5069     		ldr	r0, [r2, #20]
 280 0064 00F00F00 		and	r0, r0, #15
 281 0068 0128     		cmp	r0, #1
 282 006a 21D0     		beq	.L27
 283 006c 0228     		cmp	r0, #2
 284 006e 1DD0     		beq	.L38
 285              		.loc 1 467 0
 286 0070 D069     		ldr	r0, [r2, #28]
 287 0072 00F00F00 		and	r0, r0, #15
 288 0076 0128     		cmp	r0, #1
 289 0078 21D0     		beq	.L30
 290              	.LVL10:
 291              	.L41:
 292 007a 0228     		cmp	r0, #2
 293 007c 2ED0     		beq	.L39
 294              	.LVL11:
 295              		.loc 1 475 0
 296 007e 506A     		ldr	r0, [r2, #36]
 297 0080 00F00F00 		and	r0, r0, #15
 298 0084 0128     		cmp	r0, #1
 299 0086 21D0     		beq	.L33
 300              	.LVL12:
 301              	.L42:
 302 0088 0228     		cmp	r0, #2
 303 008a 22D0     		beq	.L40
 304              	.L32:
 305              	.LVL13:
 306              		.loc 1 522 0
 307 008c 9268     		ldr	r2, [r2, #8]
 308              		.loc 1 520 0
 309 008e 1984     		strh	r1, [r3, #32]	@ movhi
 310              		.loc 1 522 0
 311 0090 B2F1000C 		subs	ip, r2, #0
 312 0094 18BF     		it	ne
 313 0096 4FF0010C 		movne	ip, #1
 314              		.loc 1 521 0
 315 009a 0120     		movs	r0, #1
 316              		.loc 1 523 0
 317 009c 0021     		movs	r1, #0
 318              	.LVL14:
 319              		.loc 1 532 0
 320 009e 8522     		movs	r2, #133
 321              		.loc 1 521 0
 322 00a0 9882     		strh	r0, [r3, #20]	@ movhi
 323              		.loc 1 522 0
 324 00a2 A3F80CC0 		strh	ip, [r3, #12]	@ movhi
 325              		.loc 1 523 0
 326 00a6 1982     		strh	r1, [r3, #16]	@ movhi
 327              		.loc 1 532 0
 328 00a8 1A80     		strh	r2, [r3, #0]	@ movhi
 329              		.loc 1 533 0
 330 00aa 70BD     		pop	{r4, r5, r6, pc}
 331              	.LVL15:
 332              	.L38:
 333              		.loc 1 461 0
 334 00ac 41F02001 		orr	r1, r1, #32
 335              	.LVL16:
ARM GAS  C:\DOCUME~1\z_80\LOCALS~1\Temp\ccF4aAsj.s 			page 7


 336              	.L27:
 337              		.loc 1 467 0
 338 00b0 D069     		ldr	r0, [r2, #28]
 339              		.loc 1 463 0
 340 00b2 41F01001 		orr	r1, r1, #16
 341              	.LVL17:
 342              		.loc 1 467 0
 343 00b6 00F00F00 		and	r0, r0, #15
 344 00ba 0128     		cmp	r0, #1
 345 00bc DDD1     		bne	.L41
 346              	.LVL18:
 347              	.L30:
 348              		.loc 1 471 0
 349 00be 41F48071 		orr	r1, r1, #256
 350              	.LVL19:
 351              	.L43:
 352              		.loc 1 475 0
 353 00c2 506A     		ldr	r0, [r2, #36]
 354 00c4 00F00F00 		and	r0, r0, #15
 355 00c8 0128     		cmp	r0, #1
 356 00ca DDD1     		bne	.L42
 357              	.LVL20:
 358              	.L33:
 359              		.loc 1 479 0
 360 00cc 41F48051 		orr	r1, r1, #4096
 361              	.LVL21:
 362 00d0 DCE7     		b	.L32
 363              	.LVL22:
 364              	.L40:
 365              		.loc 1 477 0
 366 00d2 41F40051 		orr	r1, r1, #8192
 367              	.LVL23:
 368              		.loc 1 479 0
 369 00d6 41F48051 		orr	r1, r1, #4096
 370              	.LVL24:
 371 00da D7E7     		b	.L32
 372              	.LVL25:
 373              	.L39:
 374              		.loc 1 469 0
 375 00dc 41F40071 		orr	r1, r1, #512
 376              	.LVL26:
 377              		.loc 1 471 0
 378 00e0 41F48071 		orr	r1, r1, #256
 379              	.LVL27:
 380 00e4 EDE7     		b	.L43
 381              	.LVL28:
 382              	.L37:
 383              		.loc 1 387 0
 384 00e6 0F49     		ldr	r1, .L45+4
 385 00e8 8842     		cmp	r0, r1
 386 00ea 07D0     		beq	.L44
 387              	.LVL29:
 388              	.L19:
 389              		.loc 1 419 0
 390 00ec 2369     		ldr	r3, [r4, #16]
 391 00ee 46F6680C 		movw	ip, 26728	@ movhi
 392 00f2 A3F818C0 		strh	ip, [r3, #24]	@ movhi
ARM GAS  C:\DOCUME~1\z_80\LOCALS~1\Temp\ccF4aAsj.s 			page 8


 393              		.loc 1 423 0
 394 00f6 A3F81CC0 		strh	ip, [r3, #28]	@ movhi
 395 00fa 90E7     		b	.L20
 396              	.L44:
 397              		.loc 1 388 0
 398 00fc 0A4D     		ldr	r5, .L45+8
 399              		.loc 1 390 0
 400 00fe 1E20     		movs	r0, #30
 401              		.loc 1 388 0
 402 0100 EA69     		ldr	r2, [r5, #28]
 403 0102 42F00401 		orr	r1, r2, #4
 404 0106 E961     		str	r1, [r5, #28]
 405              		.loc 1 389 0
 406 0108 2B69     		ldr	r3, [r5, #16]
 407 010a 0022     		movs	r2, #0
 408 010c 43F00406 		orr	r6, r3, #4
 409 0110 2E61     		str	r6, [r5, #16]
 410              		.loc 1 390 0
 411 0112 7021     		movs	r1, #112
 412              		.loc 1 389 0
 413 0114 2A61     		str	r2, [r5, #16]
 414              		.loc 1 390 0
 415 0116 FFF7FEFF 		bl	nvicEnableVector
 416              		.loc 1 392 0
 417 011a 0448     		ldr	r0, .L45+12
 418 011c E060     		str	r0, [r4, #12]
 419 011e E5E7     		b	.L19
 420              	.L46:
 421              		.align	2
 422              	.L45:
 423 0120 00000000 		.word	.LC0
 424 0124 00000000 		.word	.LANCHOR0
 425 0128 00100240 		.word	1073876992
 426 012c 006CDC02 		.word	48000000
 427              		.cfi_endproc
 428              	.LFE58:
 429              		.size	pwm_lld_start, .-pwm_lld_start
 430              		.section	.text.pwm_lld_stop,"ax",%progbits
 431              		.align	2
 432              		.p2align 4,,15
 433              		.global	pwm_lld_stop
 434              		.thumb
 435              		.thumb_func
 436              		.type	pwm_lld_stop, %function
 437              	pwm_lld_stop:
 438              	.LFB59:
 439              		.loc 1 542 0
 440              		.cfi_startproc
 441              		@ args = 0, pretend = 0, frame = 0
 442              		@ frame_needed = 0, uses_anonymous_args = 0
 443              	.LVL30:
 444 0000 08B5     		push	{r3, lr}
 445              	.LCFI3:
 446              		.cfi_def_cfa_offset 8
 447              		.loc 1 545 0
 448 0002 0378     		ldrb	r3, [r0, #0]	@ zero_extendqisi2
 449              		.cfi_offset 14, -4
ARM GAS  C:\DOCUME~1\z_80\LOCALS~1\Temp\ccF4aAsj.s 			page 9


 450              		.cfi_offset 3, -8
 451 0004 022B     		cmp	r3, #2
 452 0006 00D0     		beq	.L49
 453              	.LVL31:
 454              	.L47:
 455 0008 08BD     		pop	{r3, pc}
 456              	.LVL32:
 457              	.L49:
 458              		.loc 1 573 0
 459 000a 0849     		ldr	r1, .L50
 460              		.loc 1 546 0
 461 000c 0369     		ldr	r3, [r0, #16]
 462 000e 0022     		movs	r2, #0
 463              		.loc 1 573 0
 464 0010 8842     		cmp	r0, r1
 465              		.loc 1 546 0
 466 0012 1A80     		strh	r2, [r3, #0]	@ movhi
 467              		.loc 1 547 0
 468 0014 9A81     		strh	r2, [r3, #12]	@ movhi
 469              		.loc 1 548 0
 470 0016 1A82     		strh	r2, [r3, #16]	@ movhi
 471              		.loc 1 573 0
 472 0018 F6D1     		bne	.L47
 473              		.loc 1 574 0
 474 001a 1E20     		movs	r0, #30
 475              	.LVL33:
 476 001c FFF7FEFF 		bl	nvicDisableVector
 477              		.loc 1 575 0
 478 0020 0349     		ldr	r1, .L50+4
 479 0022 CA69     		ldr	r2, [r1, #28]
 480 0024 22F00400 		bic	r0, r2, #4
 481 0028 C861     		str	r0, [r1, #28]
 482 002a EDE7     		b	.L47
 483              	.L51:
 484              		.align	2
 485              	.L50:
 486 002c 00000000 		.word	.LANCHOR0
 487 0030 00100240 		.word	1073876992
 488              		.cfi_endproc
 489              	.LFE59:
 490              		.size	pwm_lld_stop, .-pwm_lld_stop
 491 0034 AFF30080 		.section	.text.pwm_lld_enable_channel,"ax",%progbits
 491      AFF30080 
 491      AFF30080 
 492              		.align	2
 493              		.p2align 4,,15
 494              		.global	pwm_lld_enable_channel
 495              		.thumb
 496              		.thumb_func
 497              		.type	pwm_lld_enable_channel, %function
 498              	pwm_lld_enable_channel:
 499              	.LFB60:
 500              		.loc 1 608 0
 501              		.cfi_startproc
 502              		@ args = 0, pretend = 0, frame = 0
 503              		@ frame_needed = 0, uses_anonymous_args = 0
 504              		@ link register save eliminated.
ARM GAS  C:\DOCUME~1\z_80\LOCALS~1\Temp\ccF4aAsj.s 			page 10


 505              	.LVL34:
 506              		.loc 1 613 0
 507 0000 4368     		ldr	r3, [r0, #4]
 508              		.loc 1 610 0
 509 0002 0069     		ldr	r0, [r0, #16]
 510              	.LVL35:
 511              		.loc 1 613 0
 512 0004 03EBC10C 		add	ip, r3, r1, lsl #3
 513              		.loc 1 608 0
 514 0008 10B4     		push	{r4}
 515              	.LCFI4:
 516              		.cfi_def_cfa_offset 4
 517              		.loc 1 613 0
 518 000a DCF81030 		ldr	r3, [ip, #16]
 519              		.loc 1 610 0
 520 000e 01F10C04 		add	r4, r1, #12
 521              		.cfi_offset 4, -4
 522 0012 00EB8404 		add	r4, r0, r4, lsl #2
 523 0016 6260     		str	r2, [r4, #4]
 524              		.loc 1 613 0
 525 0018 5BB1     		cbz	r3, .L52
 526              	.LBB10:
 527              		.loc 1 617 0
 528 001a 0223     		movs	r3, #2
 529 001c 13FA01F1 		lsls	r1, r3, r1
 530              	.LVL36:
 531              		.loc 1 614 0
 532 0020 8289     		ldrh	r2, [r0, #12]
 533              	.LVL37:
 534 0022 93B2     		uxth	r3, r2
 535              	.LVL38:
 536              		.loc 1 617 0
 537 0024 1942     		tst	r1, r3
 538 0026 04D1     		bne	.L52
 539              		.loc 1 618 0
 540 0028 89B2     		uxth	r1, r1
 541              		.loc 1 619 0
 542 002a CA43     		mvns	r2, r1
 543              		.loc 1 618 0
 544 002c 1943     		orrs	r1, r1, r3
 545 002e 8181     		strh	r1, [r0, #12]	@ movhi
 546              		.loc 1 619 0
 547 0030 0282     		strh	r2, [r0, #16]	@ movhi
 548              	.LVL39:
 549              	.L52:
 550              	.LBE10:
 551              		.loc 1 622 0
 552 0032 10BC     		pop	{r4}
 553 0034 7047     		bx	lr
 554              		.cfi_endproc
 555              	.LFE60:
 556              		.size	pwm_lld_enable_channel, .-pwm_lld_enable_channel
 557              		.section	.text.pwm_lld_disable_channel,"ax",%progbits
 558              		.align	2
 559              		.p2align 4,,15
 560              		.global	pwm_lld_disable_channel
 561              		.thumb
ARM GAS  C:\DOCUME~1\z_80\LOCALS~1\Temp\ccF4aAsj.s 			page 11


 562              		.thumb_func
 563              		.type	pwm_lld_disable_channel, %function
 564              	pwm_lld_disable_channel:
 565              	.LFB61:
 566              		.loc 1 636 0
 567              		.cfi_startproc
 568              		@ args = 0, pretend = 0, frame = 0
 569              		@ frame_needed = 0, uses_anonymous_args = 0
 570              		@ link register save eliminated.
 571              	.LVL40:
 572              		.loc 1 639 0
 573 0000 0222     		movs	r2, #2
 574 0002 12FA01F3 		lsls	r3, r2, r1
 575              		.loc 1 638 0
 576 0006 0269     		ldr	r2, [r0, #16]
 577 0008 0C31     		adds	r1, r1, #12
 578              	.LVL41:
 579 000a 02EB810C 		add	ip, r2, r1, lsl #2
 580 000e 0020     		movs	r0, #0
 581              	.LVL42:
 582 0010 CCF80400 		str	r0, [ip, #4]
 583              		.loc 1 639 0
 584 0014 9089     		ldrh	r0, [r2, #12]
 585 0016 81B2     		uxth	r1, r0
 586 0018 21EA0303 		bic	r3, r1, r3
 587 001c 9381     		strh	r3, [r2, #12]	@ movhi
 588              		.loc 1 640 0
 589 001e 7047     		bx	lr
 590              		.cfi_endproc
 591              	.LFE61:
 592              		.size	pwm_lld_disable_channel, .-pwm_lld_disable_channel
 593              		.global	PWMD4
 594              		.section	.bss.PWMD4,"aw",%nobits
 595              		.align	2
 596              		.set	.LANCHOR0,. + 0
 597              		.type	PWMD4, %object
 598              		.size	PWMD4, 20
 599              	PWMD4:
 600 0000 00000000 		.space	20
 600      00000000 
 600      00000000 
 600      00000000 
 600      00000000 
 601              		.section	.rodata.str1.4,"aMS",%progbits,1
 602              		.align	2
 603              	.LC0:
 604 0000 70776D5F 		.ascii	"pwm_lld_start(), #1\000"
 604      6C6C645F 
 604      73746172 
 604      7428292C 
 604      20233100 
 605              		.text
 606              	.Letext0: