ARM GAS  C:\DOCUME~1\z_80\LOCALS~1\Temp\ccF4aAsj.s 			page 1


   1              		.syntax unified
   2              		.cpu cortex-m3
   3              		.fpu softvfp
   4              		.eabi_attribute 20, 1
   5              		.eabi_attribute 21, 1
   6              		.eabi_attribute 23, 3
   7              		.eabi_attribute 24, 1
   8              		.eabi_attribute 25, 1
   9              		.eabi_attribute 26, 1
  10              		.eabi_attribute 30, 2
  11              		.eabi_attribute 18, 4
  12              		.thumb
  13              		.file	"pwm_lld.c"
  14              		.section	.debug_abbrev,"",%progbits
  15              	.Ldebug_abbrev0:
  16              		.section	.debug_info,"",%progbits
  17              	.Ldebug_info0:
  18              		.section	.debug_line,"",%progbits
  19              	.Ldebug_line0:
  20 0000 9E020000 		.text
  20      02008101 
  20      00000201 
  20      FB0E0D00 
  20      01010101 
  21              	.Ltext0:
  22              		.cfi_sections	.debug_frame
  23              		.section	.text.VectorB8,"ax",%progbits
  24              		.align	2
  25              		.p2align 4,,15
  26              		.global	VectorB8
  27              		.thumb
  28              		.thumb_func
  29              		.type	VectorB8, %function
  30              	VectorB8:
  31              	.LFB56:
  32              		.file 1 "../chibios_2.4.x/os/hal/platforms/STM32/pwm_lld.c"
  33              		.loc 1 221 0
  34              		.cfi_startproc
  35              		@ args = 0, pretend = 0, frame = 0
  36              		@ frame_needed = 0, uses_anonymous_args = 0
  37 0000 70B5     		push	{r4, r5, r6, lr}
  38              	.LCFI0:
  39              		.cfi_def_cfa_offset 16
  40              	.LBB4:
  41              	.LBB6:
  42              		.loc 1 114 0
  43 0002 1B4D     		ldr	r5, .L12
  44              		.cfi_offset 14, -4
  45              		.cfi_offset 6, -8
  46              		.cfi_offset 5, -12
  47              		.cfi_offset 4, -16
  48              	.LBE6:
  49              	.LBE4:
  50              		.loc 1 223 0
  51 0004 FFF7FEFF 		bl	dbg_check_enter_isr
  52              	.LVL0:
  53              	.LBB8:
ARM GAS  C:\DOCUME~1\z_80\LOCALS~1\Temp\ccF4aAsj.s 			page 2


  54              	.LBB5:
  55              		.loc 1 114 0
  56 0008 2B69     		ldr	r3, [r5, #16]
  57              		.loc 1 116 0
  58 000a 4FF6E071 		movw	r1, 65504	@ movhi
  59              		.loc 1 114 0
  60 000e 1A8A     		ldrh	r2, [r3, #16]
  61              	.LVL1:
  62              		.loc 1 115 0
  63 0010 9C89     		ldrh	r4, [r3, #12]
  64              		.loc 1 116 0
  65 0012 1982     		strh	r1, [r3, #16]	@ movhi
  66              	.LVL2:
  67              		.loc 1 118 0
  68 0014 1440     		ands	r4, r4, r2
  69              	.LVL3:
  70 0016 14F0020F 		tst	r4, #2
  71 001a 24D1     		bne	.L8
  72              	.L2:
  73              		.loc 1 120 0
  74 001c 14F0040F 		tst	r4, #4
  75 0020 1CD1     		bne	.L9
  76              	.L3:
  77              		.loc 1 122 0
  78 0022 14F0080F 		tst	r4, #8
  79 0026 14D1     		bne	.L10
  80              	.L4:
  81              		.loc 1 124 0
  82 0028 14F0100F 		tst	r4, #16
  83 002c 0CD1     		bne	.L11
  84              	.L5:
  85              		.loc 1 126 0
  86 002e 14F0010F 		tst	r4, #1
  87 0032 03D0     		beq	.L6
  88              		.loc 1 127 0
  89 0034 6A68     		ldr	r2, [r5, #4]
  90 0036 0E48     		ldr	r0, .L12
  91 0038 9368     		ldr	r3, [r2, #8]
  92 003a 9847     		blx	r3
  93              	.L6:
  94              	.LBE5:
  95              	.LBE8:
  96              		.loc 1 227 0
  97 003c FFF7FEFF 		bl	dbg_check_leave_isr
  98              		.loc 1 228 0
  99 0040 BDE87040 		pop	{r4, r5, r6, lr}
 100              		.loc 1 227 0
 101 0044 FFF7FEBF 		b	_port_irq_epilogue
 102              	.L11:
 103              	.LBB9:
 104              	.LBB7:
 105              		.loc 1 125 0
 106 0048 6968     		ldr	r1, [r5, #4]
 107 004a 0948     		ldr	r0, .L12
 108 004c 8A6A     		ldr	r2, [r1, #40]
 109 004e 9047     		blx	r2
 110 0050 EDE7     		b	.L5
ARM GAS  C:\DOCUME~1\z_80\LOCALS~1\Temp\ccF4aAsj.s 			page 3


 111              	.L10:
 112              		.loc 1 123 0
 113 0052 6B68     		ldr	r3, [r5, #4]
 114 0054 0648     		ldr	r0, .L12
 115 0056 196A     		ldr	r1, [r3, #32]
 116 0058 8847     		blx	r1
 117 005a E5E7     		b	.L4
 118              	.L9:
 119              		.loc 1 121 0
 120 005c 6A68     		ldr	r2, [r5, #4]
 121 005e 0448     		ldr	r0, .L12
 122 0060 9369     		ldr	r3, [r2, #24]
 123 0062 9847     		blx	r3
 124 0064 DDE7     		b	.L3
 125              	.L8:
 126              		.loc 1 119 0
 127 0066 6968     		ldr	r1, [r5, #4]
 128 0068 2846     		mov	r0, r5
 129 006a 0A69     		ldr	r2, [r1, #16]
 130 006c 9047     		blx	r2
 131 006e D5E7     		b	.L2
 132              	.L13:
 133              		.align	2
 134              	.L12:
 135 0070 00000000 		.word	.LANCHOR0
 136              	.LBE7:
 137              	.LBE9:
 138              		.cfi_endproc
 139              	.LFE56:
 140              		.size	VectorB8, .-VectorB8
 141 0074 AFF30080 		.section	.text.pwm_lld_init,"ax",%progbits
 141      AFF30080 
 141      AFF30080 
 142              		.align	2
 143              		.p2align 4,,15
 144              		.global	pwm_lld_init
 145              		.thumb
 146              		.thumb_func
 147              		.type	pwm_lld_init, %function
 148              	pwm_lld_init:
 149              	.LFB57:
 150              		.loc 1 303 0
 151              		.cfi_startproc
 152              		@ args = 0, pretend = 0, frame = 0
 153              		@ frame_needed = 0, uses_anonymous_args = 0
 154 0000 10B5     		push	{r4, lr}
 155              	.LCFI1:
 156              		.cfi_def_cfa_offset 8
 157              		.loc 1 325 0
 158 0002 034C     		ldr	r4, .L15
 159              		.cfi_offset 14, -4
 160              		.cfi_offset 4, -8
 161 0004 2046     		mov	r0, r4
 162 0006 FFF7FEFF 		bl	pwmObjectInit
 163              		.loc 1 326 0
 164 000a 024B     		ldr	r3, .L15+4
 165 000c 2361     		str	r3, [r4, #16]
ARM GAS  C:\DOCUME~1\z_80\LOCALS~1\Temp\ccF4aAsj.s 			page 4


 166              		.loc 1 340 0
 167 000e 10BD     		pop	{r4, pc}
 168              	.L16:
 169              		.align	2
 170              	.L15:
 171 0010 00000000 		.word	.LANCHOR0
 172 0014 00080040 		.word	1073743872
 173              		.cfi_endproc
 174              	.LFE57:
 175              		.size	pwm_lld_init, .-pwm_lld_init
 176 0018 AFF30080 		.section	.text.pwm_lld_start,"ax",%progbits
 176      AFF30080 
 177              		.align	2
 178              		.p2align 4,,15
 179              		.global	pwm_lld_start
 180              		.thumb
 181              		.thumb_func
 182              		.type	pwm_lld_start, %function
 183              	pwm_lld_start:
 184              	.LFB58:
 185              		.loc 1 351 0
 186              		.cfi_startproc
 187              		@ args = 0, pretend = 0, frame = 0
 188              		@ frame_needed = 0, uses_anonymous_args = 0
 189              	.LVL4:
 190              		.loc 1 355 0
 191 0000 0378     		ldrb	r3, [r0, #0]	@ zero_extendqisi2
 192              		.loc 1 351 0
 193 0002 70B5     		push	{r4, r5, r6, lr}
 194              	.LCFI2:
 195              		.cfi_def_cfa_offset 16
 196              		.loc 1 355 0
 197 0004 012B     		cmp	r3, #1
 198              		.loc 1 351 0
 199 0006 0446     		mov	r4, r0
 200              		.cfi_offset 14, -4
 201              		.cfi_offset 6, -8
 202              		.cfi_offset 5, -12
 203              		.cfi_offset 4, -16
 204              		.loc 1 355 0
 205 0008 6DD0     		beq	.L37
 206              		.loc 1 430 0
 207 000a 0369     		ldr	r3, [r0, #16]
 208 000c 0020     		movs	r0, #0
 209              	.LVL5:
 210 000e 1880     		strh	r0, [r3, #0]	@ movhi
 211              		.loc 1 431 0
 212 0010 9881     		strh	r0, [r3, #12]	@ movhi
 213              		.loc 1 432 0
 214 0012 1882     		strh	r0, [r3, #16]	@ movhi
 215              		.loc 1 433 0
 216 0014 5863     		str	r0, [r3, #52]
 217              		.loc 1 434 0
 218 0016 9863     		str	r0, [r3, #56]
 219              		.loc 1 435 0
 220 0018 D863     		str	r0, [r3, #60]
 221              		.loc 1 436 0
ARM GAS  C:\DOCUME~1\z_80\LOCALS~1\Temp\ccF4aAsj.s 			page 5


 222 001a 1864     		str	r0, [r3, #64]
 223              		.loc 1 437 0
 224 001c 5862     		str	r0, [r3, #36]
 225              	.L20:
 226              		.loc 1 441 0
 227 001e 6268     		ldr	r2, [r4, #4]
 228 0020 E168     		ldr	r1, [r4, #12]
 229 0022 1668     		ldr	r6, [r2, #0]
 230 0024 B1FBF6F0 		udiv	r0, r1, r6
 231 0028 451E     		subs	r5, r0, #1
 232              	.LVL6:
 233              		.loc 1 442 0
 234 002a B5F5803F 		cmp	r5, #65536
 235 002e 03D2     		bcs	.L21
 236              		.loc 1 442 0 is_stmt 0 discriminator 2
 237 0030 06FB00FC 		mul	ip, r6, r0
 238 0034 6145     		cmp	r1, ip
 239 0036 04D0     		beq	.L22
 240              	.L21:
 241              		.loc 1 442 0 discriminator 1
 242 0038 3948     		ldr	r0, .L45
 243 003a FFF7FEFF 		bl	chDbgPanic
 244 003e 6268     		ldr	r2, [r4, #4]
 245 0040 2369     		ldr	r3, [r4, #16]
 246              	.L22:
 247              		.loc 1 446 0 is_stmt 1
 248 0042 2089     		ldrh	r0, [r4, #8]
 249              		.loc 1 451 0
 250 0044 D168     		ldr	r1, [r2, #12]
 251              		.loc 1 446 0
 252 0046 441E     		subs	r4, r0, #1
 253              	.LVL7:
 254              		.loc 1 451 0
 255 0048 01F00F01 		and	r1, r1, #15
 256              		.loc 1 447 0
 257 004c 908D     		ldrh	r0, [r2, #44]
 258              		.loc 1 446 0
 259 004e A4B2     		uxth	r4, r4
 260              		.loc 1 451 0
 261 0050 0129     		cmp	r1, #1
 262              		.loc 1 445 0
 263 0052 1D85     		strh	r5, [r3, #40]	@ movhi
 264              		.loc 1 446 0
 265 0054 DC62     		str	r4, [r3, #44]
 266              		.loc 1 447 0
 267 0056 9880     		strh	r0, [r3, #4]	@ movhi
 268              	.LVL8:
 269              		.loc 1 451 0
 270 0058 03D0     		beq	.L23
 271              		.loc 1 450 0
 272 005a 0229     		cmp	r1, #2
 273 005c 0CBF     		ite	eq
 274 005e 0321     		moveq	r1, #3
 275 0060 0021     		movne	r1, #0
 276              	.L23:
 277              	.LVL9:
 278              		.loc 1 459 0
ARM GAS  C:\DOCUME~1\z_80\LOCALS~1\Temp\ccF4aAsj.s 			page 6


 279 0062 5069     		ldr	r0, [r2, #20]
 280 0064 00F00F00 		and	r0, r0, #15
 281 0068 0128     		cmp	r0, #1
 282 006a 21D0     		beq	.L27
 283 006c 0228     		cmp	r0, #2
 284 006e 1DD0     		beq	.L38
 285              		.loc 1 467 0
 286 0070 D069     		ldr	r0, [r2, #28]
 287 0072 00F00F00 		and	r0, r0, #15
 288 0076 0128     		cmp	r0, #1
 289 0078 21D0     		beq	.L30
 290              	.LVL10:
 291              	.L41:
 292 007a 0228     		cmp	r0, #2
 293 007c 2ED0     		beq	.L39
 294              	.LVL11:
 295              		.loc 1 475 0
 296 007e 506A     		ldr	r0, [r2, #36]
 297 0080 00F00F00 		and	r0, r0, #15
 298 0084 0128     		cmp	r0, #1
 299 0086 21D0     		beq	.L33
 300              	.LVL12:
 301              	.L42:
 302 0088 0228     		cmp	r0, #2
 303 008a 22D0     		beq	.L40
 304              	.L32:
 305              	.LVL13:
 306              		.loc 1 522 0
 307 008c 9268     		ldr	r2, [r2, #8]
 308              		.loc 1 520 0
 309 008e 1984     		strh	r1, [r3, #32]	@ movhi
 310              		.loc 1 522 0
 311 0090 B2F1000C 		subs	ip, r2, #0
 312 0094 18BF     		it	ne
 313 0096 4FF0010C 		movne	ip, #1
 314              		.loc 1 521 0
 315 009a 0120     		movs	r0, #1
 316              		.loc 1 523 0
 317 009c 0021     		movs	r1, #0
 318              	.LVL14:
 319              		.loc 1 532 0
 320 009e 8522     		movs	r2, #133
 321              		.loc 1 521 0
 322 00a0 9882     		strh	r0, [r3, #20]	@ movhi
 323              		.loc 1 522 0
 324 00a2 A3F80CC0 		strh	ip, [r3, #12]	@ movhi
 325              		.loc 1 523 0
 326 00a6 1982     		strh	r1, [r3, #16]	@ movhi
 327              		.loc 1 532 0
 328 00a8 1A80     		strh	r2, [r3, #0]	@ movhi
 329              		.loc 1 533 0
 330 00aa 70BD     		pop	{r4, r5, r6, pc}
 331              	.LVL15:
 332              	.L38:
 333              		.loc 1 461 0
 334 00ac 41F02001 		orr	r1, r1, #32
 335              	.LVL16:
ARM GAS  C:\DOCUME~1\z_80\LOCALS~1\Temp\ccF4aAsj.s 			page 7


 336              	.L27:
 337              		.loc 1 467 0
 338 00b0 D069     		ldr	r0, [r2, #28]
 339              		.loc 1 463 0
 340 00b2 41F01001 		orr	r1, r1, #16
 341              	.LVL17:
 342              		.loc 1 467 0
 343 00b6 00F00F00 		and	r0, r0, #15
 344 00ba 0128     		cmp	r0, #1
 345 00bc DDD1     		bne	.L41
 346              	.LVL18:
 347              	.L30:
 348              		.loc 1 471 0
 349 00be 41F48071 		orr	r1, r1, #256
 350              	.LVL19:
 351              	.L43:
 352              		.loc 1 475 0
 353 00c2 506A     		ldr	r0, [r2, #36]
 354 00c4 00F00F00 		and	r0, r0, #15
 355 00c8 0128     		cmp	r0, #1
 356 00ca DDD1     		bne	.L42
 357              	.LVL20:
 358              	.L33:
 359              		.loc 1 479 0
 360 00cc 41F48051 		orr	r1, r1, #4096
 361              	.LVL21:
 362 00d0 DCE7     		b	.L32
 363              	.LVL22:
 364              	.L40:
 365              		.loc 1 477 0
 366 00d2 41F40051 		orr	r1, r1, #8192
 367              	.LVL23:
 368              		.loc 1 479 0
 369 00d6 41F48051 		orr	r1, r1, #4096
 370              	.LVL24:
 371 00da D7E7     		b	.L32
 372              	.LVL25:
 373              	.L39:
 374              		.loc 1 469 0
 375 00dc 41F40071 		orr	r1, r1, #512
 376              	.LVL26:
 377              		.loc 1 471 0
 378 00e0 41F48071 		orr	r1, r1, #256
 379              	.LVL27:
 380 00e4 EDE7     		b	.L43
 381              	.LVL28:
 382              	.L37:
 383              		.loc 1 387 0
 384 00e6 0F49     		ldr	r1, .L45+4
 385 00e8 8842     		cmp	r0, r1
 386 00ea 07D0     		beq	.L44
 387              	.LVL29:
 388              	.L19:
 389              		.loc 1 419 0
 390 00ec 2369     		ldr	r3, [r4, #16]
 391 00ee 46F6680C 		movw	ip, 26728	@ movhi
 392 00f2 A3F818C0 		strh	ip, [r3, #24]	@ movhi
ARM GAS  C:\DOCUME~1\z_80\LOCALS~1\Temp\ccF4aAsj.s 			page 8


 393              		.loc 1 423 0
 394 00f6 A3F81CC0 		strh	ip, [r3, #28]	@ movhi
 395 00fa 90E7     		b	.L20
 396              	.L44:
 397              		.loc 1 388 0
 398 00fc 0A4D     		ldr	r5, .L45+8
 399              		.loc 1 390 0
 400 00fe 1E20     		movs	r0, #30
 401              		.loc 1 388 0
 402 0100 EA69     		ldr	r2, [r5, #28]
 403 0102 42F00401 		orr	r1, r2, #4
 404 0106 E961     		str	r1, [r5, #28]
 405              		.loc 1 389 0
 406 0108 2B69     		ldr	r3, [r5, #16]
 407 010a 0022     		movs	r2, #0
 408 010c 43F00406 		orr	r6, r3, #4
 409 0110 2E61     		str	r6, [r5, #16]
 410              		.loc 1 390 0
 411 0112 7021     		movs	r1, #112
 412              		.loc 1 389 0
 413 0114 2A61     		str	r2, [r5, #16]
 414              		.loc 1 390 0
 415 0116 FFF7FEFF 		bl	nvicEnableVector
 416              		.loc 1 392 0
 417 011a 0448     		ldr	r0, .L45+12
 418 011c E060     		str	r0, [r4, #12]
 419 011e E5E7     		b	.L19
 420              	.L46:
 421              		.align	2
 422              	.L45:
 423 0120 00000000 		.word	.LC0
 424 0124 00000000 		.word	.LANCHOR0
 425 0128 00100240 		.word	1073876992
 426 012c 006CDC02 		.word	48000000
 427              		.cfi_endproc
 428              	.LFE58:
 429              		.size	pwm_lld_start, .-pwm_lld_start
 430              		.section	.text.pwm_lld_stop,"ax",%progbits
 431              		.align	2
 432              		.p2align 4,,15
 433              		.global	pwm_lld_stop
 434              		.thumb
 435              		.thumb_func
 436              		.type	pwm_lld_stop, %function
 437              	pwm_lld_stop:
 438              	.LFB59:
 439              		.loc 1 542 0
 440              		.cfi_startproc
 441              		@ args = 0, pretend = 0, frame = 0
 442              		@ frame_needed = 0, uses_anonymous_args = 0
 443              	.LVL30:
 444 0000 08B5     		push	{r3, lr}
 445              	.LCFI3:
 446              		.cfi_def_cfa_offset 8
 447              		.loc 1 545 0
 448 0002 0378     		ldrb	r3, [r0, #0]	@ zero_extendqisi2
 449              		.cfi_offset 14, -4
ARM GAS  C:\DOCUME~1\z_80\LOCALS~1\Temp\ccF4aAsj.s 			page 9


 450              		.cfi_offset 3, -8
 451 0004 022B     		cmp	r3, #2
 452 0006 00D0     		beq	.L49
 453              	.LVL31:
 454              	.L47:
 455 0008 08BD     		pop	{r3, pc}
 456              	.LVL32:
 457              	.L49:
 458              		.loc 1 573 0
 459 000a 0849     		ldr	r1, .L50
 460              		.loc 1 546 0
 461 000c 0369     		ldr	r3, [r0, #16]
 462 000e 0022     		movs	r2, #0
 463              		.loc 1 573 0
 464 0010 8842     		cmp	r0, r1
 465              		.loc 1 546 0
 466 0012 1A80     		strh	r2, [r3, #0]	@ movhi
 467              		.loc 1 547 0
 468 0014 9A81     		strh	r2, [r3, #12]	@ movhi
 469              		.loc 1 548 0
 470 0016 1A82     		strh	r2, [r3, #16]	@ movhi
 471              		.loc 1 573 0
 472 0018 F6D1     		bne	.L47
 473              		.loc 1 574 0
 474 001a 1E20     		movs	r0, #30
 475              	.LVL33:
 476 001c FFF7FEFF 		bl	nvicDisableVector
 477              		.loc 1 575 0
 478 0020 0349     		ldr	r1, .L50+4
 479 0022 CA69     		ldr	r2, [r1, #28]
 480 0024 22F00400 		bic	r0, r2, #4
 481 0028 C861     		str	r0, [r1, #28]
 482 002a EDE7     		b	.L47
 483              	.L51:
 484              		.align	2
 485              	.L50:
 486 002c 00000000 		.word	.LANCHOR0
 487 0030 00100240 		.word	1073876992
 488              		.cfi_endproc
 489              	.LFE59:
 490              		.size	pwm_lld_stop, .-pwm_lld_stop
 491 0034 AFF30080 		.section	.text.pwm_lld_enable_channel,"ax",%progbits
 491      AFF30080 
 491      AFF30080 
 492              		.align	2
 493              		.p2align 4,,15
 494              		.global	pwm_lld_enable_channel
 495              		.thumb
 496              		.thumb_func
 497              		.type	pwm_lld_enable_channel, %function
 498              	pwm_lld_enable_channel:
 499              	.LFB60:
 500              		.loc 1 608 0
 501              		.cfi_startproc
 502              		@ args = 0, pretend = 0, frame = 0
 503              		@ frame_needed = 0, uses_anonymous_args = 0
 504              		@ link register save eliminated.
ARM GAS  C:\DOCUME~1\z_80\LOCALS~1\Temp\ccF4aAsj.s 			page 10


 505              	.LVL34:
 506              		.loc 1 613 0
 507 0000 4368     		ldr	r3, [r0, #4]
 508              		.loc 1 610 0
 509 0002 0069     		ldr	r0, [r0, #16]
 510              	.LVL35:
 511              		.loc 1 613 0
 512 0004 03EBC10C 		add	ip, r3, r1, lsl #3
 513              		.loc 1 608 0
 514 0008 10B4     		push	{r4}
 515              	.LCFI4:
 516              		.cfi_def_cfa_offset 4
 517              		.loc 1 613 0
 518 000a DCF81030 		ldr	r3, [ip, #16]
 519              		.loc 1 610 0
 520 000e 01F10C04 		add	r4, r1, #12
 521              		.cfi_offset 4, -4
 522 0012 00EB8404 		add	r4, r0, r4, lsl #2
 523 0016 6260     		str	r2, [r4, #4]
 524              		.loc 1 613 0
 525 0018 5BB1     		cbz	r3, .L52
 526              	.LBB10:
 527              		.loc 1 617 0
 528 001a 0223     		movs	r3, #2
 529 001c 13FA01F1 		lsls	r1, r3, r1
 530              	.LVL36:
 531              		.loc 1 614 0
 532 0020 8289     		ldrh	r2, [r0, #12]
 533              	.LVL37:
 534 0022 93B2     		uxth	r3, r2
 535              	.LVL38:
 536              		.loc 1 617 0
 537 0024 1942     		tst	r1, r3
 538 0026 04D1     		bne	.L52
 539              		.loc 1 618 0
 540 0028 89B2     		uxth	r1, r1
 541              		.loc 1 619 0
 542 002a CA43     		mvns	r2, r1
 543              		.loc 1 618 0
 544 002c 1943     		orrs	r1, r1, r3
 545 002e 8181     		strh	r1, [r0, #12]	@ movhi
 546              		.loc 1 619 0
 547 0030 0282     		strh	r2, [r0, #16]	@ movhi
 548              	.LVL39:
 549              	.L52:
 550              	.LBE10:
 551              		.loc 1 622 0
 552 0032 10BC     		pop	{r4}
 553 0034 7047     		bx	lr
 554              		.cfi_endproc
 555              	.LFE60:
 556              		.size	pwm_lld_enable_channel, .-pwm_lld_enable_channel
 557              		.section	.text.pwm_lld_disable_channel,"ax",%progbits
 558              		.align	2
 559              		.p2align 4,,15
 560              		.global	pwm_lld_disable_channel
 561              		.thumb
ARM GAS  C:\DOCUME~1\z_80\LOCALS~1\Temp\ccF4aAsj.s 			page 11


 562              		.thumb_func
 563              		.type	pwm_lld_disable_channel, %function
 564              	pwm_lld_disable_channel:
 565              	.LFB61:
 566              		.loc 1 636 0
 567              		.cfi_startproc
 568              		@ args = 0, pretend = 0, frame = 0
 569              		@ frame_needed = 0, uses_anonymous_args = 0
 570              		@ link register save eliminated.
 571              	.LVL40:
 572              		.loc 1 639 0
 573 0000 0222     		movs	r2, #2
 574 0002 12FA01F3 		lsls	r3, r2, r1
 575              		.loc 1 638 0
 576 0006 0269     		ldr	r2, [r0, #16]
 577 0008 0C31     		adds	r1, r1, #12
 578              	.LVL41:
 579 000a 02EB810C 		add	ip, r2, r1, lsl #2
 580 000e 0020     		movs	r0, #0
 581              	.LVL42:
 582 0010 CCF80400 		str	r0, [ip, #4]
 583              		.loc 1 639 0
 584 0014 9089     		ldrh	r0, [r2, #12]
 585 0016 81B2     		uxth	r1, r0
 586 0018 21EA0303 		bic	r3, r1, r3
 587 001c 9381     		strh	r3, [r2, #12]	@ movhi
 588              		.loc 1 640 0
 589 001e 7047     		bx	lr
 590              		.cfi_endproc
 591              	.LFE61:
 592              		.size	pwm_lld_disable_channel, .-pwm_lld_disable_channel
 593              		.global	PWMD4
 594              		.section	.bss.PWMD4,"aw",%nobits
 595              		.align	2
 596              		.set	.LANCHOR0,. + 0
 597              		.type	PWMD4, %object
 598              		.size	PWMD4, 20
 599              	PWMD4:
 600 0000 00000000 		.space	20
 600      00000000 
 600      00000000 
 600      00000000 
 600      00000000 
 601              		.section	.rodata.str1.4,"aMS",%progbits,1
 602              		.align	2
 603              	.LC0:
 604 0000 70776D5F 		.ascii	"pwm_lld_start(), #1\000"
 604      6C6C645F 
 604      73746172 
 604      7428292C 
 604      20233100 
 605              		.text
 606              	.Letext0:
 607              		.section	.debug_loc,"",%progbits
 608              	.Ldebug_loc0:
 609              	.LLST0:
 610 0000 00000000 		.4byte	.LFB56
ARM GAS  C:\DOCUME~1\z_80\LOCALS~1\Temp\ccF4aAsj.s 			page 12


 611 0004 02000000 		.4byte	.LCFI0
 612 0008 0200     		.2byte	0x2
 613 000a 7D       		.byte	0x7d
 614 000b 00       		.sleb128 0
 615 000c 02000000 		.4byte	.LCFI0
 616 0010 74000000 		.4byte	.LFE56
 617 0014 0200     		.2byte	0x2
 618 0016 7D       		.byte	0x7d
 619 0017 10       		.sleb128 16
 620 0018 00000000 		.4byte	0x0
 621 001c 00000000 		.4byte	0x0
 622              	.LLST1:
 623 0020 14000000 		.4byte	.LVL2
 624 0024 16000000 		.4byte	.LVL3
 625 0028 0A00     		.2byte	0xa
 626 002a 72       		.byte	0x72
 627 002b 00       		.sleb128 0
 628 002c 0A       		.byte	0xa
 629 002d FFFF     		.2byte	0xffff
 630 002f 1A       		.byte	0x1a
 631 0030 74       		.byte	0x74
 632 0031 00       		.sleb128 0
 633 0032 1A       		.byte	0x1a
 634 0033 9F       		.byte	0x9f
 635 0034 00000000 		.4byte	0x0
 636 0038 00000000 		.4byte	0x0
 637              	.LLST2:
 638 003c 00000000 		.4byte	.LFB57
 639 0040 02000000 		.4byte	.LCFI1
 640 0044 0200     		.2byte	0x2
 641 0046 7D       		.byte	0x7d
 642 0047 00       		.sleb128 0
 643 0048 02000000 		.4byte	.LCFI1
 644 004c 18000000 		.4byte	.LFE57
 645 0050 0200     		.2byte	0x2
 646 0052 7D       		.byte	0x7d
 647 0053 08       		.sleb128 8
 648 0054 00000000 		.4byte	0x0
 649 0058 00000000 		.4byte	0x0
 650              	.LLST3:
 651 005c 00000000 		.4byte	.LFB58
 652 0060 04000000 		.4byte	.LCFI2
 653 0064 0200     		.2byte	0x2
 654 0066 7D       		.byte	0x7d
 655 0067 00       		.sleb128 0
 656 0068 04000000 		.4byte	.LCFI2
 657 006c 30010000 		.4byte	.LFE58
 658 0070 0200     		.2byte	0x2
 659 0072 7D       		.byte	0x7d
 660 0073 10       		.sleb128 16
 661 0074 00000000 		.4byte	0x0
 662 0078 00000000 		.4byte	0x0
 663              	.LLST4:
 664 007c 00000000 		.4byte	.LVL4
 665 0080 0E000000 		.4byte	.LVL5
 666 0084 0100     		.2byte	0x1
 667 0086 50       		.byte	0x50
ARM GAS  C:\DOCUME~1\z_80\LOCALS~1\Temp\ccF4aAsj.s 			page 13


 668 0087 0E000000 		.4byte	.LVL5
 669 008b 48000000 		.4byte	.LVL7
 670 008f 0100     		.2byte	0x1
 671 0091 54       		.byte	0x54
 672 0092 E6000000 		.4byte	.LVL28
 673 0096 EC000000 		.4byte	.LVL29
 674 009a 0100     		.2byte	0x1
 675 009c 50       		.byte	0x50
 676 009d EC000000 		.4byte	.LVL29
 677 00a1 30010000 		.4byte	.LFE58
 678 00a5 0100     		.2byte	0x1
 679 00a7 54       		.byte	0x54
 680 00a8 00000000 		.4byte	0x0
 681 00ac 00000000 		.4byte	0x0
 682              	.LLST5:
 683 00b0 2A000000 		.4byte	.LVL6
 684 00b4 E6000000 		.4byte	.LVL28
 685 00b8 0100     		.2byte	0x1
 686 00ba 55       		.byte	0x55
 687 00bb 00000000 		.4byte	0x0
 688 00bf 00000000 		.4byte	0x0
 689              	.LLST6:
 690 00c3 58000000 		.4byte	.LVL8
 691 00c7 62000000 		.4byte	.LVL9
 692 00cb 0200     		.2byte	0x2
 693 00cd 30       		.byte	0x30
 694 00ce 9F       		.byte	0x9f
 695 00cf 62000000 		.4byte	.LVL9
 696 00d3 7A000000 		.4byte	.LVL10
 697 00d7 0100     		.2byte	0x1
 698 00d9 51       		.byte	0x51
 699 00da 7E000000 		.4byte	.LVL11
 700 00de 88000000 		.4byte	.LVL12
 701 00e2 0100     		.2byte	0x1
 702 00e4 51       		.byte	0x51
 703 00e5 8C000000 		.4byte	.LVL13
 704 00e9 9E000000 		.4byte	.LVL14
 705 00ed 0100     		.2byte	0x1
 706 00ef 51       		.byte	0x51
 707 00f0 AC000000 		.4byte	.LVL15
 708 00f4 B0000000 		.4byte	.LVL16
 709 00f8 0100     		.2byte	0x1
 710 00fa 51       		.byte	0x51
 711 00fb B0000000 		.4byte	.LVL16
 712 00ff B6000000 		.4byte	.LVL17
 713 0103 0100     		.2byte	0x1
 714 0105 51       		.byte	0x51
 715 0106 B6000000 		.4byte	.LVL17
 716 010a BE000000 		.4byte	.LVL18
 717 010e 0100     		.2byte	0x1
 718 0110 51       		.byte	0x51
 719 0111 BE000000 		.4byte	.LVL18
 720 0115 C2000000 		.4byte	.LVL19
 721 0119 0100     		.2byte	0x1
 722 011b 51       		.byte	0x51
 723 011c C2000000 		.4byte	.LVL19
 724 0120 CC000000 		.4byte	.LVL20
ARM GAS  C:\DOCUME~1\z_80\LOCALS~1\Temp\ccF4aAsj.s 			page 14


 725 0124 0100     		.2byte	0x1
 726 0126 51       		.byte	0x51
 727 0127 CC000000 		.4byte	.LVL20
 728 012b D0000000 		.4byte	.LVL21
 729 012f 0100     		.2byte	0x1
 730 0131 51       		.byte	0x51
 731 0132 D0000000 		.4byte	.LVL21
 732 0136 D2000000 		.4byte	.LVL22
 733 013a 0100     		.2byte	0x1
 734 013c 51       		.byte	0x51
 735 013d D6000000 		.4byte	.LVL23
 736 0141 DA000000 		.4byte	.LVL24
 737 0145 0100     		.2byte	0x1
 738 0147 51       		.byte	0x51
 739 0148 DA000000 		.4byte	.LVL24
 740 014c DC000000 		.4byte	.LVL25
 741 0150 0100     		.2byte	0x1
 742 0152 51       		.byte	0x51
 743 0153 E0000000 		.4byte	.LVL26
 744 0157 E4000000 		.4byte	.LVL27
 745 015b 0100     		.2byte	0x1
 746 015d 51       		.byte	0x51
 747 015e E4000000 		.4byte	.LVL27
 748 0162 E6000000 		.4byte	.LVL28
 749 0166 0100     		.2byte	0x1
 750 0168 51       		.byte	0x51
 751 0169 00000000 		.4byte	0x0
 752 016d 00000000 		.4byte	0x0
 753              	.LLST7:
 754 0171 00000000 		.4byte	.LFB59
 755 0175 02000000 		.4byte	.LCFI3
 756 0179 0200     		.2byte	0x2
 757 017b 7D       		.byte	0x7d
 758 017c 00       		.sleb128 0
 759 017d 02000000 		.4byte	.LCFI3
 760 0181 34000000 		.4byte	.LFE59
 761 0185 0200     		.2byte	0x2
 762 0187 7D       		.byte	0x7d
 763 0188 08       		.sleb128 8
 764 0189 00000000 		.4byte	0x0
 765 018d 00000000 		.4byte	0x0
 766              	.LLST8:
 767 0191 00000000 		.4byte	.LVL30
 768 0195 08000000 		.4byte	.LVL31
 769 0199 0100     		.2byte	0x1
 770 019b 50       		.byte	0x50
 771 019c 0A000000 		.4byte	.LVL32
 772 01a0 1C000000 		.4byte	.LVL33
 773 01a4 0100     		.2byte	0x1
 774 01a6 50       		.byte	0x50
 775 01a7 00000000 		.4byte	0x0
 776 01ab 00000000 		.4byte	0x0
 777              	.LLST9:
 778 01af 00000000 		.4byte	.LFB60
 779 01b3 0A000000 		.4byte	.LCFI4
 780 01b7 0200     		.2byte	0x2
 781 01b9 7D       		.byte	0x7d
ARM GAS  C:\DOCUME~1\z_80\LOCALS~1\Temp\ccF4aAsj.s 			page 15


 782 01ba 00       		.sleb128 0
 783 01bb 0A000000 		.4byte	.LCFI4
 784 01bf 36000000 		.4byte	.LFE60
 785 01c3 0200     		.2byte	0x2
 786 01c5 7D       		.byte	0x7d
 787 01c6 04       		.sleb128 4
 788 01c7 00000000 		.4byte	0x0
 789 01cb 00000000 		.4byte	0x0
 790              	.LLST10:
 791 01cf 00000000 		.4byte	.LVL34
 792 01d3 04000000 		.4byte	.LVL35
 793 01d7 0100     		.2byte	0x1
 794 01d9 50       		.byte	0x50
 795 01da 00000000 		.4byte	0x0
 796 01de 00000000 		.4byte	0x0
 797              	.LLST11:
 798 01e2 00000000 		.4byte	.LVL34
 799 01e6 20000000 		.4byte	.LVL36
 800 01ea 0100     		.2byte	0x1
 801 01ec 51       		.byte	0x51
 802 01ed 00000000 		.4byte	0x0
 803 01f1 00000000 		.4byte	0x0
 804              	.LLST12:
 805 01f5 00000000 		.4byte	.LVL34
 806 01f9 22000000 		.4byte	.LVL37
 807 01fd 0100     		.2byte	0x1
 808 01ff 52       		.byte	0x52
 809 0200 00000000 		.4byte	0x0
 810 0204 00000000 		.4byte	0x0
 811              	.LLST13:
 812 0208 24000000 		.4byte	.LVL38
 813 020c 32000000 		.4byte	.LVL39
 814 0210 0100     		.2byte	0x1
 815 0212 53       		.byte	0x53
 816 0213 00000000 		.4byte	0x0
 817 0217 00000000 		.4byte	0x0
 818              	.LLST14:
 819 021b 00000000 		.4byte	.LVL40
 820 021f 10000000 		.4byte	.LVL42
 821 0223 0100     		.2byte	0x1
 822 0225 50       		.byte	0x50
 823 0226 00000000 		.4byte	0x0
 824 022a 00000000 		.4byte	0x0
 825              	.LLST15:
 826 022e 00000000 		.4byte	.LVL40
 827 0232 0A000000 		.4byte	.LVL41
 828 0236 0100     		.2byte	0x1
 829 0238 51       		.byte	0x51
 830 0239 00000000 		.4byte	0x0
 831 023d 00000000 		.4byte	0x0
 832              		.file 2 "c:\\programs\\codesourcery\\arm-2012.03-56\\bin\\../lib/gcc/arm-none-eabi/4.5.2/../../../
 833              		.file 3 "../chibios_2.4.x/os/hal/platforms/STM32F1xx/stm32f10x.h"
 834              		.file 4 "../chibios_2.4.x/os/hal/platforms/STM32/stm32.h"
 835              		.file 5 "../chibios_2.4.x/os/hal/include/pwm.h"
 836              		.file 6 "../chibios_2.4.x/os/hal/platforms/STM32/pwm_lld.h"
 837              		.file 7 "../chibios_2.4.x/os/ports/common/ARMCMx/CMSIS/include/core_cm3.h"
 838              		.section	.debug_info
ARM GAS  C:\DOCUME~1\z_80\LOCALS~1\Temp\ccF4aAsj.s 			page 16


 839 0000 DF070000 		.4byte	0x7df
 840 0004 0200     		.2byte	0x2
 841 0006 00000000 		.4byte	.Ldebug_abbrev0
 842 000a 04       		.byte	0x4
 843 000b 01       		.uleb128 0x1
 844 000c 8C050000 		.4byte	.LASF127
 845 0010 01       		.byte	0x1
 846 0011 9D030000 		.4byte	.LASF128
 847 0015 B2000000 		.4byte	.LASF129
 848 0019 00000000 		.4byte	0x0
 849 001d 00000000 		.4byte	0x0
 850 0021 40000000 		.4byte	.Ldebug_ranges0+0x40
 851 0025 00000000 		.4byte	.Ldebug_line0
 852 0029 02       		.uleb128 0x2
 853 002a 04       		.byte	0x4
 854 002b 05       		.byte	0x5
 855 002c 696E7400 		.ascii	"int\000"
 856 0030 03       		.uleb128 0x3
 857 0031 04       		.byte	0x4
 858 0032 07       		.byte	0x7
 859 0033 22020000 		.4byte	.LASF0
 860 0037 03       		.uleb128 0x3
 861 0038 01       		.byte	0x1
 862 0039 06       		.byte	0x6
 863 003a 48010000 		.4byte	.LASF1
 864 003e 04       		.uleb128 0x4
 865 003f 5D050000 		.4byte	.LASF4
 866 0043 02       		.byte	0x2
 867 0044 2A       		.byte	0x2a
 868 0045 49000000 		.4byte	0x49
 869 0049 03       		.uleb128 0x3
 870 004a 01       		.byte	0x1
 871 004b 08       		.byte	0x8
 872 004c 68030000 		.4byte	.LASF2
 873 0050 03       		.uleb128 0x3
 874 0051 02       		.byte	0x2
 875 0052 05       		.byte	0x5
 876 0053 DA030000 		.4byte	.LASF3
 877 0057 04       		.uleb128 0x4
 878 0058 CC010000 		.4byte	.LASF5
 879 005c 02       		.byte	0x2
 880 005d 36       		.byte	0x36
 881 005e 62000000 		.4byte	0x62
 882 0062 03       		.uleb128 0x3
 883 0063 02       		.byte	0x2
 884 0064 07       		.byte	0x7
 885 0065 ED010000 		.4byte	.LASF6
 886 0069 04       		.uleb128 0x4
 887 006a 60030000 		.4byte	.LASF7
 888 006e 02       		.byte	0x2
 889 006f 4F       		.byte	0x4f
 890 0070 74000000 		.4byte	0x74
 891 0074 03       		.uleb128 0x3
 892 0075 04       		.byte	0x4
 893 0076 05       		.byte	0x5
 894 0077 8D010000 		.4byte	.LASF8
 895 007b 04       		.uleb128 0x4
ARM GAS  C:\DOCUME~1\z_80\LOCALS~1\Temp\ccF4aAsj.s 			page 17


 896 007c 44040000 		.4byte	.LASF9
 897 0080 02       		.byte	0x2
 898 0081 50       		.byte	0x50
 899 0082 86000000 		.4byte	0x86
 900 0086 03       		.uleb128 0x3
 901 0087 04       		.byte	0x4
 902 0088 07       		.byte	0x7
 903 0089 45020000 		.4byte	.LASF10
 904 008d 03       		.uleb128 0x3
 905 008e 08       		.byte	0x8
 906 008f 05       		.byte	0x5
 907 0090 3A010000 		.4byte	.LASF11
 908 0094 03       		.uleb128 0x3
 909 0095 08       		.byte	0x8
 910 0096 07       		.byte	0x7
 911 0097 54010000 		.4byte	.LASF12
 912 009b 05       		.uleb128 0x5
 913 009c 7B000000 		.4byte	0x7b
 914 00a0 03       		.uleb128 0x3
 915 00a1 01       		.byte	0x1
 916 00a2 08       		.byte	0x8
 917 00a3 9B040000 		.4byte	.LASF13
 918 00a7 06       		.uleb128 0x6
 919 00a8 D3020000 		.4byte	.LASF130
 920 00ac 01       		.byte	0x1
 921 00ad 03       		.byte	0x3
 922 00ae A9       		.byte	0xa9
 923 00af E6010000 		.4byte	0x1e6
 924 00b3 07       		.uleb128 0x7
 925 00b4 BF040000 		.4byte	.LASF14
 926 00b8 72       		.sleb128 -14
 927 00b9 07       		.uleb128 0x7
 928 00ba 2F020000 		.4byte	.LASF15
 929 00be 74       		.sleb128 -12
 930 00bf 07       		.uleb128 0x7
 931 00c0 0F020000 		.4byte	.LASF16
 932 00c4 75       		.sleb128 -11
 933 00c5 07       		.uleb128 0x7
 934 00c6 59040000 		.4byte	.LASF17
 935 00ca 76       		.sleb128 -10
 936 00cb 07       		.uleb128 0x7
 937 00cc EB020000 		.4byte	.LASF18
 938 00d0 7B       		.sleb128 -5
 939 00d1 07       		.uleb128 0x7
 940 00d2 18050000 		.4byte	.LASF19
 941 00d6 7C       		.sleb128 -4
 942 00d7 07       		.uleb128 0x7
 943 00d8 E1010000 		.4byte	.LASF20
 944 00dc 7E       		.sleb128 -2
 945 00dd 07       		.uleb128 0x7
 946 00de B9020000 		.4byte	.LASF21
 947 00e2 7F       		.sleb128 -1
 948 00e3 07       		.uleb128 0x7
 949 00e4 10010000 		.4byte	.LASF22
 950 00e8 00       		.sleb128 0
 951 00e9 07       		.uleb128 0x7
 952 00ea 0D000000 		.4byte	.LASF23
ARM GAS  C:\DOCUME~1\z_80\LOCALS~1\Temp\ccF4aAsj.s 			page 18


 953 00ee 01       		.sleb128 1
 954 00ef 07       		.uleb128 0x7
 955 00f0 EE040000 		.4byte	.LASF24
 956 00f4 02       		.sleb128 2
 957 00f5 07       		.uleb128 0x7
 958 00f6 DB050000 		.4byte	.LASF25
 959 00fa 03       		.sleb128 3
 960 00fb 07       		.uleb128 0x7
 961 00fc 2C040000 		.4byte	.LASF26
 962 0100 04       		.sleb128 4
 963 0101 07       		.uleb128 0x7
 964 0102 6F050000 		.4byte	.LASF27
 965 0106 05       		.sleb128 5
 966 0107 07       		.uleb128 0x7
 967 0108 4D050000 		.4byte	.LASF28
 968 010c 06       		.sleb128 6
 969 010d 07       		.uleb128 0x7
 970 010e 0E060000 		.4byte	.LASF29
 971 0112 07       		.sleb128 7
 972 0113 07       		.uleb128 0x7
 973 0114 05010000 		.4byte	.LASF30
 974 0118 08       		.sleb128 8
 975 0119 07       		.uleb128 0x7
 976 011a F7020000 		.4byte	.LASF31
 977 011e 09       		.sleb128 9
 978 011f 07       		.uleb128 0x7
 979 0120 CF030000 		.4byte	.LASF32
 980 0124 0A       		.sleb128 10
 981 0125 07       		.uleb128 0x7
 982 0126 33030000 		.4byte	.LASF33
 983 012a 0B       		.sleb128 11
 984 012b 07       		.uleb128 0x7
 985 012c D8020000 		.4byte	.LASF34
 986 0130 0C       		.sleb128 12
 987 0131 07       		.uleb128 0x7
 988 0132 E4030000 		.4byte	.LASF35
 989 0136 0D       		.sleb128 13
 990 0137 07       		.uleb128 0x7
 991 0138 76030000 		.4byte	.LASF36
 992 013c 0E       		.sleb128 14
 993 013d 07       		.uleb128 0x7
 994 013e 69020000 		.4byte	.LASF37
 995 0142 0F       		.sleb128 15
 996 0143 07       		.uleb128 0x7
 997 0144 D3040000 		.4byte	.LASF38
 998 0148 10       		.sleb128 16
 999 0149 07       		.uleb128 0x7
 1000 014a 98050000 		.4byte	.LASF39
 1001 014e 11       		.sleb128 17
 1002 014f 07       		.uleb128 0x7
 1003 0150 D5010000 		.4byte	.LASF40
 1004 0154 12       		.sleb128 18
 1005 0155 07       		.uleb128 0x7
 1006 0156 89030000 		.4byte	.LASF41
 1007 015a 13       		.sleb128 19
 1008 015b 07       		.uleb128 0x7
 1009 015c F7030000 		.4byte	.LASF42
ARM GAS  C:\DOCUME~1\z_80\LOCALS~1\Temp\ccF4aAsj.s 			page 19


 1010 0160 14       		.sleb128 20
 1011 0161 07       		.uleb128 0x7
 1012 0162 9B000000 		.4byte	.LASF43
 1013 0166 15       		.sleb128 21
 1014 0167 07       		.uleb128 0x7
 1015 0168 EF050000 		.4byte	.LASF44
 1016 016c 16       		.sleb128 22
 1017 016d 07       		.uleb128 0x7
 1018 016e BA010000 		.4byte	.LASF45
 1019 0172 17       		.sleb128 23
 1020 0173 07       		.uleb128 0x7
 1021 0174 AC040000 		.4byte	.LASF46
 1022 0178 18       		.sleb128 24
 1023 0179 07       		.uleb128 0x7
 1024 017a FA040000 		.4byte	.LASF47
 1025 017e 19       		.sleb128 25
 1026 017f 07       		.uleb128 0x7
 1027 0180 1B000000 		.4byte	.LASF48
 1028 0184 1A       		.sleb128 26
 1029 0185 07       		.uleb128 0x7
 1030 0186 C6020000 		.4byte	.LASF49
 1031 018a 1B       		.sleb128 27
 1032 018b 07       		.uleb128 0x7
 1033 018c 43050000 		.4byte	.LASF50
 1034 0190 1C       		.sleb128 28
 1035 0191 07       		.uleb128 0x7
 1036 0192 FD050000 		.4byte	.LASF51
 1037 0196 1D       		.sleb128 29
 1038 0197 07       		.uleb128 0x7
 1039 0198 FB000000 		.4byte	.LASF52
 1040 019c 1E       		.sleb128 30
 1041 019d 07       		.uleb128 0x7
 1042 019e 3D000000 		.4byte	.LASF53
 1043 01a2 1F       		.sleb128 31
 1044 01a3 07       		.uleb128 0x7
 1045 01a4 CE050000 		.4byte	.LASF54
 1046 01a8 20       		.sleb128 32
 1047 01a9 07       		.uleb128 0x7
 1048 01aa 2A050000 		.4byte	.LASF55
 1049 01ae 21       		.sleb128 33
 1050 01af 07       		.uleb128 0x7
 1051 01b0 EE000000 		.4byte	.LASF56
 1052 01b4 22       		.sleb128 34
 1053 01b5 07       		.uleb128 0x7
 1054 01b6 90020000 		.4byte	.LASF57
 1055 01ba 23       		.sleb128 35
 1056 01bb 07       		.uleb128 0x7
 1057 01bc 02030000 		.4byte	.LASF58
 1058 01c0 24       		.sleb128 36
 1059 01c1 07       		.uleb128 0x7
 1060 01c2 54030000 		.4byte	.LASF59
 1061 01c6 25       		.sleb128 37
 1062 01c7 07       		.uleb128 0x7
 1063 01c8 4D040000 		.4byte	.LASF60
 1064 01cc 26       		.sleb128 38
 1065 01cd 07       		.uleb128 0x7
 1066 01ce 37050000 		.4byte	.LASF61
ARM GAS  C:\DOCUME~1\z_80\LOCALS~1\Temp\ccF4aAsj.s 			page 20


 1067 01d2 27       		.sleb128 39
 1068 01d3 07       		.uleb128 0x7
 1069 01d4 81020000 		.4byte	.LASF62
 1070 01d8 28       		.sleb128 40
 1071 01d9 07       		.uleb128 0x7
 1072 01da DF000000 		.4byte	.LASF63
 1073 01de 29       		.sleb128 41
 1074 01df 07       		.uleb128 0x7
 1075 01e0 19030000 		.4byte	.LASF64
 1076 01e4 2A       		.sleb128 42
 1077 01e5 00       		.byte	0x0
 1078 01e6 08       		.uleb128 0x8
 1079 01e7 7B000000 		.4byte	0x7b
 1080 01eb F6010000 		.4byte	0x1f6
 1081 01ef 09       		.uleb128 0x9
 1082 01f0 30000000 		.4byte	0x30
 1083 01f4 03       		.byte	0x3
 1084 01f5 00       		.byte	0x0
 1085 01f6 05       		.uleb128 0x5
 1086 01f7 57000000 		.4byte	0x57
 1087 01fb 05       		.uleb128 0x5
 1088 01fc 69000000 		.4byte	0x69
 1089 0200 0A       		.uleb128 0xa
 1090 0201 28       		.byte	0x28
 1091 0202 03       		.byte	0x3
 1092 0203 4304     		.2byte	0x443
 1093 0205 9F020000 		.4byte	0x29f
 1094 0209 0B       		.uleb128 0xb
 1095 020a 435200   		.ascii	"CR\000"
 1096 020d 03       		.byte	0x3
 1097 020e 4504     		.2byte	0x445
 1098 0210 9B000000 		.4byte	0x9b
 1099 0214 02       		.byte	0x2
 1100 0215 23       		.byte	0x23
 1101 0216 00       		.uleb128 0x0
 1102 0217 0C       		.uleb128 0xc
 1103 0218 AB050000 		.4byte	.LASF65
 1104 021c 03       		.byte	0x3
 1105 021d 4604     		.2byte	0x446
 1106 021f 9B000000 		.4byte	0x9b
 1107 0223 02       		.byte	0x2
 1108 0224 23       		.byte	0x23
 1109 0225 04       		.uleb128 0x4
 1110 0226 0B       		.uleb128 0xb
 1111 0227 43495200 		.ascii	"CIR\000"
 1112 022b 03       		.byte	0x3
 1113 022c 4704     		.2byte	0x447
 1114 022e 9B000000 		.4byte	0x9b
 1115 0232 02       		.byte	0x2
 1116 0233 23       		.byte	0x23
 1117 0234 08       		.uleb128 0x8
 1118 0235 0C       		.uleb128 0xc
 1119 0236 B1010000 		.4byte	.LASF66
 1120 023a 03       		.byte	0x3
 1121 023b 4804     		.2byte	0x448
 1122 023d 9B000000 		.4byte	0x9b
 1123 0241 02       		.byte	0x2
ARM GAS  C:\DOCUME~1\z_80\LOCALS~1\Temp\ccF4aAsj.s 			page 21


 1124 0242 23       		.byte	0x23
 1125 0243 0C       		.uleb128 0xc
 1126 0244 0C       		.uleb128 0xc
 1127 0245 2A030000 		.4byte	.LASF67
 1128 0249 03       		.byte	0x3
 1129 024a 4904     		.2byte	0x449
 1130 024c 9B000000 		.4byte	0x9b
 1131 0250 02       		.byte	0x2
 1132 0251 23       		.byte	0x23
 1133 0252 10       		.uleb128 0x10
 1134 0253 0C       		.uleb128 0xc
 1135 0254 07060000 		.4byte	.LASF68
 1136 0258 03       		.byte	0x3
 1137 0259 4A04     		.2byte	0x44a
 1138 025b 9B000000 		.4byte	0x9b
 1139 025f 02       		.byte	0x2
 1140 0260 23       		.byte	0x23
 1141 0261 14       		.uleb128 0x14
 1142 0262 0C       		.uleb128 0xc
 1143 0263 0C040000 		.4byte	.LASF69
 1144 0267 03       		.byte	0x3
 1145 0268 4B04     		.2byte	0x44b
 1146 026a 9B000000 		.4byte	0x9b
 1147 026e 02       		.byte	0x2
 1148 026f 23       		.byte	0x23
 1149 0270 18       		.uleb128 0x18
 1150 0271 0C       		.uleb128 0xc
 1151 0272 E6040000 		.4byte	.LASF70
 1152 0276 03       		.byte	0x3
 1153 0277 4C04     		.2byte	0x44c
 1154 0279 9B000000 		.4byte	0x9b
 1155 027d 02       		.byte	0x2
 1156 027e 23       		.byte	0x23
 1157 027f 1C       		.uleb128 0x1c
 1158 0280 0C       		.uleb128 0xc
 1159 0281 58050000 		.4byte	.LASF71
 1160 0285 03       		.byte	0x3
 1161 0286 4D04     		.2byte	0x44d
 1162 0288 9B000000 		.4byte	0x9b
 1163 028c 02       		.byte	0x2
 1164 028d 23       		.byte	0x23
 1165 028e 20       		.uleb128 0x20
 1166 028f 0B       		.uleb128 0xb
 1167 0290 43535200 		.ascii	"CSR\000"
 1168 0294 03       		.byte	0x3
 1169 0295 4E04     		.2byte	0x44e
 1170 0297 9B000000 		.4byte	0x9b
 1171 029b 02       		.byte	0x2
 1172 029c 23       		.byte	0x23
 1173 029d 24       		.uleb128 0x24
 1174 029e 00       		.byte	0x0
 1175 029f 0D       		.uleb128 0xd
 1176 02a0 57020000 		.4byte	.LASF72
 1177 02a4 03       		.byte	0x3
 1178 02a5 5904     		.2byte	0x459
 1179 02a7 00020000 		.4byte	0x200
 1180 02ab 0E       		.uleb128 0xe
ARM GAS  C:\DOCUME~1\z_80\LOCALS~1\Temp\ccF4aAsj.s 			page 22


 1181 02ac 54       		.byte	0x54
 1182 02ad 04       		.byte	0x4
 1183 02ae 72       		.byte	0x72
 1184 02af 80040000 		.4byte	0x480
 1185 02b3 0F       		.uleb128 0xf
 1186 02b4 43523100 		.ascii	"CR1\000"
 1187 02b8 04       		.byte	0x4
 1188 02b9 73       		.byte	0x73
 1189 02ba F6010000 		.4byte	0x1f6
 1190 02be 02       		.byte	0x2
 1191 02bf 23       		.byte	0x23
 1192 02c0 00       		.uleb128 0x0
 1193 02c1 10       		.uleb128 0x10
 1194 02c2 2D000000 		.4byte	.LASF73
 1195 02c6 04       		.byte	0x4
 1196 02c7 74       		.byte	0x74
 1197 02c8 57000000 		.4byte	0x57
 1198 02cc 02       		.byte	0x2
 1199 02cd 23       		.byte	0x23
 1200 02ce 02       		.uleb128 0x2
 1201 02cf 0F       		.uleb128 0xf
 1202 02d0 43523200 		.ascii	"CR2\000"
 1203 02d4 04       		.byte	0x4
 1204 02d5 75       		.byte	0x75
 1205 02d6 F6010000 		.4byte	0x1f6
 1206 02da 02       		.byte	0x2
 1207 02db 23       		.byte	0x23
 1208 02dc 04       		.uleb128 0x4
 1209 02dd 10       		.uleb128 0x10
 1210 02de 35000000 		.4byte	.LASF74
 1211 02e2 04       		.byte	0x4
 1212 02e3 76       		.byte	0x76
 1213 02e4 57000000 		.4byte	0x57
 1214 02e8 02       		.byte	0x2
 1215 02e9 23       		.byte	0x23
 1216 02ea 06       		.uleb128 0x6
 1217 02eb 10       		.uleb128 0x10
 1218 02ec 7C020000 		.4byte	.LASF75
 1219 02f0 04       		.byte	0x4
 1220 02f1 77       		.byte	0x77
 1221 02f2 F6010000 		.4byte	0x1f6
 1222 02f6 02       		.byte	0x2
 1223 02f7 23       		.byte	0x23
 1224 02f8 08       		.uleb128 0x8
 1225 02f9 10       		.uleb128 0x10
 1226 02fa 73040000 		.4byte	.LASF76
 1227 02fe 04       		.byte	0x4
 1228 02ff 78       		.byte	0x78
 1229 0300 57000000 		.4byte	0x57
 1230 0304 02       		.byte	0x2
 1231 0305 23       		.byte	0x23
 1232 0306 0A       		.uleb128 0xa
 1233 0307 10       		.uleb128 0x10
 1234 0308 16000000 		.4byte	.LASF77
 1235 030c 04       		.byte	0x4
 1236 030d 79       		.byte	0x79
 1237 030e F6010000 		.4byte	0x1f6
ARM GAS  C:\DOCUME~1\z_80\LOCALS~1\Temp\ccF4aAsj.s 			page 23


 1238 0312 02       		.byte	0x2
 1239 0313 23       		.byte	0x23
 1240 0314 0C       		.uleb128 0xc
 1241 0315 10       		.uleb128 0x10
 1242 0316 4A000000 		.4byte	.LASF78
 1243 031a 04       		.byte	0x4
 1244 031b 7A       		.byte	0x7a
 1245 031c 57000000 		.4byte	0x57
 1246 0320 02       		.byte	0x2
 1247 0321 23       		.byte	0x23
 1248 0322 0E       		.uleb128 0xe
 1249 0323 0F       		.uleb128 0xf
 1250 0324 535200   		.ascii	"SR\000"
 1251 0327 04       		.byte	0x4
 1252 0328 7B       		.byte	0x7b
 1253 0329 F6010000 		.4byte	0x1f6
 1254 032d 02       		.byte	0x2
 1255 032e 23       		.byte	0x23
 1256 032f 10       		.uleb128 0x10
 1257 0330 10       		.uleb128 0x10
 1258 0331 52000000 		.4byte	.LASF79
 1259 0335 04       		.byte	0x4
 1260 0336 7C       		.byte	0x7c
 1261 0337 57000000 		.4byte	0x57
 1262 033b 02       		.byte	0x2
 1263 033c 23       		.byte	0x23
 1264 033d 12       		.uleb128 0x12
 1265 033e 0F       		.uleb128 0xf
 1266 033f 45475200 		.ascii	"EGR\000"
 1267 0343 04       		.byte	0x4
 1268 0344 7D       		.byte	0x7d
 1269 0345 F6010000 		.4byte	0x1f6
 1270 0349 02       		.byte	0x2
 1271 034a 23       		.byte	0x23
 1272 034b 14       		.uleb128 0x14
 1273 034c 10       		.uleb128 0x10
 1274 034d 5A000000 		.4byte	.LASF80
 1275 0351 04       		.byte	0x4
 1276 0352 7E       		.byte	0x7e
 1277 0353 57000000 		.4byte	0x57
 1278 0357 02       		.byte	0x2
 1279 0358 23       		.byte	0x23
 1280 0359 16       		.uleb128 0x16
 1281 035a 10       		.uleb128 0x10
 1282 035b 2E010000 		.4byte	.LASF81
 1283 035f 04       		.byte	0x4
 1284 0360 7F       		.byte	0x7f
 1285 0361 F6010000 		.4byte	0x1f6
 1286 0365 02       		.byte	0x2
 1287 0366 23       		.byte	0x23
 1288 0367 18       		.uleb128 0x18
 1289 0368 10       		.uleb128 0x10
 1290 0369 62000000 		.4byte	.LASF82
 1291 036d 04       		.byte	0x4
 1292 036e 80       		.byte	0x80
 1293 036f 57000000 		.4byte	0x57
 1294 0373 02       		.byte	0x2
ARM GAS  C:\DOCUME~1\z_80\LOCALS~1\Temp\ccF4aAsj.s 			page 24


 1295 0374 23       		.byte	0x23
 1296 0375 1A       		.uleb128 0x1a
 1297 0376 10       		.uleb128 0x10
 1298 0377 34010000 		.4byte	.LASF83
 1299 037b 04       		.byte	0x4
 1300 037c 81       		.byte	0x81
 1301 037d F6010000 		.4byte	0x1f6
 1302 0381 02       		.byte	0x2
 1303 0382 23       		.byte	0x23
 1304 0383 1C       		.uleb128 0x1c
 1305 0384 10       		.uleb128 0x10
 1306 0385 6A000000 		.4byte	.LASF84
 1307 0389 04       		.byte	0x4
 1308 038a 82       		.byte	0x82
 1309 038b 57000000 		.4byte	0x57
 1310 038f 02       		.byte	0x2
 1311 0390 23       		.byte	0x23
 1312 0391 1E       		.uleb128 0x1e
 1313 0392 10       		.uleb128 0x10
 1314 0393 C7010000 		.4byte	.LASF85
 1315 0397 04       		.byte	0x4
 1316 0398 83       		.byte	0x83
 1317 0399 F6010000 		.4byte	0x1f6
 1318 039d 02       		.byte	0x2
 1319 039e 23       		.byte	0x23
 1320 039f 20       		.uleb128 0x20
 1321 03a0 10       		.uleb128 0x10
 1322 03a1 72000000 		.4byte	.LASF86
 1323 03a5 04       		.byte	0x4
 1324 03a6 84       		.byte	0x84
 1325 03a7 57000000 		.4byte	0x57
 1326 03ab 02       		.byte	0x2
 1327 03ac 23       		.byte	0x23
 1328 03ad 22       		.uleb128 0x22
 1329 03ae 0F       		.uleb128 0xf
 1330 03af 434E5400 		.ascii	"CNT\000"
 1331 03b3 04       		.byte	0x4
 1332 03b4 85       		.byte	0x85
 1333 03b5 9B000000 		.4byte	0x9b
 1334 03b9 02       		.byte	0x2
 1335 03ba 23       		.byte	0x23
 1336 03bb 24       		.uleb128 0x24
 1337 03bc 0F       		.uleb128 0xf
 1338 03bd 50534300 		.ascii	"PSC\000"
 1339 03c1 04       		.byte	0x4
 1340 03c2 86       		.byte	0x86
 1341 03c3 F6010000 		.4byte	0x1f6
 1342 03c7 02       		.byte	0x2
 1343 03c8 23       		.byte	0x23
 1344 03c9 28       		.uleb128 0x28
 1345 03ca 10       		.uleb128 0x10
 1346 03cb 7A000000 		.4byte	.LASF87
 1347 03cf 04       		.byte	0x4
 1348 03d0 87       		.byte	0x87
 1349 03d1 57000000 		.4byte	0x57
 1350 03d5 02       		.byte	0x2
 1351 03d6 23       		.byte	0x23
ARM GAS  C:\DOCUME~1\z_80\LOCALS~1\Temp\ccF4aAsj.s 			page 25


 1352 03d7 2A       		.uleb128 0x2a
 1353 03d8 0F       		.uleb128 0xf
 1354 03d9 41525200 		.ascii	"ARR\000"
 1355 03dd 04       		.byte	0x4
 1356 03de 88       		.byte	0x88
 1357 03df 9B000000 		.4byte	0x9b
 1358 03e3 02       		.byte	0x2
 1359 03e4 23       		.byte	0x23
 1360 03e5 2C       		.uleb128 0x2c
 1361 03e6 0F       		.uleb128 0xf
 1362 03e7 52435200 		.ascii	"RCR\000"
 1363 03eb 04       		.byte	0x4
 1364 03ec 89       		.byte	0x89
 1365 03ed F6010000 		.4byte	0x1f6
 1366 03f1 02       		.byte	0x2
 1367 03f2 23       		.byte	0x23
 1368 03f3 30       		.uleb128 0x30
 1369 03f4 10       		.uleb128 0x10
 1370 03f5 75010000 		.4byte	.LASF88
 1371 03f9 04       		.byte	0x4
 1372 03fa 8A       		.byte	0x8a
 1373 03fb 57000000 		.4byte	0x57
 1374 03ff 02       		.byte	0x2
 1375 0400 23       		.byte	0x23
 1376 0401 32       		.uleb128 0x32
 1377 0402 0F       		.uleb128 0xf
 1378 0403 43435200 		.ascii	"CCR\000"
 1379 0407 04       		.byte	0x4
 1380 0408 8B       		.byte	0x8b
 1381 0409 80040000 		.4byte	0x480
 1382 040d 02       		.byte	0x2
 1383 040e 23       		.byte	0x23
 1384 040f 34       		.uleb128 0x34
 1385 0410 10       		.uleb128 0x10
 1386 0411 1D020000 		.4byte	.LASF89
 1387 0415 04       		.byte	0x4
 1388 0416 8C       		.byte	0x8c
 1389 0417 F6010000 		.4byte	0x1f6
 1390 041b 02       		.byte	0x2
 1391 041c 23       		.byte	0x23
 1392 041d 44       		.uleb128 0x44
 1393 041e 10       		.uleb128 0x10
 1394 041f 89000000 		.4byte	.LASF90
 1395 0423 04       		.byte	0x4
 1396 0424 8D       		.byte	0x8d
 1397 0425 57000000 		.4byte	0x57
 1398 0429 02       		.byte	0x2
 1399 042a 23       		.byte	0x23
 1400 042b 46       		.uleb128 0x46
 1401 042c 0F       		.uleb128 0xf
 1402 042d 44435200 		.ascii	"DCR\000"
 1403 0431 04       		.byte	0x4
 1404 0432 8E       		.byte	0x8e
 1405 0433 F6010000 		.4byte	0x1f6
 1406 0437 02       		.byte	0x2
 1407 0438 23       		.byte	0x23
 1408 0439 48       		.uleb128 0x48
ARM GAS  C:\DOCUME~1\z_80\LOCALS~1\Temp\ccF4aAsj.s 			page 26


 1409 043a 10       		.uleb128 0x10
 1410 043b 92000000 		.4byte	.LASF91
 1411 043f 04       		.byte	0x4
 1412 0440 8F       		.byte	0x8f
 1413 0441 57000000 		.4byte	0x57
 1414 0445 02       		.byte	0x2
 1415 0446 23       		.byte	0x23
 1416 0447 4A       		.uleb128 0x4a
 1417 0448 10       		.uleb128 0x10
 1418 0449 BA040000 		.4byte	.LASF92
 1419 044d 04       		.byte	0x4
 1420 044e 90       		.byte	0x90
 1421 044f F6010000 		.4byte	0x1f6
 1422 0453 02       		.byte	0x2
 1423 0454 23       		.byte	0x23
 1424 0455 4C       		.uleb128 0x4c
 1425 0456 10       		.uleb128 0x10
 1426 0457 A9000000 		.4byte	.LASF93
 1427 045b 04       		.byte	0x4
 1428 045c 91       		.byte	0x91
 1429 045d 57000000 		.4byte	0x57
 1430 0461 02       		.byte	0x2
 1431 0462 23       		.byte	0x23
 1432 0463 4E       		.uleb128 0x4e
 1433 0464 0F       		.uleb128 0xf
 1434 0465 4F5200   		.ascii	"OR\000"
 1435 0468 04       		.byte	0x4
 1436 0469 92       		.byte	0x92
 1437 046a F6010000 		.4byte	0x1f6
 1438 046e 02       		.byte	0x2
 1439 046f 23       		.byte	0x23
 1440 0470 50       		.uleb128 0x50
 1441 0471 10       		.uleb128 0x10
 1442 0472 D6000000 		.4byte	.LASF94
 1443 0476 04       		.byte	0x4
 1444 0477 93       		.byte	0x93
 1445 0478 57000000 		.4byte	0x57
 1446 047c 02       		.byte	0x2
 1447 047d 23       		.byte	0x23
 1448 047e 52       		.uleb128 0x52
 1449 047f 00       		.byte	0x0
 1450 0480 05       		.uleb128 0x5
 1451 0481 E6010000 		.4byte	0x1e6
 1452 0485 04       		.uleb128 0x4
 1453 0486 A3020000 		.4byte	.LASF95
 1454 048a 04       		.byte	0x4
 1455 048b 94       		.byte	0x94
 1456 048c AB020000 		.4byte	0x2ab
 1457 0490 11       		.uleb128 0x11
 1458 0491 01       		.byte	0x1
 1459 0492 05       		.byte	0x5
 1460 0493 55       		.byte	0x55
 1461 0494 AB040000 		.4byte	0x4ab
 1462 0498 07       		.uleb128 0x7
 1463 0499 E4050000 		.4byte	.LASF96
 1464 049d 00       		.sleb128 0
 1465 049e 07       		.uleb128 0x7
ARM GAS  C:\DOCUME~1\z_80\LOCALS~1\Temp\ccF4aAsj.s 			page 27


 1466 049f 92040000 		.4byte	.LASF97
 1467 04a3 01       		.sleb128 1
 1468 04a4 07       		.uleb128 0x7
 1469 04a5 24010000 		.4byte	.LASF98
 1470 04a9 02       		.sleb128 2
 1471 04aa 00       		.byte	0x0
 1472 04ab 04       		.uleb128 0x4
 1473 04ac 78050000 		.4byte	.LASF99
 1474 04b0 05       		.byte	0x5
 1475 04b1 59       		.byte	0x59
 1476 04b2 90040000 		.4byte	0x490
 1477 04b6 04       		.uleb128 0x4
 1478 04b7 65050000 		.4byte	.LASF100
 1479 04bb 05       		.byte	0x5
 1480 04bc 5E       		.byte	0x5e
 1481 04bd C1040000 		.4byte	0x4c1
 1482 04c1 12       		.uleb128 0x12
 1483 04c2 65050000 		.4byte	.LASF100
 1484 04c6 14       		.byte	0x14
 1485 04c7 06       		.byte	0x6
 1486 04c8 3901     		.2byte	0x139
 1487 04ca 1A050000 		.4byte	0x51a
 1488 04ce 0C       		.uleb128 0xc
 1489 04cf 7E010000 		.4byte	.LASF101
 1490 04d3 06       		.byte	0x6
 1491 04d4 3D01     		.2byte	0x13d
 1492 04d6 AB040000 		.4byte	0x4ab
 1493 04da 02       		.byte	0x2
 1494 04db 23       		.byte	0x23
 1495 04dc 00       		.uleb128 0x0
 1496 04dd 0C       		.uleb128 0xc
 1497 04de A5040000 		.4byte	.LASF102
 1498 04e2 06       		.byte	0x6
 1499 04e3 4101     		.2byte	0x141
 1500 04e5 02060000 		.4byte	0x602
 1501 04e9 02       		.byte	0x2
 1502 04ea 23       		.byte	0x23
 1503 04eb 04       		.uleb128 0x4
 1504 04ec 0C       		.uleb128 0xc
 1505 04ed 82000000 		.4byte	.LASF103
 1506 04f1 06       		.byte	0x6
 1507 04f2 4501     		.2byte	0x145
 1508 04f4 53050000 		.4byte	0x553
 1509 04f8 02       		.byte	0x2
 1510 04f9 23       		.byte	0x23
 1511 04fa 08       		.uleb128 0x8
 1512 04fb 0C       		.uleb128 0xc
 1513 04fc C8050000 		.4byte	.LASF104
 1514 0500 06       		.byte	0x6
 1515 0501 4D01     		.2byte	0x14d
 1516 0503 7B000000 		.4byte	0x7b
 1517 0507 02       		.byte	0x2
 1518 0508 23       		.byte	0x23
 1519 0509 0C       		.uleb128 0xc
 1520 050a 0B       		.uleb128 0xb
 1521 050b 74696D00 		.ascii	"tim\000"
 1522 050f 06       		.byte	0x6
ARM GAS  C:\DOCUME~1\z_80\LOCALS~1\Temp\ccF4aAsj.s 			page 28


 1523 0510 5101     		.2byte	0x151
 1524 0512 0D060000 		.4byte	0x60d
 1525 0516 02       		.byte	0x2
 1526 0517 23       		.byte	0x23
 1527 0518 10       		.uleb128 0x10
 1528 0519 00       		.byte	0x0
 1529 051a 04       		.uleb128 0x4
 1530 051b 46030000 		.4byte	.LASF105
 1531 051f 05       		.byte	0x5
 1532 0520 65       		.byte	0x65
 1533 0521 25050000 		.4byte	0x525
 1534 0525 13       		.uleb128 0x13
 1535 0526 04       		.byte	0x4
 1536 0527 2B050000 		.4byte	0x52b
 1537 052b 14       		.uleb128 0x14
 1538 052c 01       		.byte	0x1
 1539 052d 37050000 		.4byte	0x537
 1540 0531 15       		.uleb128 0x15
 1541 0532 37050000 		.4byte	0x537
 1542 0536 00       		.byte	0x0
 1543 0537 13       		.uleb128 0x13
 1544 0538 04       		.byte	0x4
 1545 0539 B6040000 		.4byte	0x4b6
 1546 053d 04       		.uleb128 0x4
 1547 053e 6B010000 		.4byte	.LASF106
 1548 0542 06       		.byte	0x6
 1549 0543 F0       		.byte	0xf0
 1550 0544 7B000000 		.4byte	0x7b
 1551 0548 04       		.uleb128 0x4
 1552 0549 00000000 		.4byte	.LASF107
 1553 054d 06       		.byte	0x6
 1554 054e F5       		.byte	0xf5
 1555 054f 3E000000 		.4byte	0x3e
 1556 0553 04       		.uleb128 0x4
 1557 0554 83050000 		.4byte	.LASF108
 1558 0558 06       		.byte	0x6
 1559 0559 FA       		.byte	0xfa
 1560 055a 57000000 		.4byte	0x57
 1561 055e 0E       		.uleb128 0xe
 1562 055f 08       		.byte	0x8
 1563 0560 06       		.byte	0x6
 1564 0561 FF       		.byte	0xff
 1565 0562 85050000 		.4byte	0x585
 1566 0566 0C       		.uleb128 0xc
 1567 0567 A0040000 		.4byte	.LASF109
 1568 056b 06       		.byte	0x6
 1569 056c 0301     		.2byte	0x103
 1570 056e 3D050000 		.4byte	0x53d
 1571 0572 02       		.byte	0x2
 1572 0573 23       		.byte	0x23
 1573 0574 00       		.uleb128 0x0
 1574 0575 0C       		.uleb128 0xc
 1575 0576 9A020000 		.4byte	.LASF110
 1576 057a 06       		.byte	0x6
 1577 057b 0901     		.2byte	0x109
 1578 057d 1A050000 		.4byte	0x51a
 1579 0581 02       		.byte	0x2
ARM GAS  C:\DOCUME~1\z_80\LOCALS~1\Temp\ccF4aAsj.s 			page 29


 1580 0582 23       		.byte	0x23
 1581 0583 04       		.uleb128 0x4
 1582 0584 00       		.byte	0x0
 1583 0585 0D       		.uleb128 0xd
 1584 0586 07050000 		.4byte	.LASF111
 1585 058a 06       		.byte	0x6
 1586 058b 0B01     		.2byte	0x10b
 1587 058d 5E050000 		.4byte	0x55e
 1588 0591 0A       		.uleb128 0xa
 1589 0592 30       		.byte	0x30
 1590 0593 06       		.byte	0x6
 1591 0594 1001     		.2byte	0x110
 1592 0596 E6050000 		.4byte	0x5e6
 1593 059a 0C       		.uleb128 0xc
 1594 059b 1A010000 		.4byte	.LASF112
 1595 059f 06       		.byte	0x6
 1596 05a0 1601     		.2byte	0x116
 1597 05a2 7B000000 		.4byte	0x7b
 1598 05a6 02       		.byte	0x2
 1599 05a7 23       		.byte	0x23
 1600 05a8 00       		.uleb128 0x0
 1601 05a9 0C       		.uleb128 0xc
 1602 05aa 82000000 		.4byte	.LASF103
 1603 05ae 06       		.byte	0x6
 1604 05af 1C01     		.2byte	0x11c
 1605 05b1 53050000 		.4byte	0x553
 1606 05b5 02       		.byte	0x2
 1607 05b6 23       		.byte	0x23
 1608 05b7 04       		.uleb128 0x4
 1609 05b8 0C       		.uleb128 0xc
 1610 05b9 9A020000 		.4byte	.LASF110
 1611 05bd 06       		.byte	0x6
 1612 05be 2201     		.2byte	0x122
 1613 05c0 1A050000 		.4byte	0x51a
 1614 05c4 02       		.byte	0x2
 1615 05c5 23       		.byte	0x23
 1616 05c6 08       		.uleb128 0x8
 1617 05c7 0C       		.uleb128 0xc
 1618 05c8 84010000 		.4byte	.LASF113
 1619 05cc 06       		.byte	0x6
 1620 05cd 2601     		.2byte	0x126
 1621 05cf E6050000 		.4byte	0x5e6
 1622 05d3 02       		.byte	0x2
 1623 05d4 23       		.byte	0x23
 1624 05d5 0C       		.uleb128 0xc
 1625 05d6 0B       		.uleb128 0xb
 1626 05d7 63723200 		.ascii	"cr2\000"
 1627 05db 06       		.byte	0x6
 1628 05dc 2C01     		.2byte	0x12c
 1629 05de 57000000 		.4byte	0x57
 1630 05e2 02       		.byte	0x2
 1631 05e3 23       		.byte	0x23
 1632 05e4 2C       		.uleb128 0x2c
 1633 05e5 00       		.byte	0x0
 1634 05e6 08       		.uleb128 0x8
 1635 05e7 85050000 		.4byte	0x585
 1636 05eb F6050000 		.4byte	0x5f6
ARM GAS  C:\DOCUME~1\z_80\LOCALS~1\Temp\ccF4aAsj.s 			page 30


 1637 05ef 09       		.uleb128 0x9
 1638 05f0 30000000 		.4byte	0x30
 1639 05f4 03       		.byte	0x3
 1640 05f5 00       		.byte	0x0
 1641 05f6 0D       		.uleb128 0xd
 1642 05f7 69040000 		.4byte	.LASF114
 1643 05fb 06       		.byte	0x6
 1644 05fc 3401     		.2byte	0x134
 1645 05fe 91050000 		.4byte	0x591
 1646 0602 13       		.uleb128 0x13
 1647 0603 04       		.byte	0x4
 1648 0604 08060000 		.4byte	0x608
 1649 0608 16       		.uleb128 0x16
 1650 0609 F6050000 		.4byte	0x5f6
 1651 060d 13       		.uleb128 0x13
 1652 060e 04       		.byte	0x4
 1653 060f 85040000 		.4byte	0x485
 1654 0613 17       		.uleb128 0x17
 1655 0614 1C040000 		.4byte	.LASF131
 1656 0618 01       		.byte	0x1
 1657 0619 6F       		.byte	0x6f
 1658 061a 01       		.byte	0x1
 1659 061b 01       		.byte	0x1
 1660 061c 36060000 		.4byte	0x636
 1661 0620 18       		.uleb128 0x18
 1662 0621 B4020000 		.4byte	.LASF119
 1663 0625 01       		.byte	0x1
 1664 0626 6F       		.byte	0x6f
 1665 0627 37050000 		.4byte	0x537
 1666 062b 19       		.uleb128 0x19
 1667 062c 737200   		.ascii	"sr\000"
 1668 062f 01       		.byte	0x1
 1669 0630 70       		.byte	0x70
 1670 0631 57000000 		.4byte	0x57
 1671 0635 00       		.byte	0x0
 1672 0636 1A       		.uleb128 0x1a
 1673 0637 01       		.byte	0x1
 1674 0638 06020000 		.4byte	.LASF115
 1675 063c 01       		.byte	0x1
 1676 063d DD       		.byte	0xdd
 1677 063e 01       		.byte	0x1
 1678 063f 00000000 		.4byte	.LFB56
 1679 0643 74000000 		.4byte	.LFE56
 1680 0647 00000000 		.4byte	.LLST0
 1681 064b 7B060000 		.4byte	0x67b
 1682 064f 1B       		.uleb128 0x1b
 1683 0650 13060000 		.4byte	0x613
 1684 0654 02000000 		.4byte	.LBB4
 1685 0658 00000000 		.4byte	.Ldebug_ranges0+0x0
 1686 065c 01       		.byte	0x1
 1687 065d E1       		.byte	0xe1
 1688 065e 1C       		.uleb128 0x1c
 1689 065f 20060000 		.4byte	0x620
 1690 0663 06       		.byte	0x6
 1691 0664 03       		.byte	0x3
 1692 0665 00000000 		.4byte	PWMD4
 1693 0669 9F       		.byte	0x9f
ARM GAS  C:\DOCUME~1\z_80\LOCALS~1\Temp\ccF4aAsj.s 			page 31


 1694 066a 1D       		.uleb128 0x1d
 1695 066b 20000000 		.4byte	.Ldebug_ranges0+0x20
 1696 066f 1E       		.uleb128 0x1e
 1697 0670 2B060000 		.4byte	0x62b
 1698 0674 20000000 		.4byte	.LLST1
 1699 0678 00       		.byte	0x0
 1700 0679 00       		.byte	0x0
 1701 067a 00       		.byte	0x0
 1702 067b 1F       		.uleb128 0x1f
 1703 067c 01       		.byte	0x1
 1704 067d 0C030000 		.4byte	.LASF132
 1705 0681 01       		.byte	0x1
 1706 0682 2F01     		.2byte	0x12f
 1707 0684 01       		.byte	0x1
 1708 0685 00000000 		.4byte	.LFB57
 1709 0689 18000000 		.4byte	.LFE57
 1710 068d 3C000000 		.4byte	.LLST2
 1711 0691 20       		.uleb128 0x20
 1712 0692 01       		.byte	0x1
 1713 0693 A3010000 		.4byte	.LASF116
 1714 0697 01       		.byte	0x1
 1715 0698 5F01     		.2byte	0x15f
 1716 069a 01       		.byte	0x1
 1717 069b 00000000 		.4byte	.LFB58
 1718 069f 30010000 		.4byte	.LFE58
 1719 06a3 5C000000 		.4byte	.LLST3
 1720 06a7 DC060000 		.4byte	0x6dc
 1721 06ab 21       		.uleb128 0x21
 1722 06ac B4020000 		.4byte	.LASF119
 1723 06b0 01       		.byte	0x1
 1724 06b1 5F01     		.2byte	0x15f
 1725 06b3 37050000 		.4byte	0x537
 1726 06b7 7C000000 		.4byte	.LLST4
 1727 06bb 22       		.uleb128 0x22
 1728 06bc 70736300 		.ascii	"psc\000"
 1729 06c0 01       		.byte	0x1
 1730 06c1 6001     		.2byte	0x160
 1731 06c3 7B000000 		.4byte	0x7b
 1732 06c7 B0000000 		.4byte	.LLST5
 1733 06cb 23       		.uleb128 0x23
 1734 06cc AF020000 		.4byte	.LASF117
 1735 06d0 01       		.byte	0x1
 1736 06d1 6101     		.2byte	0x161
 1737 06d3 57000000 		.4byte	0x57
 1738 06d7 C3000000 		.4byte	.LLST6
 1739 06db 00       		.byte	0x0
 1740 06dc 20       		.uleb128 0x20
 1741 06dd 01       		.byte	0x1
 1742 06de 37040000 		.4byte	.LASF118
 1743 06e2 01       		.byte	0x1
 1744 06e3 1E02     		.2byte	0x21e
 1745 06e5 01       		.byte	0x1
 1746 06e6 00000000 		.4byte	.LFB59
 1747 06ea 34000000 		.4byte	.LFE59
 1748 06ee 71010000 		.4byte	.LLST7
 1749 06f2 07070000 		.4byte	0x707
 1750 06f6 21       		.uleb128 0x21
ARM GAS  C:\DOCUME~1\z_80\LOCALS~1\Temp\ccF4aAsj.s 			page 32


 1751 06f7 B4020000 		.4byte	.LASF119
 1752 06fb 01       		.byte	0x1
 1753 06fc 1E02     		.2byte	0x21e
 1754 06fe 37050000 		.4byte	0x537
 1755 0702 91010000 		.4byte	.LLST8
 1756 0706 00       		.byte	0x0
 1757 0707 20       		.uleb128 0x20
 1758 0708 01       		.byte	0x1
 1759 0709 7B040000 		.4byte	.LASF120
 1760 070d 01       		.byte	0x1
 1761 070e 5E02     		.2byte	0x25e
 1762 0710 01       		.byte	0x1
 1763 0711 00000000 		.4byte	.LFB60
 1764 0715 36000000 		.4byte	.LFE60
 1765 0719 AF010000 		.4byte	.LLST9
 1766 071d 6C070000 		.4byte	0x76c
 1767 0721 21       		.uleb128 0x21
 1768 0722 B4020000 		.4byte	.LASF119
 1769 0726 01       		.byte	0x1
 1770 0727 5E02     		.2byte	0x25e
 1771 0729 37050000 		.4byte	0x537
 1772 072d CF010000 		.4byte	.LLST10
 1773 0731 21       		.uleb128 0x21
 1774 0732 14040000 		.4byte	.LASF121
 1775 0736 01       		.byte	0x1
 1776 0737 5F02     		.2byte	0x25f
 1777 0739 48050000 		.4byte	0x548
 1778 073d E2010000 		.4byte	.LLST11
 1779 0741 21       		.uleb128 0x21
 1780 0742 63020000 		.4byte	.LASF122
 1781 0746 01       		.byte	0x1
 1782 0747 6002     		.2byte	0x260
 1783 0749 53050000 		.4byte	0x553
 1784 074d F5010000 		.4byte	.LLST12
 1785 0751 24       		.uleb128 0x24
 1786 0752 1A000000 		.4byte	.LBB10
 1787 0756 32000000 		.4byte	.LBE10
 1788 075a 23       		.uleb128 0x23
 1789 075b 19060000 		.4byte	.LASF123
 1790 075f 01       		.byte	0x1
 1791 0760 6602     		.2byte	0x266
 1792 0762 7B000000 		.4byte	0x7b
 1793 0766 08020000 		.4byte	.LLST13
 1794 076a 00       		.byte	0x0
 1795 076b 00       		.byte	0x0
 1796 076c 25       		.uleb128 0x25
 1797 076d 01       		.byte	0x1
 1798 076e B0050000 		.4byte	.LASF124
 1799 0772 01       		.byte	0x1
 1800 0773 7C02     		.2byte	0x27c
 1801 0775 01       		.byte	0x1
 1802 0776 00000000 		.4byte	.LFB61
 1803 077a 20000000 		.4byte	.LFE61
 1804 077e 02       		.byte	0x2
 1805 077f 7D       		.byte	0x7d
 1806 0780 00       		.sleb128 0
 1807 0781 A6070000 		.4byte	0x7a6
ARM GAS  C:\DOCUME~1\z_80\LOCALS~1\Temp\ccF4aAsj.s 			page 33


 1808 0785 21       		.uleb128 0x21
 1809 0786 B4020000 		.4byte	.LASF119
 1810 078a 01       		.byte	0x1
 1811 078b 7C02     		.2byte	0x27c
 1812 078d 37050000 		.4byte	0x537
 1813 0791 1B020000 		.4byte	.LLST14
 1814 0795 21       		.uleb128 0x21
 1815 0796 14040000 		.4byte	.LASF121
 1816 079a 01       		.byte	0x1
 1817 079b 7C02     		.2byte	0x27c
 1818 079d 48050000 		.4byte	0x548
 1819 07a1 2E020000 		.4byte	.LLST15
 1820 07a5 00       		.byte	0x0
 1821 07a6 26       		.uleb128 0x26
 1822 07a7 96010000 		.4byte	.LASF125
 1823 07ab 07       		.byte	0x7
 1824 07ac 9404     		.2byte	0x494
 1825 07ae FB010000 		.4byte	0x1fb
 1826 07b2 01       		.byte	0x1
 1827 07b3 01       		.byte	0x1
 1828 07b4 26       		.uleb128 0x26
 1829 07b5 00020000 		.4byte	.LASF126
 1830 07b9 06       		.byte	0x6
 1831 07ba 7C01     		.2byte	0x17c
 1832 07bc B6040000 		.4byte	0x4b6
 1833 07c0 01       		.byte	0x1
 1834 07c1 01       		.byte	0x1
 1835 07c2 26       		.uleb128 0x26
 1836 07c3 96010000 		.4byte	.LASF125
 1837 07c7 07       		.byte	0x7
 1838 07c8 9404     		.2byte	0x494
 1839 07ca FB010000 		.4byte	0x1fb
 1840 07ce 01       		.byte	0x1
 1841 07cf 01       		.byte	0x1
 1842 07d0 27       		.uleb128 0x27
 1843 07d1 00020000 		.4byte	.LASF126
 1844 07d5 01       		.byte	0x1
 1845 07d6 4A       		.byte	0x4a
 1846 07d7 B6040000 		.4byte	0x4b6
 1847 07db 01       		.byte	0x1
 1848 07dc 05       		.byte	0x5
 1849 07dd 03       		.byte	0x3
 1850 07de 00000000 		.4byte	PWMD4
 1851 07e2 00       		.byte	0x0
 1852              		.section	.debug_abbrev
 1853 0000 01       		.uleb128 0x1
 1854 0001 11       		.uleb128 0x11
 1855 0002 01       		.byte	0x1
 1856 0003 25       		.uleb128 0x25
 1857 0004 0E       		.uleb128 0xe
 1858 0005 13       		.uleb128 0x13
 1859 0006 0B       		.uleb128 0xb
 1860 0007 03       		.uleb128 0x3
 1861 0008 0E       		.uleb128 0xe
 1862 0009 1B       		.uleb128 0x1b
 1863 000a 0E       		.uleb128 0xe
 1864 000b 11       		.uleb128 0x11
ARM GAS  C:\DOCUME~1\z_80\LOCALS~1\Temp\ccF4aAsj.s 			page 34


 1865 000c 01       		.uleb128 0x1
 1866 000d 52       		.uleb128 0x52
 1867 000e 01       		.uleb128 0x1
 1868 000f 55       		.uleb128 0x55
 1869 0010 06       		.uleb128 0x6
 1870 0011 10       		.uleb128 0x10
 1871 0012 06       		.uleb128 0x6
 1872 0013 00       		.byte	0x0
 1873 0014 00       		.byte	0x0
 1874 0015 02       		.uleb128 0x2
 1875 0016 24       		.uleb128 0x24
 1876 0017 00       		.byte	0x0
 1877 0018 0B       		.uleb128 0xb
 1878 0019 0B       		.uleb128 0xb
 1879 001a 3E       		.uleb128 0x3e
 1880 001b 0B       		.uleb128 0xb
 1881 001c 03       		.uleb128 0x3
 1882 001d 08       		.uleb128 0x8
 1883 001e 00       		.byte	0x0
 1884 001f 00       		.byte	0x0
 1885 0020 03       		.uleb128 0x3
 1886 0021 24       		.uleb128 0x24
 1887 0022 00       		.byte	0x0
 1888 0023 0B       		.uleb128 0xb
 1889 0024 0B       		.uleb128 0xb
 1890 0025 3E       		.uleb128 0x3e
 1891 0026 0B       		.uleb128 0xb
 1892 0027 03       		.uleb128 0x3
 1893 0028 0E       		.uleb128 0xe
 1894 0029 00       		.byte	0x0
 1895 002a 00       		.byte	0x0
 1896 002b 04       		.uleb128 0x4
 1897 002c 16       		.uleb128 0x16
 1898 002d 00       		.byte	0x0
 1899 002e 03       		.uleb128 0x3
 1900 002f 0E       		.uleb128 0xe
 1901 0030 3A       		.uleb128 0x3a
 1902 0031 0B       		.uleb128 0xb
 1903 0032 3B       		.uleb128 0x3b
 1904 0033 0B       		.uleb128 0xb
 1905 0034 49       		.uleb128 0x49
 1906 0035 13       		.uleb128 0x13
 1907 0036 00       		.byte	0x0
 1908 0037 00       		.byte	0x0
 1909 0038 05       		.uleb128 0x5
 1910 0039 35       		.uleb128 0x35
 1911 003a 00       		.byte	0x0
 1912 003b 49       		.uleb128 0x49
 1913 003c 13       		.uleb128 0x13
 1914 003d 00       		.byte	0x0
 1915 003e 00       		.byte	0x0
 1916 003f 06       		.uleb128 0x6
 1917 0040 04       		.uleb128 0x4
 1918 0041 01       		.byte	0x1
 1919 0042 03       		.uleb128 0x3
 1920 0043 0E       		.uleb128 0xe
 1921 0044 0B       		.uleb128 0xb
ARM GAS  C:\DOCUME~1\z_80\LOCALS~1\Temp\ccF4aAsj.s 			page 35


 1922 0045 0B       		.uleb128 0xb
 1923 0046 3A       		.uleb128 0x3a
 1924 0047 0B       		.uleb128 0xb
 1925 0048 3B       		.uleb128 0x3b
 1926 0049 0B       		.uleb128 0xb
 1927 004a 01       		.uleb128 0x1
 1928 004b 13       		.uleb128 0x13
 1929 004c 00       		.byte	0x0
 1930 004d 00       		.byte	0x0
 1931 004e 07       		.uleb128 0x7
 1932 004f 28       		.uleb128 0x28
 1933 0050 00       		.byte	0x0
 1934 0051 03       		.uleb128 0x3
 1935 0052 0E       		.uleb128 0xe
 1936 0053 1C       		.uleb128 0x1c
 1937 0054 0D       		.uleb128 0xd
 1938 0055 00       		.byte	0x0
 1939 0056 00       		.byte	0x0
 1940 0057 08       		.uleb128 0x8
 1941 0058 01       		.uleb128 0x1
 1942 0059 01       		.byte	0x1
 1943 005a 49       		.uleb128 0x49
 1944 005b 13       		.uleb128 0x13
 1945 005c 01       		.uleb128 0x1
 1946 005d 13       		.uleb128 0x13
 1947 005e 00       		.byte	0x0
 1948 005f 00       		.byte	0x0
 1949 0060 09       		.uleb128 0x9
 1950 0061 21       		.uleb128 0x21
 1951 0062 00       		.byte	0x0
 1952 0063 49       		.uleb128 0x49
 1953 0064 13       		.uleb128 0x13
 1954 0065 2F       		.uleb128 0x2f
 1955 0066 0B       		.uleb128 0xb
 1956 0067 00       		.byte	0x0
 1957 0068 00       		.byte	0x0
 1958 0069 0A       		.uleb128 0xa
 1959 006a 13       		.uleb128 0x13
 1960 006b 01       		.byte	0x1
 1961 006c 0B       		.uleb128 0xb
 1962 006d 0B       		.uleb128 0xb
 1963 006e 3A       		.uleb128 0x3a
 1964 006f 0B       		.uleb128 0xb
 1965 0070 3B       		.uleb128 0x3b
 1966 0071 05       		.uleb128 0x5
 1967 0072 01       		.uleb128 0x1
 1968 0073 13       		.uleb128 0x13
 1969 0074 00       		.byte	0x0
 1970 0075 00       		.byte	0x0
 1971 0076 0B       		.uleb128 0xb
 1972 0077 0D       		.uleb128 0xd
 1973 0078 00       		.byte	0x0
 1974 0079 03       		.uleb128 0x3
 1975 007a 08       		.uleb128 0x8
 1976 007b 3A       		.uleb128 0x3a
 1977 007c 0B       		.uleb128 0xb
 1978 007d 3B       		.uleb128 0x3b
ARM GAS  C:\DOCUME~1\z_80\LOCALS~1\Temp\ccF4aAsj.s 			page 36


 1979 007e 05       		.uleb128 0x5
 1980 007f 49       		.uleb128 0x49
 1981 0080 13       		.uleb128 0x13
 1982 0081 38       		.uleb128 0x38
 1983 0082 0A       		.uleb128 0xa
 1984 0083 00       		.byte	0x0
 1985 0084 00       		.byte	0x0
 1986 0085 0C       		.uleb128 0xc
 1987 0086 0D       		.uleb128 0xd
 1988 0087 00       		.byte	0x0
 1989 0088 03       		.uleb128 0x3
 1990 0089 0E       		.uleb128 0xe
 1991 008a 3A       		.uleb128 0x3a
 1992 008b 0B       		.uleb128 0xb
 1993 008c 3B       		.uleb128 0x3b
 1994 008d 05       		.uleb128 0x5
 1995 008e 49       		.uleb128 0x49
 1996 008f 13       		.uleb128 0x13
 1997 0090 38       		.uleb128 0x38
 1998 0091 0A       		.uleb128 0xa
 1999 0092 00       		.byte	0x0
 2000 0093 00       		.byte	0x0
 2001 0094 0D       		.uleb128 0xd
 2002 0095 16       		.uleb128 0x16
 2003 0096 00       		.byte	0x0
 2004 0097 03       		.uleb128 0x3
 2005 0098 0E       		.uleb128 0xe
 2006 0099 3A       		.uleb128 0x3a
 2007 009a 0B       		.uleb128 0xb
 2008 009b 3B       		.uleb128 0x3b
 2009 009c 05       		.uleb128 0x5
 2010 009d 49       		.uleb128 0x49
 2011 009e 13       		.uleb128 0x13
 2012 009f 00       		.byte	0x0
 2013 00a0 00       		.byte	0x0
 2014 00a1 0E       		.uleb128 0xe
 2015 00a2 13       		.uleb128 0x13
 2016 00a3 01       		.byte	0x1
 2017 00a4 0B       		.uleb128 0xb
 2018 00a5 0B       		.uleb128 0xb
 2019 00a6 3A       		.uleb128 0x3a
 2020 00a7 0B       		.uleb128 0xb
 2021 00a8 3B       		.uleb128 0x3b
 2022 00a9 0B       		.uleb128 0xb
 2023 00aa 01       		.uleb128 0x1
 2024 00ab 13       		.uleb128 0x13
 2025 00ac 00       		.byte	0x0
 2026 00ad 00       		.byte	0x0
 2027 00ae 0F       		.uleb128 0xf
 2028 00af 0D       		.uleb128 0xd
 2029 00b0 00       		.byte	0x0
 2030 00b1 03       		.uleb128 0x3
 2031 00b2 08       		.uleb128 0x8
 2032 00b3 3A       		.uleb128 0x3a
 2033 00b4 0B       		.uleb128 0xb
 2034 00b5 3B       		.uleb128 0x3b
 2035 00b6 0B       		.uleb128 0xb
ARM GAS  C:\DOCUME~1\z_80\LOCALS~1\Temp\ccF4aAsj.s 			page 37


 2036 00b7 49       		.uleb128 0x49
 2037 00b8 13       		.uleb128 0x13
 2038 00b9 38       		.uleb128 0x38
 2039 00ba 0A       		.uleb128 0xa
 2040 00bb 00       		.byte	0x0
 2041 00bc 00       		.byte	0x0
 2042 00bd 10       		.uleb128 0x10
 2043 00be 0D       		.uleb128 0xd
 2044 00bf 00       		.byte	0x0
 2045 00c0 03       		.uleb128 0x3
 2046 00c1 0E       		.uleb128 0xe
 2047 00c2 3A       		.uleb128 0x3a
 2048 00c3 0B       		.uleb128 0xb
 2049 00c4 3B       		.uleb128 0x3b
 2050 00c5 0B       		.uleb128 0xb
 2051 00c6 49       		.uleb128 0x49
 2052 00c7 13       		.uleb128 0x13
 2053 00c8 38       		.uleb128 0x38
 2054 00c9 0A       		.uleb128 0xa
 2055 00ca 00       		.byte	0x0
 2056 00cb 00       		.byte	0x0
 2057 00cc 11       		.uleb128 0x11
 2058 00cd 04       		.uleb128 0x4
 2059 00ce 01       		.byte	0x1
 2060 00cf 0B       		.uleb128 0xb
 2061 00d0 0B       		.uleb128 0xb
 2062 00d1 3A       		.uleb128 0x3a
 2063 00d2 0B       		.uleb128 0xb
 2064 00d3 3B       		.uleb128 0x3b
 2065 00d4 0B       		.uleb128 0xb
 2066 00d5 01       		.uleb128 0x1
 2067 00d6 13       		.uleb128 0x13
 2068 00d7 00       		.byte	0x0
 2069 00d8 00       		.byte	0x0
 2070 00d9 12       		.uleb128 0x12
 2071 00da 13       		.uleb128 0x13
 2072 00db 01       		.byte	0x1
 2073 00dc 03       		.uleb128 0x3
 2074 00dd 0E       		.uleb128 0xe
 2075 00de 0B       		.uleb128 0xb
 2076 00df 0B       		.uleb128 0xb
 2077 00e0 3A       		.uleb128 0x3a
 2078 00e1 0B       		.uleb128 0xb
 2079 00e2 3B       		.uleb128 0x3b
 2080 00e3 05       		.uleb128 0x5
 2081 00e4 01       		.uleb128 0x1
 2082 00e5 13       		.uleb128 0x13
 2083 00e6 00       		.byte	0x0
 2084 00e7 00       		.byte	0x0
 2085 00e8 13       		.uleb128 0x13
 2086 00e9 0F       		.uleb128 0xf
 2087 00ea 00       		.byte	0x0
 2088 00eb 0B       		.uleb128 0xb
 2089 00ec 0B       		.uleb128 0xb
 2090 00ed 49       		.uleb128 0x49
 2091 00ee 13       		.uleb128 0x13
 2092 00ef 00       		.byte	0x0
ARM GAS  C:\DOCUME~1\z_80\LOCALS~1\Temp\ccF4aAsj.s 			page 38


 2093 00f0 00       		.byte	0x0
 2094 00f1 14       		.uleb128 0x14
 2095 00f2 15       		.uleb128 0x15
 2096 00f3 01       		.byte	0x1
 2097 00f4 27       		.uleb128 0x27
 2098 00f5 0C       		.uleb128 0xc
 2099 00f6 01       		.uleb128 0x1
 2100 00f7 13       		.uleb128 0x13
 2101 00f8 00       		.byte	0x0
 2102 00f9 00       		.byte	0x0
 2103 00fa 15       		.uleb128 0x15
 2104 00fb 05       		.uleb128 0x5
 2105 00fc 00       		.byte	0x0
 2106 00fd 49       		.uleb128 0x49
 2107 00fe 13       		.uleb128 0x13
 2108 00ff 00       		.byte	0x0
 2109 0100 00       		.byte	0x0
 2110 0101 16       		.uleb128 0x16
 2111 0102 26       		.uleb128 0x26
 2112 0103 00       		.byte	0x0
 2113 0104 49       		.uleb128 0x49
 2114 0105 13       		.uleb128 0x13
 2115 0106 00       		.byte	0x0
 2116 0107 00       		.byte	0x0
 2117 0108 17       		.uleb128 0x17
 2118 0109 2E       		.uleb128 0x2e
 2119 010a 01       		.byte	0x1
 2120 010b 03       		.uleb128 0x3
 2121 010c 0E       		.uleb128 0xe
 2122 010d 3A       		.uleb128 0x3a
 2123 010e 0B       		.uleb128 0xb
 2124 010f 3B       		.uleb128 0x3b
 2125 0110 0B       		.uleb128 0xb
 2126 0111 27       		.uleb128 0x27
 2127 0112 0C       		.uleb128 0xc
 2128 0113 20       		.uleb128 0x20
 2129 0114 0B       		.uleb128 0xb
 2130 0115 01       		.uleb128 0x1
 2131 0116 13       		.uleb128 0x13
 2132 0117 00       		.byte	0x0
 2133 0118 00       		.byte	0x0
 2134 0119 18       		.uleb128 0x18
 2135 011a 05       		.uleb128 0x5
 2136 011b 00       		.byte	0x0
 2137 011c 03       		.uleb128 0x3
 2138 011d 0E       		.uleb128 0xe
 2139 011e 3A       		.uleb128 0x3a
 2140 011f 0B       		.uleb128 0xb
 2141 0120 3B       		.uleb128 0x3b
 2142 0121 0B       		.uleb128 0xb
 2143 0122 49       		.uleb128 0x49
 2144 0123 13       		.uleb128 0x13
 2145 0124 00       		.byte	0x0
 2146 0125 00       		.byte	0x0
 2147 0126 19       		.uleb128 0x19
 2148 0127 34       		.uleb128 0x34
 2149 0128 00       		.byte	0x0
ARM GAS  C:\DOCUME~1\z_80\LOCALS~1\Temp\ccF4aAsj.s 			page 39


 2150 0129 03       		.uleb128 0x3
 2151 012a 08       		.uleb128 0x8
 2152 012b 3A       		.uleb128 0x3a
 2153 012c 0B       		.uleb128 0xb
 2154 012d 3B       		.uleb128 0x3b
 2155 012e 0B       		.uleb128 0xb
 2156 012f 49       		.uleb128 0x49
 2157 0130 13       		.uleb128 0x13
 2158 0131 00       		.byte	0x0
 2159 0132 00       		.byte	0x0
 2160 0133 1A       		.uleb128 0x1a
 2161 0134 2E       		.uleb128 0x2e
 2162 0135 01       		.byte	0x1
 2163 0136 3F       		.uleb128 0x3f
 2164 0137 0C       		.uleb128 0xc
 2165 0138 03       		.uleb128 0x3
 2166 0139 0E       		.uleb128 0xe
 2167 013a 3A       		.uleb128 0x3a
 2168 013b 0B       		.uleb128 0xb
 2169 013c 3B       		.uleb128 0x3b
 2170 013d 0B       		.uleb128 0xb
 2171 013e 27       		.uleb128 0x27
 2172 013f 0C       		.uleb128 0xc
 2173 0140 11       		.uleb128 0x11
 2174 0141 01       		.uleb128 0x1
 2175 0142 12       		.uleb128 0x12
 2176 0143 01       		.uleb128 0x1
 2177 0144 40       		.uleb128 0x40
 2178 0145 06       		.uleb128 0x6
 2179 0146 01       		.uleb128 0x1
 2180 0147 13       		.uleb128 0x13
 2181 0148 00       		.byte	0x0
 2182 0149 00       		.byte	0x0
 2183 014a 1B       		.uleb128 0x1b
 2184 014b 1D       		.uleb128 0x1d
 2185 014c 01       		.byte	0x1
 2186 014d 31       		.uleb128 0x31
 2187 014e 13       		.uleb128 0x13
 2188 014f 52       		.uleb128 0x52
 2189 0150 01       		.uleb128 0x1
 2190 0151 55       		.uleb128 0x55
 2191 0152 06       		.uleb128 0x6
 2192 0153 58       		.uleb128 0x58
 2193 0154 0B       		.uleb128 0xb
 2194 0155 59       		.uleb128 0x59
 2195 0156 0B       		.uleb128 0xb
 2196 0157 00       		.byte	0x0
 2197 0158 00       		.byte	0x0
 2198 0159 1C       		.uleb128 0x1c
 2199 015a 05       		.uleb128 0x5
 2200 015b 00       		.byte	0x0
 2201 015c 31       		.uleb128 0x31
 2202 015d 13       		.uleb128 0x13
 2203 015e 02       		.uleb128 0x2
 2204 015f 0A       		.uleb128 0xa
 2205 0160 00       		.byte	0x0
 2206 0161 00       		.byte	0x0
ARM GAS  C:\DOCUME~1\z_80\LOCALS~1\Temp\ccF4aAsj.s 			page 40


 2207 0162 1D       		.uleb128 0x1d
 2208 0163 0B       		.uleb128 0xb
 2209 0164 01       		.byte	0x1
 2210 0165 55       		.uleb128 0x55
 2211 0166 06       		.uleb128 0x6
 2212 0167 00       		.byte	0x0
 2213 0168 00       		.byte	0x0
 2214 0169 1E       		.uleb128 0x1e
 2215 016a 34       		.uleb128 0x34
 2216 016b 00       		.byte	0x0
 2217 016c 31       		.uleb128 0x31
 2218 016d 13       		.uleb128 0x13
 2219 016e 02       		.uleb128 0x2
 2220 016f 06       		.uleb128 0x6
 2221 0170 00       		.byte	0x0
 2222 0171 00       		.byte	0x0
 2223 0172 1F       		.uleb128 0x1f
 2224 0173 2E       		.uleb128 0x2e
 2225 0174 00       		.byte	0x0
 2226 0175 3F       		.uleb128 0x3f
 2227 0176 0C       		.uleb128 0xc
 2228 0177 03       		.uleb128 0x3
 2229 0178 0E       		.uleb128 0xe
 2230 0179 3A       		.uleb128 0x3a
 2231 017a 0B       		.uleb128 0xb
 2232 017b 3B       		.uleb128 0x3b
 2233 017c 05       		.uleb128 0x5
 2234 017d 27       		.uleb128 0x27
 2235 017e 0C       		.uleb128 0xc
 2236 017f 11       		.uleb128 0x11
 2237 0180 01       		.uleb128 0x1
 2238 0181 12       		.uleb128 0x12
 2239 0182 01       		.uleb128 0x1
 2240 0183 40       		.uleb128 0x40
 2241 0184 06       		.uleb128 0x6
 2242 0185 00       		.byte	0x0
 2243 0186 00       		.byte	0x0
 2244 0187 20       		.uleb128 0x20
 2245 0188 2E       		.uleb128 0x2e
 2246 0189 01       		.byte	0x1
 2247 018a 3F       		.uleb128 0x3f
 2248 018b 0C       		.uleb128 0xc
 2249 018c 03       		.uleb128 0x3
 2250 018d 0E       		.uleb128 0xe
 2251 018e 3A       		.uleb128 0x3a
 2252 018f 0B       		.uleb128 0xb
 2253 0190 3B       		.uleb128 0x3b
 2254 0191 05       		.uleb128 0x5
 2255 0192 27       		.uleb128 0x27
 2256 0193 0C       		.uleb128 0xc
 2257 0194 11       		.uleb128 0x11
 2258 0195 01       		.uleb128 0x1
 2259 0196 12       		.uleb128 0x12
 2260 0197 01       		.uleb128 0x1
 2261 0198 40       		.uleb128 0x40
 2262 0199 06       		.uleb128 0x6
 2263 019a 01       		.uleb128 0x1
ARM GAS  C:\DOCUME~1\z_80\LOCALS~1\Temp\ccF4aAsj.s 			page 41


 2264 019b 13       		.uleb128 0x13
 2265 019c 00       		.byte	0x0
 2266 019d 00       		.byte	0x0
 2267 019e 21       		.uleb128 0x21
 2268 019f 05       		.uleb128 0x5
 2269 01a0 00       		.byte	0x0
 2270 01a1 03       		.uleb128 0x3
 2271 01a2 0E       		.uleb128 0xe
 2272 01a3 3A       		.uleb128 0x3a
 2273 01a4 0B       		.uleb128 0xb
 2274 01a5 3B       		.uleb128 0x3b
 2275 01a6 05       		.uleb128 0x5
 2276 01a7 49       		.uleb128 0x49
 2277 01a8 13       		.uleb128 0x13
 2278 01a9 02       		.uleb128 0x2
 2279 01aa 06       		.uleb128 0x6
 2280 01ab 00       		.byte	0x0
 2281 01ac 00       		.byte	0x0
 2282 01ad 22       		.uleb128 0x22
 2283 01ae 34       		.uleb128 0x34
 2284 01af 00       		.byte	0x0
 2285 01b0 03       		.uleb128 0x3
 2286 01b1 08       		.uleb128 0x8
 2287 01b2 3A       		.uleb128 0x3a
 2288 01b3 0B       		.uleb128 0xb
 2289 01b4 3B       		.uleb128 0x3b
 2290 01b5 05       		.uleb128 0x5
 2291 01b6 49       		.uleb128 0x49
 2292 01b7 13       		.uleb128 0x13
 2293 01b8 02       		.uleb128 0x2
 2294 01b9 06       		.uleb128 0x6
 2295 01ba 00       		.byte	0x0
 2296 01bb 00       		.byte	0x0
 2297 01bc 23       		.uleb128 0x23
 2298 01bd 34       		.uleb128 0x34
 2299 01be 00       		.byte	0x0
 2300 01bf 03       		.uleb128 0x3
 2301 01c0 0E       		.uleb128 0xe
 2302 01c1 3A       		.uleb128 0x3a
 2303 01c2 0B       		.uleb128 0xb
 2304 01c3 3B       		.uleb128 0x3b
 2305 01c4 05       		.uleb128 0x5
 2306 01c5 49       		.uleb128 0x49
 2307 01c6 13       		.uleb128 0x13
 2308 01c7 02       		.uleb128 0x2
 2309 01c8 06       		.uleb128 0x6
 2310 01c9 00       		.byte	0x0
 2311 01ca 00       		.byte	0x0
 2312 01cb 24       		.uleb128 0x24
 2313 01cc 0B       		.uleb128 0xb
 2314 01cd 01       		.byte	0x1
 2315 01ce 11       		.uleb128 0x11
 2316 01cf 01       		.uleb128 0x1
 2317 01d0 12       		.uleb128 0x12
 2318 01d1 01       		.uleb128 0x1
 2319 01d2 00       		.byte	0x0
 2320 01d3 00       		.byte	0x0
ARM GAS  C:\DOCUME~1\z_80\LOCALS~1\Temp\ccF4aAsj.s 			page 42


 2321 01d4 25       		.uleb128 0x25
 2322 01d5 2E       		.uleb128 0x2e
 2323 01d6 01       		.byte	0x1
 2324 01d7 3F       		.uleb128 0x3f
 2325 01d8 0C       		.uleb128 0xc
 2326 01d9 03       		.uleb128 0x3
 2327 01da 0E       		.uleb128 0xe
 2328 01db 3A       		.uleb128 0x3a
 2329 01dc 0B       		.uleb128 0xb
 2330 01dd 3B       		.uleb128 0x3b
 2331 01de 05       		.uleb128 0x5
 2332 01df 27       		.uleb128 0x27
 2333 01e0 0C       		.uleb128 0xc
 2334 01e1 11       		.uleb128 0x11
 2335 01e2 01       		.uleb128 0x1
 2336 01e3 12       		.uleb128 0x12
 2337 01e4 01       		.uleb128 0x1
 2338 01e5 40       		.uleb128 0x40
 2339 01e6 0A       		.uleb128 0xa
 2340 01e7 01       		.uleb128 0x1
 2341 01e8 13       		.uleb128 0x13
 2342 01e9 00       		.byte	0x0
 2343 01ea 00       		.byte	0x0
 2344 01eb 26       		.uleb128 0x26
 2345 01ec 34       		.uleb128 0x34
 2346 01ed 00       		.byte	0x0
 2347 01ee 03       		.uleb128 0x3
 2348 01ef 0E       		.uleb128 0xe
 2349 01f0 3A       		.uleb128 0x3a
 2350 01f1 0B       		.uleb128 0xb
 2351 01f2 3B       		.uleb128 0x3b
 2352 01f3 05       		.uleb128 0x5
 2353 01f4 49       		.uleb128 0x49
 2354 01f5 13       		.uleb128 0x13
 2355 01f6 3F       		.uleb128 0x3f
 2356 01f7 0C       		.uleb128 0xc
 2357 01f8 3C       		.uleb128 0x3c
 2358 01f9 0C       		.uleb128 0xc
 2359 01fa 00       		.byte	0x0
 2360 01fb 00       		.byte	0x0
 2361 01fc 27       		.uleb128 0x27
 2362 01fd 34       		.uleb128 0x34
 2363 01fe 00       		.byte	0x0
 2364 01ff 03       		.uleb128 0x3
 2365 0200 0E       		.uleb128 0xe
 2366 0201 3A       		.uleb128 0x3a
 2367 0202 0B       		.uleb128 0xb
 2368 0203 3B       		.uleb128 0x3b
 2369 0204 0B       		.uleb128 0xb
 2370 0205 49       		.uleb128 0x49
 2371 0206 13       		.uleb128 0x13
 2372 0207 3F       		.uleb128 0x3f
 2373 0208 0C       		.uleb128 0xc
 2374 0209 02       		.uleb128 0x2
 2375 020a 0A       		.uleb128 0xa
 2376 020b 00       		.byte	0x0
 2377 020c 00       		.byte	0x0
ARM GAS  C:\DOCUME~1\z_80\LOCALS~1\Temp\ccF4aAsj.s 			page 43


 2378 020d 00       		.byte	0x0
 2379              		.section	.debug_pubnames,"",%progbits
 2380 0000 90000000 		.4byte	0x90
 2381 0004 0200     		.2byte	0x2
 2382 0006 00000000 		.4byte	.Ldebug_info0
 2383 000a E3070000 		.4byte	0x7e3
 2384 000e 36060000 		.4byte	0x636
 2385 0012 56656374 		.ascii	"VectorB8\000"
 2385      6F724238 
 2385      00
 2386 001b 7B060000 		.4byte	0x67b
 2387 001f 70776D5F 		.ascii	"pwm_lld_init\000"
 2387      6C6C645F 
 2387      696E6974 
 2387      00
 2388 002c 91060000 		.4byte	0x691
 2389 0030 70776D5F 		.ascii	"pwm_lld_start\000"
 2389      6C6C645F 
 2389      73746172 
 2389      7400
 2390 003e DC060000 		.4byte	0x6dc
 2391 0042 70776D5F 		.ascii	"pwm_lld_stop\000"
 2391      6C6C645F 
 2391      73746F70 
 2391      00
 2392 004f 07070000 		.4byte	0x707
 2393 0053 70776D5F 		.ascii	"pwm_lld_enable_channel\000"
 2393      6C6C645F 
 2393      656E6162 
 2393      6C655F63 
 2393      68616E6E 
 2394 006a 6C070000 		.4byte	0x76c
 2395 006e 70776D5F 		.ascii	"pwm_lld_disable_channel\000"
 2395      6C6C645F 
 2395      64697361 
 2395      626C655F 
 2395      6368616E 
 2396 0086 D0070000 		.4byte	0x7d0
 2397 008a 50574D44 		.ascii	"PWMD4\000"
 2397      3400
 2398 0090 00000000 		.4byte	0x0
 2399              		.section	.debug_pubtypes,"",%progbits
 2400 0000 F5000000 		.4byte	0xf5
 2401 0004 0200     		.2byte	0x2
 2402 0006 00000000 		.4byte	.Ldebug_info0
 2403 000a E3070000 		.4byte	0x7e3
 2404 000e 3E000000 		.4byte	0x3e
 2405 0012 75696E74 		.ascii	"uint8_t\000"
 2405      385F7400 
 2406 001a 57000000 		.4byte	0x57
 2407 001e 75696E74 		.ascii	"uint16_t\000"
 2407      31365F74 
 2407      00
 2408 0027 69000000 		.4byte	0x69
 2409 002b 696E7433 		.ascii	"int32_t\000"
 2409      325F7400 
 2410 0033 7B000000 		.4byte	0x7b
ARM GAS  C:\DOCUME~1\z_80\LOCALS~1\Temp\ccF4aAsj.s 			page 44


 2411 0037 75696E74 		.ascii	"uint32_t\000"
 2411      33325F74 
 2411      00
 2412 0040 A7000000 		.4byte	0xa7
 2413 0044 4952516E 		.ascii	"IRQn\000"
 2413      00
 2414 0049 9F020000 		.4byte	0x29f
 2415 004d 5243435F 		.ascii	"RCC_TypeDef\000"
 2415      54797065 
 2415      44656600 
 2416 0059 85040000 		.4byte	0x485
 2417 005d 73746D33 		.ascii	"stm32_tim_t\000"
 2417      325F7469 
 2417      6D5F7400 
 2418 0069 AB040000 		.4byte	0x4ab
 2419 006d 70776D73 		.ascii	"pwmstate_t\000"
 2419      74617465 
 2419      5F7400
 2420 0078 B6040000 		.4byte	0x4b6
 2421 007c 50574D44 		.ascii	"PWMDriver\000"
 2421      72697665 
 2421      7200
 2422 0086 1A050000 		.4byte	0x51a
 2423 008a 70776D63 		.ascii	"pwmcallback_t\000"
 2423      616C6C62 
 2423      61636B5F 
 2423      7400
 2424 0098 3D050000 		.4byte	0x53d
 2425 009c 70776D6D 		.ascii	"pwmmode_t\000"
 2425      6F64655F 
 2425      7400
 2426 00a6 48050000 		.4byte	0x548
 2427 00aa 70776D63 		.ascii	"pwmchannel_t\000"
 2427      68616E6E 
 2427      656C5F74 
 2427      00
 2428 00b7 53050000 		.4byte	0x553
 2429 00bb 70776D63 		.ascii	"pwmcnt_t\000"
 2429      6E745F74 
 2429      00
 2430 00c4 85050000 		.4byte	0x585
 2431 00c8 50574D43 		.ascii	"PWMChannelConfig\000"
 2431      68616E6E 
 2431      656C436F 
 2431      6E666967 
 2431      00
 2432 00d9 F6050000 		.4byte	0x5f6
 2433 00dd 50574D43 		.ascii	"PWMConfig\000"
 2433      6F6E6669 
 2433      6700
 2434 00e7 C1040000 		.4byte	0x4c1
 2435 00eb 50574D44 		.ascii	"PWMDriver\000"
 2435      72697665 
 2435      7200
 2436 00f5 00000000 		.4byte	0x0
 2437              		.section	.debug_aranges,"",%progbits
 2438 0000 44000000 		.4byte	0x44
ARM GAS  C:\DOCUME~1\z_80\LOCALS~1\Temp\ccF4aAsj.s 			page 45


 2439 0004 0200     		.2byte	0x2
 2440 0006 00000000 		.4byte	.Ldebug_info0
 2441 000a 04       		.byte	0x4
 2442 000b 00       		.byte	0x0
 2443 000c 0000     		.2byte	0x0
 2444 000e 0000     		.2byte	0x0
 2445 0010 00000000 		.4byte	.LFB56
 2446 0014 74000000 		.4byte	.LFE56-.LFB56
 2447 0018 00000000 		.4byte	.LFB57
 2448 001c 18000000 		.4byte	.LFE57-.LFB57
 2449 0020 00000000 		.4byte	.LFB58
 2450 0024 30010000 		.4byte	.LFE58-.LFB58
 2451 0028 00000000 		.4byte	.LFB59
 2452 002c 34000000 		.4byte	.LFE59-.LFB59
 2453 0030 00000000 		.4byte	.LFB60
 2454 0034 36000000 		.4byte	.LFE60-.LFB60
 2455 0038 00000000 		.4byte	.LFB61
 2456 003c 20000000 		.4byte	.LFE61-.LFB61
 2457 0040 00000000 		.4byte	0x0
 2458 0044 00000000 		.4byte	0x0
 2459              		.section	.debug_ranges,"",%progbits
 2460              	.Ldebug_ranges0:
 2461 0000 02000000 		.4byte	.LBB4
 2462 0004 04000000 		.4byte	.LBE4
 2463 0008 48000000 		.4byte	.LBB9
 2464 000c 74000000 		.4byte	.LBE9
 2465 0010 08000000 		.4byte	.LBB8
 2466 0014 3C000000 		.4byte	.LBE8
 2467 0018 00000000 		.4byte	0x0
 2468 001c 00000000 		.4byte	0x0
 2469 0020 02000000 		.4byte	.LBB6
 2470 0024 04000000 		.4byte	.LBE6
 2471 0028 48000000 		.4byte	.LBB7
 2472 002c 74000000 		.4byte	.LBE7
 2473 0030 08000000 		.4byte	.LBB5
 2474 0034 3C000000 		.4byte	.LBE5
 2475 0038 00000000 		.4byte	0x0
 2476 003c 00000000 		.4byte	0x0
 2477 0040 00000000 		.4byte	.LFB56
 2478 0044 74000000 		.4byte	.LFE56
 2479 0048 00000000 		.4byte	.LFB57
 2480 004c 18000000 		.4byte	.LFE57
 2481 0050 00000000 		.4byte	.LFB58
 2482 0054 30010000 		.4byte	.LFE58
 2483 0058 00000000 		.4byte	.LFB59
 2484 005c 34000000 		.4byte	.LFE59
 2485 0060 00000000 		.4byte	.LFB60
 2486 0064 36000000 		.4byte	.LFE60
 2487 0068 00000000 		.4byte	.LFB61
 2488 006c 20000000 		.4byte	.LFE61
 2489 0070 00000000 		.4byte	0x0
 2490 0074 00000000 		.4byte	0x0
 2491              		.section	.debug_str,"MS",%progbits,1
 2492              	.LASF107:
 2493 0000 70776D63 		.ascii	"pwmchannel_t\000"
 2493      68616E6E 
 2493      656C5F74 
ARM GAS  C:\DOCUME~1\z_80\LOCALS~1\Temp\ccF4aAsj.s 			page 46


 2493      00
 2494              	.LASF23:
 2495 000d 5056445F 		.ascii	"PVD_IRQn\000"
 2495      4952516E 
 2495      00
 2496              	.LASF77:
 2497 0016 44494552 		.ascii	"DIER\000"
 2497      00
 2498              	.LASF48:
 2499 001b 54494D31 		.ascii	"TIM1_TRG_COM_IRQn\000"
 2499      5F545247 
 2499      5F434F4D 
 2499      5F495251 
 2499      6E00
 2500              	.LASF73:
 2501 002d 5F726573 		.ascii	"_resvd0\000"
 2501      76643000 
 2502              	.LASF74:
 2503 0035 5F726573 		.ascii	"_resvd1\000"
 2503      76643100 
 2504              	.LASF53:
 2505 003d 49324331 		.ascii	"I2C1_EV_IRQn\000"
 2505      5F45565F 
 2505      4952516E 
 2505      00
 2506              	.LASF78:
 2507 004a 5F726573 		.ascii	"_resvd3\000"
 2507      76643300 
 2508              	.LASF79:
 2509 0052 5F726573 		.ascii	"_resvd4\000"
 2509      76643400 
 2510              	.LASF80:
 2511 005a 5F726573 		.ascii	"_resvd5\000"
 2511      76643500 
 2512              	.LASF82:
 2513 0062 5F726573 		.ascii	"_resvd6\000"
 2513      76643600 
 2514              	.LASF84:
 2515 006a 5F726573 		.ascii	"_resvd7\000"
 2515      76643700 
 2516              	.LASF86:
 2517 0072 5F726573 		.ascii	"_resvd8\000"
 2517      76643800 
 2518              	.LASF87:
 2519 007a 5F726573 		.ascii	"_resvd9\000"
 2519      76643900 
 2520              	.LASF103:
 2521 0082 70657269 		.ascii	"period\000"
 2521      6F6400
 2522              	.LASF90:
 2523 0089 5F726573 		.ascii	"_resvd11\000"
 2523      76643131 
 2523      00
 2524              	.LASF91:
 2525 0092 5F726573 		.ascii	"_resvd12\000"
 2525      76643132 
 2525      00
ARM GAS  C:\DOCUME~1\z_80\LOCALS~1\Temp\ccF4aAsj.s 			page 47


 2526              	.LASF43:
 2527 009b 43414E31 		.ascii	"CAN1_RX1_IRQn\000"
 2527      5F525831 
 2527      5F495251 
 2527      6E00
 2528              	.LASF93:
 2529 00a9 5F726573 		.ascii	"_resvd13\000"
 2529      76643133 
 2529      00
 2530              	.LASF129:
 2531 00b2 433A5C70 		.ascii	"C:\\projects\\ipm\\soft\\firmware\\valve\000"
 2531      726F6A65 
 2531      6374735C 
 2531      69706D5C 
 2531      736F6674 
 2532              	.LASF94:
 2533 00d6 5F726573 		.ascii	"_resvd14\000"
 2533      76643134 
 2533      00
 2534              	.LASF63:
 2535 00df 5254435F 		.ascii	"RTC_Alarm_IRQn\000"
 2535      416C6172 
 2535      6D5F4952 
 2535      516E00
 2536              	.LASF56:
 2537 00ee 49324332 		.ascii	"I2C2_ER_IRQn\000"
 2537      5F45525F 
 2537      4952516E 
 2537      00
 2538              	.LASF52:
 2539 00fb 54494D34 		.ascii	"TIM4_IRQn\000"
 2539      5F495251 
 2539      6E00
 2540              	.LASF30:
 2541 0105 45585449 		.ascii	"EXTI2_IRQn\000"
 2541      325F4952 
 2541      516E00
 2542              	.LASF22:
 2543 0110 57574447 		.ascii	"WWDG_IRQn\000"
 2543      5F495251 
 2543      6E00
 2544              	.LASF112:
 2545 011a 66726571 		.ascii	"frequency\000"
 2545      75656E63 
 2545      7900
 2546              	.LASF98:
 2547 0124 50574D5F 		.ascii	"PWM_READY\000"
 2547      52454144 
 2547      5900
 2548              	.LASF81:
 2549 012e 43434D52 		.ascii	"CCMR1\000"
 2549      3100
 2550              	.LASF83:
 2551 0134 43434D52 		.ascii	"CCMR2\000"
 2551      3200
 2552              	.LASF11:
 2553 013a 6C6F6E67 		.ascii	"long long int\000"
ARM GAS  C:\DOCUME~1\z_80\LOCALS~1\Temp\ccF4aAsj.s 			page 48


 2553      206C6F6E 
 2553      6720696E 
 2553      7400
 2554              	.LASF1:
 2555 0148 7369676E 		.ascii	"signed char\000"
 2555      65642063 
 2555      68617200 
 2556              	.LASF12:
 2557 0154 6C6F6E67 		.ascii	"long long unsigned int\000"
 2557      206C6F6E 
 2557      6720756E 
 2557      7369676E 
 2557      65642069 
 2558              	.LASF106:
 2559 016b 70776D6D 		.ascii	"pwmmode_t\000"
 2559      6F64655F 
 2559      7400
 2560              	.LASF88:
 2561 0175 5F726573 		.ascii	"_resvd10\000"
 2561      76643130 
 2561      00
 2562              	.LASF101:
 2563 017e 73746174 		.ascii	"state\000"
 2563      6500
 2564              	.LASF113:
 2565 0184 6368616E 		.ascii	"channels\000"
 2565      6E656C73 
 2565      00
 2566              	.LASF8:
 2567 018d 6C6F6E67 		.ascii	"long int\000"
 2567      20696E74 
 2567      00
 2568              	.LASF125:
 2569 0196 49544D5F 		.ascii	"ITM_RxBuffer\000"
 2569      52784275 
 2569      66666572 
 2569      00
 2570              	.LASF116:
 2571 01a3 70776D5F 		.ascii	"pwm_lld_start\000"
 2571      6C6C645F 
 2571      73746172 
 2571      7400
 2572              	.LASF66:
 2573 01b1 41504232 		.ascii	"APB2RSTR\000"
 2573      52535452 
 2573      00
 2574              	.LASF45:
 2575 01ba 45585449 		.ascii	"EXTI9_5_IRQn\000"
 2575      395F355F 
 2575      4952516E 
 2575      00
 2576              	.LASF85:
 2577 01c7 43434552 		.ascii	"CCER\000"
 2577      00
 2578              	.LASF5:
 2579 01cc 75696E74 		.ascii	"uint16_t\000"
 2579      31365F74 
ARM GAS  C:\DOCUME~1\z_80\LOCALS~1\Temp\ccF4aAsj.s 			page 49


 2579      00
 2580              	.LASF40:
 2581 01d5 41444331 		.ascii	"ADC1_2_IRQn\000"
 2581      5F325F49 
 2581      52516E00 
 2582              	.LASF20:
 2583 01e1 50656E64 		.ascii	"PendSV_IRQn\000"
 2583      53565F49 
 2583      52516E00 
 2584              	.LASF6:
 2585 01ed 73686F72 		.ascii	"short unsigned int\000"
 2585      7420756E 
 2585      7369676E 
 2585      65642069 
 2585      6E7400
 2586              	.LASF126:
 2587 0200 50574D44 		.ascii	"PWMD4\000"
 2587      3400
 2588              	.LASF115:
 2589 0206 56656374 		.ascii	"VectorB8\000"
 2589      6F724238 
 2589      00
 2590              	.LASF16:
 2591 020f 42757346 		.ascii	"BusFault_IRQn\000"
 2591      61756C74 
 2591      5F495251 
 2591      6E00
 2592              	.LASF89:
 2593 021d 42445452 		.ascii	"BDTR\000"
 2593      00
 2594              	.LASF0:
 2595 0222 756E7369 		.ascii	"unsigned int\000"
 2595      676E6564 
 2595      20696E74 
 2595      00
 2596              	.LASF15:
 2597 022f 4D656D6F 		.ascii	"MemoryManagement_IRQn\000"
 2597      72794D61 
 2597      6E616765 
 2597      6D656E74 
 2597      5F495251 
 2598              	.LASF10:
 2599 0245 6C6F6E67 		.ascii	"long unsigned int\000"
 2599      20756E73 
 2599      69676E65 
 2599      6420696E 
 2599      7400
 2600              	.LASF72:
 2601 0257 5243435F 		.ascii	"RCC_TypeDef\000"
 2601      54797065 
 2601      44656600 
 2602              	.LASF122:
 2603 0263 77696474 		.ascii	"width\000"
 2603      6800
 2604              	.LASF37:
 2605 0269 444D4131 		.ascii	"DMA1_Channel5_IRQn\000"
 2605      5F436861 
ARM GAS  C:\DOCUME~1\z_80\LOCALS~1\Temp\ccF4aAsj.s 			page 50


 2605      6E6E656C 
 2605      355F4952 
 2605      516E00
 2606              	.LASF75:
 2607 027c 534D4352 		.ascii	"SMCR\000"
 2607      00
 2608              	.LASF62:
 2609 0281 45585449 		.ascii	"EXTI15_10_IRQn\000"
 2609      31355F31 
 2609      305F4952 
 2609      516E00
 2610              	.LASF57:
 2611 0290 53504931 		.ascii	"SPI1_IRQn\000"
 2611      5F495251 
 2611      6E00
 2612              	.LASF110:
 2613 029a 63616C6C 		.ascii	"callback\000"
 2613      6261636B 
 2613      00
 2614              	.LASF95:
 2615 02a3 73746D33 		.ascii	"stm32_tim_t\000"
 2615      325F7469 
 2615      6D5F7400 
 2616              	.LASF117:
 2617 02af 63636572 		.ascii	"ccer\000"
 2617      00
 2618              	.LASF119:
 2619 02b4 70776D70 		.ascii	"pwmp\000"
 2619      00
 2620              	.LASF21:
 2621 02b9 53797354 		.ascii	"SysTick_IRQn\000"
 2621      69636B5F 
 2621      4952516E 
 2621      00
 2622              	.LASF49:
 2623 02c6 54494D31 		.ascii	"TIM1_CC_IRQn\000"
 2623      5F43435F 
 2623      4952516E 
 2623      00
 2624              	.LASF130:
 2625 02d3 4952516E 		.ascii	"IRQn\000"
 2625      00
 2626              	.LASF34:
 2627 02d8 444D4131 		.ascii	"DMA1_Channel2_IRQn\000"
 2627      5F436861 
 2627      6E6E656C 
 2627      325F4952 
 2627      516E00
 2628              	.LASF18:
 2629 02eb 53564361 		.ascii	"SVCall_IRQn\000"
 2629      6C6C5F49 
 2629      52516E00 
 2630              	.LASF31:
 2631 02f7 45585449 		.ascii	"EXTI3_IRQn\000"
 2631      335F4952 
 2631      516E00
 2632              	.LASF58:
ARM GAS  C:\DOCUME~1\z_80\LOCALS~1\Temp\ccF4aAsj.s 			page 51


 2633 0302 53504932 		.ascii	"SPI2_IRQn\000"
 2633      5F495251 
 2633      6E00
 2634              	.LASF132:
 2635 030c 70776D5F 		.ascii	"pwm_lld_init\000"
 2635      6C6C645F 
 2635      696E6974 
 2635      00
 2636              	.LASF64:
 2637 0319 5553425F 		.ascii	"USB_FS_WKUP_IRQn\000"
 2637      46535F57 
 2637      4B55505F 
 2637      4952516E 
 2637      00
 2638              	.LASF67:
 2639 032a 41504231 		.ascii	"APB1RSTR\000"
 2639      52535452 
 2639      00
 2640              	.LASF33:
 2641 0333 444D4131 		.ascii	"DMA1_Channel1_IRQn\000"
 2641      5F436861 
 2641      6E6E656C 
 2641      315F4952 
 2641      516E00
 2642              	.LASF105:
 2643 0346 70776D63 		.ascii	"pwmcallback_t\000"
 2643      616C6C62 
 2643      61636B5F 
 2643      7400
 2644              	.LASF59:
 2645 0354 55534152 		.ascii	"USART1_IRQn\000"
 2645      54315F49 
 2645      52516E00 
 2646              	.LASF7:
 2647 0360 696E7433 		.ascii	"int32_t\000"
 2647      325F7400 
 2648              	.LASF2:
 2649 0368 756E7369 		.ascii	"unsigned char\000"
 2649      676E6564 
 2649      20636861 
 2649      7200
 2650              	.LASF36:
 2651 0376 444D4131 		.ascii	"DMA1_Channel4_IRQn\000"
 2651      5F436861 
 2651      6E6E656C 
 2651      345F4952 
 2651      516E00
 2652              	.LASF41:
 2653 0389 5553425F 		.ascii	"USB_HP_CAN1_TX_IRQn\000"
 2653      48505F43 
 2653      414E315F 
 2653      54585F49 
 2653      52516E00 
 2654              	.LASF128:
 2655 039d 2E2E2F63 		.ascii	"../chibios_2.4.x/os/hal/platforms/STM32/pwm_lld.c\000"
 2655      68696269 
 2655      6F735F32 
ARM GAS  C:\DOCUME~1\z_80\LOCALS~1\Temp\ccF4aAsj.s 			page 52


 2655      2E342E78 
 2655      2F6F732F 
 2656              	.LASF32:
 2657 03cf 45585449 		.ascii	"EXTI4_IRQn\000"
 2657      345F4952 
 2657      516E00
 2658              	.LASF3:
 2659 03da 73686F72 		.ascii	"short int\000"
 2659      7420696E 
 2659      7400
 2660              	.LASF35:
 2661 03e4 444D4131 		.ascii	"DMA1_Channel3_IRQn\000"
 2661      5F436861 
 2661      6E6E656C 
 2661      335F4952 
 2661      516E00
 2662              	.LASF42:
 2663 03f7 5553425F 		.ascii	"USB_LP_CAN1_RX0_IRQn\000"
 2663      4C505F43 
 2663      414E315F 
 2663      5258305F 
 2663      4952516E 
 2664              	.LASF69:
 2665 040c 41504232 		.ascii	"APB2ENR\000"
 2665      454E5200 
 2666              	.LASF121:
 2667 0414 6368616E 		.ascii	"channel\000"
 2667      6E656C00 
 2668              	.LASF131:
 2669 041c 73657276 		.ascii	"serve_interrupt\000"
 2669      655F696E 
 2669      74657272 
 2669      75707400 
 2670              	.LASF26:
 2671 042c 464C4153 		.ascii	"FLASH_IRQn\000"
 2671      485F4952 
 2671      516E00
 2672              	.LASF118:
 2673 0437 70776D5F 		.ascii	"pwm_lld_stop\000"
 2673      6C6C645F 
 2673      73746F70 
 2673      00
 2674              	.LASF9:
 2675 0444 75696E74 		.ascii	"uint32_t\000"
 2675      33325F74 
 2675      00
 2676              	.LASF60:
 2677 044d 55534152 		.ascii	"USART2_IRQn\000"
 2677      54325F49 
 2677      52516E00 
 2678              	.LASF17:
 2679 0459 55736167 		.ascii	"UsageFault_IRQn\000"
 2679      65466175 
 2679      6C745F49 
 2679      52516E00 
 2680              	.LASF114:
 2681 0469 50574D43 		.ascii	"PWMConfig\000"
ARM GAS  C:\DOCUME~1\z_80\LOCALS~1\Temp\ccF4aAsj.s 			page 53


 2681      6F6E6669 
 2681      6700
 2682              	.LASF76:
 2683 0473 5F726573 		.ascii	"_resvd2\000"
 2683      76643200 
 2684              	.LASF120:
 2685 047b 70776D5F 		.ascii	"pwm_lld_enable_channel\000"
 2685      6C6C645F 
 2685      656E6162 
 2685      6C655F63 
 2685      68616E6E 
 2686              	.LASF97:
 2687 0492 50574D5F 		.ascii	"PWM_STOP\000"
 2687      53544F50 
 2687      00
 2688              	.LASF13:
 2689 049b 63686172 		.ascii	"char\000"
 2689      00
 2690              	.LASF109:
 2691 04a0 6D6F6465 		.ascii	"mode\000"
 2691      00
 2692              	.LASF102:
 2693 04a5 636F6E66 		.ascii	"config\000"
 2693      696700
 2694              	.LASF46:
 2695 04ac 54494D31 		.ascii	"TIM1_BRK_IRQn\000"
 2695      5F42524B 
 2695      5F495251 
 2695      6E00
 2696              	.LASF92:
 2697 04ba 444D4152 		.ascii	"DMAR\000"
 2697      00
 2698              	.LASF14:
 2699 04bf 4E6F6E4D 		.ascii	"NonMaskableInt_IRQn\000"
 2699      61736B61 
 2699      626C6549 
 2699      6E745F49 
 2699      52516E00 
 2700              	.LASF38:
 2701 04d3 444D4131 		.ascii	"DMA1_Channel6_IRQn\000"
 2701      5F436861 
 2701      6E6E656C 
 2701      365F4952 
 2701      516E00
 2702              	.LASF70:
 2703 04e6 41504231 		.ascii	"APB1ENR\000"
 2703      454E5200 
 2704              	.LASF24:
 2705 04ee 54414D50 		.ascii	"TAMPER_IRQn\000"
 2705      45525F49 
 2705      52516E00 
 2706              	.LASF47:
 2707 04fa 54494D31 		.ascii	"TIM1_UP_IRQn\000"
 2707      5F55505F 
 2707      4952516E 
 2707      00
 2708              	.LASF111:
ARM GAS  C:\DOCUME~1\z_80\LOCALS~1\Temp\ccF4aAsj.s 			page 54


 2709 0507 50574D43 		.ascii	"PWMChannelConfig\000"
 2709      68616E6E 
 2709      656C436F 
 2709      6E666967 
 2709      00
 2710              	.LASF19:
 2711 0518 44656275 		.ascii	"DebugMonitor_IRQn\000"
 2711      674D6F6E 
 2711      69746F72 
 2711      5F495251 
 2711      6E00
 2712              	.LASF55:
 2713 052a 49324332 		.ascii	"I2C2_EV_IRQn\000"
 2713      5F45565F 
 2713      4952516E 
 2713      00
 2714              	.LASF61:
 2715 0537 55534152 		.ascii	"USART3_IRQn\000"
 2715      54335F49 
 2715      52516E00 
 2716              	.LASF50:
 2717 0543 54494D32 		.ascii	"TIM2_IRQn\000"
 2717      5F495251 
 2717      6E00
 2718              	.LASF28:
 2719 054d 45585449 		.ascii	"EXTI0_IRQn\000"
 2719      305F4952 
 2719      516E00
 2720              	.LASF71:
 2721 0558 42444352 		.ascii	"BDCR\000"
 2721      00
 2722              	.LASF4:
 2723 055d 75696E74 		.ascii	"uint8_t\000"
 2723      385F7400 
 2724              	.LASF100:
 2725 0565 50574D44 		.ascii	"PWMDriver\000"
 2725      72697665 
 2725      7200
 2726              	.LASF27:
 2727 056f 5243435F 		.ascii	"RCC_IRQn\000"
 2727      4952516E 
 2727      00
 2728              	.LASF99:
 2729 0578 70776D73 		.ascii	"pwmstate_t\000"
 2729      74617465 
 2729      5F7400
 2730              	.LASF108:
 2731 0583 70776D63 		.ascii	"pwmcnt_t\000"
 2731      6E745F74 
 2731      00
 2732              	.LASF127:
 2733 058c 474E5520 		.ascii	"GNU C 4.5.2\000"
 2733      4320342E 
 2733      352E3200 
 2734              	.LASF39:
 2735 0598 444D4131 		.ascii	"DMA1_Channel7_IRQn\000"
 2735      5F436861 
ARM GAS  C:\DOCUME~1\z_80\LOCALS~1\Temp\ccF4aAsj.s 			page 55


 2735      6E6E656C 
 2735      375F4952 
 2735      516E00
 2736              	.LASF65:
 2737 05ab 43464752 		.ascii	"CFGR\000"
 2737      00
 2738              	.LASF124:
 2739 05b0 70776D5F 		.ascii	"pwm_lld_disable_channel\000"
 2739      6C6C645F 
 2739      64697361 
 2739      626C655F 
 2739      6368616E 
 2740              	.LASF104:
 2741 05c8 636C6F63 		.ascii	"clock\000"
 2741      6B00
 2742              	.LASF54:
 2743 05ce 49324331 		.ascii	"I2C1_ER_IRQn\000"
 2743      5F45525F 
 2743      4952516E 
 2743      00
 2744              	.LASF25:
 2745 05db 5254435F 		.ascii	"RTC_IRQn\000"
 2745      4952516E 
 2745      00
 2746              	.LASF96:
 2747 05e4 50574D5F 		.ascii	"PWM_UNINIT\000"
 2747      554E494E 
 2747      495400
 2748              	.LASF44:
 2749 05ef 43414E31 		.ascii	"CAN1_SCE_IRQn\000"
 2749      5F534345 
 2749      5F495251 
 2749      6E00
 2750              	.LASF51:
 2751 05fd 54494D33 		.ascii	"TIM3_IRQn\000"
 2751      5F495251 
 2751      6E00
 2752              	.LASF68:
 2753 0607 41484245 		.ascii	"AHBENR\000"
 2753      4E5200
 2754              	.LASF29:
 2755 060e 45585449 		.ascii	"EXTI1_IRQn\000"
 2755      315F4952 
 2755      516E00
 2756              	.LASF123:
 2757 0619 64696572 		.ascii	"dier\000"
 2757      00
 2758              		.ident	"GCC: (Sourcery G++ Lite 2011.03-42) 4.5.2"
ARM GAS  C:\DOCUME~1\z_80\LOCALS~1\Temp\ccF4aAsj.s 			page 56


DEFINED SYMBOLS
                            *ABS*:00000000 pwm_lld.c
C:\DOCUME~1\z_80\LOCALS~1\Temp\ccF4aAsj.s:24     .text.VectorB8:00000000 $t
C:\DOCUME~1\z_80\LOCALS~1\Temp\ccF4aAsj.s:30     .text.VectorB8:00000000 VectorB8
C:\DOCUME~1\z_80\LOCALS~1\Temp\ccF4aAsj.s:135    .text.VectorB8:00000070 $d
C:\DOCUME~1\z_80\LOCALS~1\Temp\ccF4aAsj.s:142    .text.pwm_lld_init:00000000 $t
C:\DOCUME~1\z_80\LOCALS~1\Temp\ccF4aAsj.s:148    .text.pwm_lld_init:00000000 pwm_lld_init
C:\DOCUME~1\z_80\LOCALS~1\Temp\ccF4aAsj.s:171    .text.pwm_lld_init:00000010 $d
C:\DOCUME~1\z_80\LOCALS~1\Temp\ccF4aAsj.s:177    .text.pwm_lld_start:00000000 $t
C:\DOCUME~1\z_80\LOCALS~1\Temp\ccF4aAsj.s:183    .text.pwm_lld_start:00000000 pwm_lld_start
C:\DOCUME~1\z_80\LOCALS~1\Temp\ccF4aAsj.s:423    .text.pwm_lld_start:00000120 $d
C:\DOCUME~1\z_80\LOCALS~1\Temp\ccF4aAsj.s:431    .text.pwm_lld_stop:00000000 $t
C:\DOCUME~1\z_80\LOCALS~1\Temp\ccF4aAsj.s:437    .text.pwm_lld_stop:00000000 pwm_lld_stop
C:\DOCUME~1\z_80\LOCALS~1\Temp\ccF4aAsj.s:486    .text.pwm_lld_stop:0000002c $d
C:\DOCUME~1\z_80\LOCALS~1\Temp\ccF4aAsj.s:492    .text.pwm_lld_enable_channel:00000000 $t
C:\DOCUME~1\z_80\LOCALS~1\Temp\ccF4aAsj.s:498    .text.pwm_lld_enable_channel:00000000 pwm_lld_enable_channel
C:\DOCUME~1\z_80\LOCALS~1\Temp\ccF4aAsj.s:558    .text.pwm_lld_disable_channel:00000000 $t
C:\DOCUME~1\z_80\LOCALS~1\Temp\ccF4aAsj.s:564    .text.pwm_lld_disable_channel:00000000 pwm_lld_disable_channel
C:\DOCUME~1\z_80\LOCALS~1\Temp\ccF4aAsj.s:599    .bss.PWMD4:00000000 PWMD4
C:\DOCUME~1\z_80\LOCALS~1\Temp\ccF4aAsj.s:595    .bss.PWMD4:00000000 $d
C:\DOCUME~1\z_80\LOCALS~1\Temp\ccF4aAsj.s:602    .rodata.str1.4:00000000 $d
                     .debug_frame:00000010 $d
C:\DOCUME~1\z_80\LOCALS~1\Temp\ccF4aAsj.s:141    .text.VectorB8:00000074 $t
C:\DOCUME~1\z_80\LOCALS~1\Temp\ccF4aAsj.s:176    .text.pwm_lld_init:00000018 $t
C:\DOCUME~1\z_80\LOCALS~1\Temp\ccF4aAsj.s:491    .text.pwm_lld_stop:00000034 $t

UNDEFINED SYMBOLS
dbg_check_enter_isr
dbg_check_leave_isr
_port_irq_epilogue
pwmObjectInit
chDbgPanic
nvicEnableVector
nvicDisableVector
