ARM GAS  /tmp/ccpnMQ8j.s 			page 1


   1              		.syntax unified
   2              		.cpu cortex-m3
   3              		.fpu softvfp
   4              		.eabi_attribute 20, 1
   5              		.eabi_attribute 21, 1
   6              		.eabi_attribute 23, 3
   7              		.eabi_attribute 24, 1
   8              		.eabi_attribute 25, 1
   9              		.eabi_attribute 26, 1
  10              		.eabi_attribute 30, 2
  11              		.eabi_attribute 18, 4
  12              		.thumb
  13              		.file	"serial_usb.c"
  20 0000 9D040000 		.text
  20      02009802 
  20      00000201 
  20      FB0E0D00 
  20      01010101 
  21              	.Ltext0:
  22              		.cfi_sections	.debug_frame
  23              		.section	.text.putwouldblock,"ax",%progbits
  24              		.align	2
  25              		.p2align 4,,15
  26              		.thumb
  27              		.thumb_func
  28              		.type	putwouldblock, %function
  29              	putwouldblock:
  30              	.LFB57:
  31              		.file 1 "../chibios_2.4.x/os/hal/src/serial_usb.c"
  32              		.loc 1 83 0
  33              		.cfi_startproc
  34              		@ args = 0, pretend = 0, frame = 0
  35              		@ frame_needed = 0, uses_anonymous_args = 0
  36              		@ link register save eliminated.
  37              	.LVL0:
  38              		.loc 1 85 0
  39 0000 806B     		ldr	r0, [r0, #56]
  40              	.LVL1:
  41              		.loc 1 86 0
  42 0002 D0F10100 		rsbs	r0, r0, #1
  43 0006 38BF     		it	cc
  44 0008 0020     		movcc	r0, #0
  45 000a 7047     		bx	lr
  46              		.cfi_endproc
  47              	.LFE57:
  48              		.size	putwouldblock, .-putwouldblock
  49 000c AFF30080 		.section	.text.getwouldblock,"ax",%progbits
  50              		.align	2
  51              		.p2align 4,,15
  52              		.thumb
  53              		.thumb_func
ARM GAS  /tmp/ccpnMQ8j.s 			page 2


  54              		.type	getwouldblock, %function
  55              	getwouldblock:
  56              	.LFB58:
  57              		.loc 1 88 0
  58              		.cfi_startproc
  59              		@ args = 0, pretend = 0, frame = 0
  60              		@ frame_needed = 0, uses_anonymous_args = 0
  61              		@ link register save eliminated.
  62              	.LVL2:
  63              		.loc 1 90 0
  64 0000 8069     		ldr	r0, [r0, #24]
  65              	.LVL3:
  66              		.loc 1 91 0
  67 0002 D0F10100 		rsbs	r0, r0, #1
  68 0006 38BF     		it	cc
  69 0008 0020     		movcc	r0, #0
  70 000a 7047     		bx	lr
  71              		.cfi_endproc
  72              	.LFE58:
  73              		.size	getwouldblock, .-getwouldblock
  74 000c AFF30080 		.section	.text.getflags,"ax",%progbits
  75              		.align	2
  76              		.p2align 4,,15
  77              		.thumb
  78              		.thumb_func
  79              		.type	getflags, %function
  80              	getflags:
  81              	.LFB63:
  82              		.loc 1 113 0
  83              		.cfi_startproc
  84              		@ args = 0, pretend = 0, frame = 0
  85              		@ frame_needed = 0, uses_anonymous_args = 0
  86              	.LVL4:
  87 0000 38B5     		push	{r3, r4, r5, lr}
  88              	.LCFI0:
  89              		.cfi_def_cfa_offset 16
  90              		.loc 1 113 0
  91 0002 0446     		mov	r4, r0
  92              		.cfi_offset 14, -4
  93              		.cfi_offset 5, -8
  94              		.cfi_offset 4, -12
  95              		.cfi_offset 3, -16
  96              		.loc 1 114 0
  97              	@ 114 "../chibios_2.4.x/os/hal/src/serial_usb.c" 1
  98 0004 FFF7FEFF 		bl      _port_lock
  99              	@ 0 "" 2
 100              		.thumb
 101 0008 FFF7FEFF 		bl	dbg_check_lock
 102              	.LVL5:
 103 000c 0023     		movs	r3, #0
 104 000e A568     		ldr	r5, [r4, #8]
 105              	.LVL6:
 106 0010 A360     		str	r3, [r4, #8]
 107 0012 FFF7FEFF 		bl	dbg_check_unlock
 108              	.LVL7:
 109              	@ 114 "../chibios_2.4.x/os/hal/src/serial_usb.c" 1
 110 0016 FFF7FEFF 		bl      _port_unlock
ARM GAS  /tmp/ccpnMQ8j.s 			page 3


 111              	@ 0 "" 2
 112              		.loc 1 115 0
 113              		.thumb
 114 001a 2846     		mov	r0, r5
 115 001c 38BD     		pop	{r3, r4, r5, pc}
 116              		.cfi_endproc
 117              	.LFE63:
 118              		.size	getflags, .-getflags
 119 001e 00BF     		.section	.text.onotify,"ax",%progbits
 120              		.align	2
 121              		.p2align 4,,15
 122              		.thumb
 123              		.thumb_func
 124              		.type	onotify, %function
 125              	onotify:
 126              	.LFB65:
 127              		.loc 1 154 0
 128              		.cfi_startproc
 129              		@ args = 0, pretend = 0, frame = 0
 130              		@ frame_needed = 0, uses_anonymous_args = 0
 131              	.LVL8:
 132 0000 2DE9F041 		push	{r4, r5, r6, r7, r8, lr}
 133              	.LCFI1:
 134              		.cfi_def_cfa_offset 24
 135              		.loc 1 155 0
 136 0004 8469     		ldr	r4, [r0, #24]
 137              		.cfi_offset 14, -4
 138              		.cfi_offset 8, -8
 139              		.cfi_offset 7, -12
 140              		.cfi_offset 6, -16
 141              		.cfi_offset 5, -20
 142              		.cfi_offset 4, -24
 143              	.LVL9:
 144              		.loc 1 161 0
 145 0006 D4F8D000 		ldr	r0, [r4, #208]
 146              	.LVL10:
 147              		.loc 1 160 0
 148 000a D4F84080 		ldr	r8, [r4, #64]
 149              		.loc 1 161 0
 150 000e 0368     		ldr	r3, [r0, #0]
 151              		.loc 1 160 0
 152 0010 E76B     		ldr	r7, [r4, #60]
 153              		.loc 1 161 0
 154 0012 9D89     		ldrh	r5, [r3, #12]
 155              		.loc 1 160 0
 156 0014 A66B     		ldr	r6, [r4, #56]
 157              	.LVL11:
 158              		.loc 1 161 0
 159 0016 15F00205 		ands	r5, r5, #2
 160 001a 01D0     		beq	.L10
 161              	.LVL12:
 162              	.L4:
 163 001c BDE8F081 		pop	{r4, r5, r6, r7, r8, pc}
 164              	.LVL13:
 165              	.L10:
 166              		.loc 1 162 0
 167 0020 FFF7FEFF 		bl	dbg_check_unlock
ARM GAS  /tmp/ccpnMQ8j.s 			page 4


 168              	@ 162 "../chibios_2.4.x/os/hal/src/serial_usb.c" 1
 169 0024 FFF7FEFF 		bl      _port_unlock
 170              	@ 0 "" 2
 171              		.loc 1 165 0
 172              		.thumb
 173 0028 D4F8D030 		ldr	r3, [r4, #208]
 174              		.loc 1 160 0
 175 002c C7EB080C 		rsb	ip, r7, r8
 176              		.loc 1 165 0
 177 0030 1868     		ldr	r0, [r3, #0]
 178 0032 0121     		movs	r1, #1
 179 0034 E26B     		ldr	r2, [r4, #60]
 180 0036 C6EB0C03 		rsb	r3, r6, ip
 181 003a FFF7FEFF 		bl	usb_lld_write_packet_buffer
 182              		.loc 1 168 0
 183              	@ 168 "../chibios_2.4.x/os/hal/src/serial_usb.c" 1
 184 003e FFF7FEFF 		bl      _port_lock
 185              	@ 0 "" 2
 186              		.thumb
 187 0042 FFF7FEFF 		bl	dbg_check_lock
 188              		.loc 1 169 0
 189 0046 D4F8D000 		ldr	r0, [r4, #208]
 190 004a 0121     		movs	r1, #1
 191 004c 0068     		ldr	r0, [r0, #0]
 192 004e FFF7FEFF 		bl	usbStartTransmitI
 193              		.loc 1 170 0
 194 0052 A168     		ldr	r1, [r4, #8]
 195 0054 201D     		adds	r0, r4, #4
 196 0056 41F00802 		orr	r2, r1, #8
 197 005a A260     		str	r2, [r4, #8]
 198 005c 2946     		mov	r1, r5
 199 005e FFF7FEFF 		bl	chEvtBroadcastFlagsI
 200              		.loc 1 171 0
 201 0062 E36B     		ldr	r3, [r4, #60]
 202              		.loc 1 172 0
 203 0064 266C     		ldr	r6, [r4, #64]
 204              	.LVL14:
 205              		.loc 1 173 0
 206 0066 226B     		ldr	r2, [r4, #48]
 207              		.loc 1 172 0
 208 0068 F11A     		subs	r1, r6, r3
 209              		.loc 1 173 0
 210 006a 04F13006 		add	r6, r4, #48
 211 006e B242     		cmp	r2, r6
 212              		.loc 1 171 0
 213 0070 6364     		str	r3, [r4, #68]
 214              		.loc 1 172 0
 215 0072 A163     		str	r1, [r4, #56]
 216              		.loc 1 173 0
 217 0074 D2D0     		beq	.L4
 218              	.L7:
 219              		.loc 1 174 0
 220 0076 3046     		mov	r0, r6
 221 0078 FFF7FEFF 		bl	fifo_remove
 222 007c FFF7FEFF 		bl	chSchReadyI
 223 0080 8562     		str	r5, [r0, #40]
 224              		.loc 1 173 0
ARM GAS  /tmp/ccpnMQ8j.s 			page 5


 225 0082 226B     		ldr	r2, [r4, #48]
 226 0084 B242     		cmp	r2, r6
 227 0086 F6D1     		bne	.L7
 228 0088 BDE8F081 		pop	{r4, r5, r6, r7, r8, pc}
 229              		.cfi_endproc
 230              	.LFE65:
 231              		.size	onotify, .-onotify
 232 008c AFF30080 		.section	.text.inotify,"ax",%progbits
 233              		.align	2
 234              		.p2align 4,,15
 235              		.thumb
 236              		.thumb_func
 237              		.type	inotify, %function
 238              	inotify:
 239              	.LFB64:
 240              		.loc 1 126 0
 241              		.cfi_startproc
 242              		@ args = 0, pretend = 0, frame = 0
 243              		@ frame_needed = 0, uses_anonymous_args = 0
 244              	.LVL15:
 245 0000 F8B5     		push	{r3, r4, r5, r6, r7, lr}
 246              	.LCFI2:
 247              		.cfi_def_cfa_offset 24
 248              		.loc 1 127 0
 249 0002 4469     		ldr	r4, [r0, #20]
 250              		.cfi_offset 14, -4
 251              		.cfi_offset 7, -8
 252              		.cfi_offset 6, -12
 253              		.cfi_offset 5, -16
 254              		.cfi_offset 4, -20
 255              		.cfi_offset 3, -24
 256              	.LVL16:
 257              		.loc 1 131 0
 258 0004 D4F8D010 		ldr	r1, [r4, #208]
 259 0008 0868     		ldr	r0, [r1, #0]
 260              	.LVL17:
 261 000a C389     		ldrh	r3, [r0, #14]
 262 000c 13F0080F 		tst	r3, #8
 263 0010 01D1     		bne	.L11
 264              		.loc 1 131 0 is_stmt 0 discriminator 1
 265 0012 A569     		ldr	r5, [r4, #24]
 266 0014 05B1     		cbz	r5, .L16
 267              	.L11:
 268 0016 F8BD     		pop	{r3, r4, r5, r6, r7, pc}
 269              	.L16:
 270              	.LBB2:
 271              		.loc 1 133 0 is_stmt 1
 272 0018 FFF7FEFF 		bl	dbg_check_unlock
 273              	@ 133 "../chibios_2.4.x/os/hal/src/serial_usb.c" 1
 274 001c FFF7FEFF 		bl      _port_unlock
 275              	@ 0 "" 2
 276              		.loc 1 136 0
 277              		.thumb
 278 0020 D4F8D060 		ldr	r6, [r4, #208]
 279 0024 0321     		movs	r1, #3
 280 0026 3068     		ldr	r0, [r6, #0]
 281 0028 E269     		ldr	r2, [r4, #28]
ARM GAS  /tmp/ccpnMQ8j.s 			page 6


 282 002a 4023     		movs	r3, #64
 283 002c FFF7FEFF 		bl	usb_lld_read_packet_buffer
 284 0030 0646     		mov	r6, r0
 285              	.LVL18:
 286              		.loc 1 141 0
 287              	@ 141 "../chibios_2.4.x/os/hal/src/serial_usb.c" 1
 288 0032 FFF7FEFF 		bl      _port_lock
 289              	@ 0 "" 2
 290              		.thumb
 291 0036 FFF7FEFF 		bl	dbg_check_lock
 292              	.LVL19:
 293              		.loc 1 142 0
 294 003a D4F8D000 		ldr	r0, [r4, #208]
 295 003e 0321     		movs	r1, #3
 296 0040 0068     		ldr	r0, [r0, #0]
 297 0042 FFF7FEFF 		bl	usbStartReceiveI
 298              		.loc 1 143 0
 299 0046 A168     		ldr	r1, [r4, #8]
 300 0048 201D     		adds	r0, r4, #4
 301 004a 41F00407 		orr	r7, r1, #4
 302 004e A760     		str	r7, [r4, #8]
 303 0050 2946     		mov	r1, r5
 304 0052 FFF7FEFF 		bl	chEvtBroadcastFlagsI
 305              		.loc 1 146 0
 306 0056 2369     		ldr	r3, [r4, #16]
 307              		.loc 1 144 0
 308 0058 E269     		ldr	r2, [r4, #28]
 309              		.loc 1 146 0
 310 005a 04F11007 		add	r7, r4, #16
 311 005e BB42     		cmp	r3, r7
 312              		.loc 1 144 0
 313 0060 A262     		str	r2, [r4, #40]
 314              		.loc 1 145 0
 315 0062 A661     		str	r6, [r4, #24]
 316              		.loc 1 146 0
 317 0064 D7D0     		beq	.L11
 318              	.L14:
 319              		.loc 1 147 0
 320 0066 3846     		mov	r0, r7
 321 0068 FFF7FEFF 		bl	fifo_remove
 322 006c FFF7FEFF 		bl	chSchReadyI
 323 0070 8562     		str	r5, [r0, #40]
 324              		.loc 1 146 0
 325 0072 2369     		ldr	r3, [r4, #16]
 326 0074 BB42     		cmp	r3, r7
 327 0076 F6D1     		bne	.L14
 328 0078 F8BD     		pop	{r3, r4, r5, r6, r7, pc}
 329              	.LBE2:
 330              		.cfi_endproc
 331              	.LFE64:
 332              		.size	inotify, .-inotify
 333 007a 00BFAFF3 		.section	.text.readt,"ax",%progbits
 333      0080
 334              		.align	2
 335              		.p2align 4,,15
 336              		.thumb
 337              		.thumb_func
ARM GAS  /tmp/ccpnMQ8j.s 			page 7


 338              		.type	readt, %function
 339              	readt:
 340              	.LFB62:
 341              		.loc 1 108 0
 342              		.cfi_startproc
 343              		@ args = 0, pretend = 0, frame = 0
 344              		@ frame_needed = 0, uses_anonymous_args = 0
 345              		@ link register save eliminated.
 346              	.LVL20:
 347              		.loc 1 110 0
 348 0000 1030     		adds	r0, r0, #16
 349              	.LVL21:
 350              		.loc 1 111 0
 351              		.loc 1 110 0
 352 0002 FFF7FEBF 		b	chIQReadTimeout
 353              		.cfi_endproc
 354              	.LFE62:
 355              		.size	readt, .-readt
 356 0006 00BFAFF3 		.section	.text.reads,"ax",%progbits
 356      0080AFF3 
 356      0080
 357              		.align	2
 358              		.p2align 4,,15
 359              		.thumb
 360              		.thumb_func
 361              		.type	reads, %function
 362              	reads:
 363              	.LFB56:
 364              		.loc 1 77 0
 365              		.cfi_startproc
 366              		@ args = 0, pretend = 0, frame = 0
 367              		@ frame_needed = 0, uses_anonymous_args = 0
 368              		@ link register save eliminated.
 369              	.LVL22:
 370              		.loc 1 79 0
 371 0000 1030     		adds	r0, r0, #16
 372              	.LVL23:
 373 0002 4FF0FF33 		mov	r3, #-1
 374              		.loc 1 81 0
 375              		.loc 1 79 0
 376 0006 FFF7FEBF 		b	chIQReadTimeout
 377              		.cfi_endproc
 378              	.LFE56:
 379              		.size	reads, .-reads
 380 000a 00BFAFF3 		.section	.text.writet,"ax",%progbits
 380      0080
 381              		.align	2
 382              		.p2align 4,,15
 383              		.thumb
 384              		.thumb_func
 385              		.type	writet, %function
 386              	writet:
 387              	.LFB61:
 388              		.loc 1 103 0
 389              		.cfi_startproc
 390              		@ args = 0, pretend = 0, frame = 0
 391              		@ frame_needed = 0, uses_anonymous_args = 0
ARM GAS  /tmp/ccpnMQ8j.s 			page 8


 392              		@ link register save eliminated.
 393              	.LVL24:
 394              		.loc 1 105 0
 395 0000 3030     		adds	r0, r0, #48
 396              	.LVL25:
 397              		.loc 1 106 0
 398              		.loc 1 105 0
 399 0002 FFF7FEBF 		b	chOQWriteTimeout
 400              		.cfi_endproc
 401              	.LFE61:
 402              		.size	writet, .-writet
 403 0006 00BFAFF3 		.section	.text.writes,"ax",%progbits
 403      0080AFF3 
 403      0080
 404              		.align	2
 405              		.p2align 4,,15
 406              		.thumb
 407              		.thumb_func
 408              		.type	writes, %function
 409              	writes:
 410              	.LFB55:
 411              		.loc 1 71 0
 412              		.cfi_startproc
 413              		@ args = 0, pretend = 0, frame = 0
 414              		@ frame_needed = 0, uses_anonymous_args = 0
 415              		@ link register save eliminated.
 416              	.LVL26:
 417              		.loc 1 73 0
 418 0000 3030     		adds	r0, r0, #48
 419              	.LVL27:
 420 0002 4FF0FF33 		mov	r3, #-1
 421              		.loc 1 75 0
 422              		.loc 1 73 0
 423 0006 FFF7FEBF 		b	chOQWriteTimeout
 424              		.cfi_endproc
 425              	.LFE55:
 426              		.size	writes, .-writes
 427 000a 00BFAFF3 		.section	.text.gett,"ax",%progbits
 427      0080
 428              		.align	2
 429              		.p2align 4,,15
 430              		.thumb
 431              		.thumb_func
 432              		.type	gett, %function
 433              	gett:
 434              	.LFB60:
 435              		.loc 1 98 0
 436              		.cfi_startproc
 437              		@ args = 0, pretend = 0, frame = 0
 438              		@ frame_needed = 0, uses_anonymous_args = 0
 439              		@ link register save eliminated.
 440              	.LVL28:
 441              		.loc 1 100 0
 442 0000 1030     		adds	r0, r0, #16
 443              	.LVL29:
 444              		.loc 1 101 0
 445              		.loc 1 100 0
ARM GAS  /tmp/ccpnMQ8j.s 			page 9


 446 0002 FFF7FEBF 		b	chIQGetTimeout
 447              		.cfi_endproc
 448              	.LFE60:
 449              		.size	gett, .-gett
 450 0006 00BFAFF3 		.section	.text.putt,"ax",%progbits
 450      0080AFF3 
 450      0080
 451              		.align	2
 452              		.p2align 4,,15
 453              		.thumb
 454              		.thumb_func
 455              		.type	putt, %function
 456              	putt:
 457              	.LFB59:
 458              		.loc 1 93 0
 459              		.cfi_startproc
 460              		@ args = 0, pretend = 0, frame = 0
 461              		@ frame_needed = 0, uses_anonymous_args = 0
 462              		@ link register save eliminated.
 463              	.LVL30:
 464              		.loc 1 95 0
 465 0000 3030     		adds	r0, r0, #48
 466              	.LVL31:
 467              		.loc 1 96 0
 468              		.loc 1 95 0
 469 0002 FFF7FEBF 		b	chOQPutTimeout
 470              		.cfi_endproc
 471              	.LFE59:
 472              		.size	putt, .-putt
 473 0006 00BFAFF3 		.section	.text.sduInit,"ax",%progbits
 473      0080AFF3 
 473      0080
 474              		.align	2
 475              		.p2align 4,,15
 476              		.global	sduInit
 477              		.thumb
 478              		.thumb_func
 479              		.type	sduInit, %function
 480              	sduInit:
 481              	.LFB66:
 482              		.loc 1 189 0
 483              		.cfi_startproc
 484              		@ args = 0, pretend = 0, frame = 0
 485              		@ frame_needed = 0, uses_anonymous_args = 0
 486              		@ link register save eliminated.
 487              		.loc 1 190 0
 488 0000 7047     		bx	lr
 489              		.cfi_endproc
 490              	.LFE66:
 491              		.size	sduInit, .-sduInit
 492 0002 00BFAFF3 		.section	.text.sduObjectInit,"ax",%progbits
 492      0080AFF3 
 492      0080AFF3 
 492      0080
 493              		.align	2
 494              		.p2align 4,,15
 495              		.global	sduObjectInit
ARM GAS  /tmp/ccpnMQ8j.s 			page 10


 496              		.thumb
 497              		.thumb_func
 498              		.type	sduObjectInit, %function
 499              	sduObjectInit:
 500              	.LFB67:
 501              		.loc 1 201 0
 502              		.cfi_startproc
 503              		@ args = 0, pretend = 0, frame = 0
 504              		@ frame_needed = 0, uses_anonymous_args = 0
 505              	.LVL32:
 506 0000 38B5     		push	{r3, r4, r5, lr}
 507              	.LCFI3:
 508              		.cfi_def_cfa_offset 16
 509              		.loc 1 203 0
 510 0002 0E4B     		ldr	r3, .L25
 511              		.cfi_offset 14, -4
 512              		.cfi_offset 5, -8
 513              		.cfi_offset 4, -12
 514              		.cfi_offset 3, -16
 515 0004 0546     		mov	r5, r0
 516              		.loc 1 201 0
 517 0006 0446     		mov	r4, r0
 518              		.loc 1 203 0
 519 0008 45F8043B 		str	r3, [r5], #4
 520              		.loc 1 204 0
 521 000c 6560     		str	r5, [r4, #4]
 522              		.loc 1 205 0
 523 000e 0025     		movs	r5, #0
 524 0010 A560     		str	r5, [r4, #8]
 525              		.loc 1 206 0
 526 0012 0125     		movs	r5, #1
 527              		.loc 1 207 0
 528 0014 1030     		adds	r0, r0, #16
 529              	.LVL33:
 530 0016 04F15001 		add	r1, r4, #80
 531 001a 4022     		movs	r2, #64
 532 001c 084B     		ldr	r3, .L25+4
 533              		.loc 1 206 0
 534 001e 2573     		strb	r5, [r4, #12]
 535              		.loc 1 207 0
 536 0020 FFF7FEFF 		bl	chIQInit
 537              		.loc 1 208 0
 538 0024 04F13000 		add	r0, r4, #48
 539 0028 04F19001 		add	r1, r4, #144
 540 002c 4022     		movs	r2, #64
 541 002e 054B     		ldr	r3, .L25+8
 542 0030 FFF7FEFF 		bl	chOQInit
 543              		.loc 1 211 0
 544 0034 6462     		str	r4, [r4, #36]
 545              		.loc 1 212 0
 546 0036 A464     		str	r4, [r4, #72]
 547              		.loc 1 213 0
 548 0038 38BD     		pop	{r3, r4, r5, pc}
 549              	.L26:
 550 003a 00BF     		.align	2
 551              	.L25:
 552 003c 00000000 		.word	.LANCHOR0
ARM GAS  /tmp/ccpnMQ8j.s 			page 11


 553 0040 00000000 		.word	inotify
 554 0044 00000000 		.word	onotify
 555              		.cfi_endproc
 556              	.LFE67:
 557              		.size	sduObjectInit, .-sduObjectInit
 558 0048 AFF30080 		.section	.text.sduStart,"ax",%progbits
 558      AFF30080 
 559              		.align	2
 560              		.p2align 4,,15
 561              		.global	sduStart
 562              		.thumb
 563              		.thumb_func
 564              		.type	sduStart, %function
 565              	sduStart:
 566              	.LFB68:
 567              		.loc 1 223 0
 568              		.cfi_startproc
 569              		@ args = 0, pretend = 0, frame = 0
 570              		@ frame_needed = 0, uses_anonymous_args = 0
 571              	.LVL34:
 572 0000 70B5     		push	{r4, r5, r6, lr}
 573              	.LCFI4:
 574              		.cfi_def_cfa_offset 16
 575              		.loc 1 225 0
 576 0002 0446     		mov	r4, r0
 577              		.cfi_offset 14, -4
 578              		.cfi_offset 6, -8
 579              		.cfi_offset 5, -12
 580              		.cfi_offset 4, -16
 581              		.loc 1 223 0
 582 0004 0D46     		mov	r5, r1
 583              		.loc 1 225 0
 584 0006 E0B1     		cbz	r0, .L30
 585              	.LVL35:
 586              	.L28:
 587              		.loc 1 227 0
 588              	@ 227 "../chibios_2.4.x/os/hal/src/serial_usb.c" 1
 589 0008 FFF7FEFF 		bl      _port_lock
 590              	@ 0 "" 2
 591              		.thumb
 592 000c FFF7FEFF 		bl	dbg_check_lock
 593              		.loc 1 228 0
 594 0010 217B     		ldrb	r1, [r4, #12]	@ zero_extendqisi2
 595 0012 481E     		subs	r0, r1, #1
 596 0014 C3B2     		uxtb	r3, r0
 597 0016 012B     		cmp	r3, #1
 598 0018 02D9     		bls	.L29
 599              		.loc 1 228 0 is_stmt 0 discriminator 1
 600 001a 0C48     		ldr	r0, .L31
 601 001c FFF7FEFF 		bl	chDbgPanic
 602              	.L29:
 603              		.loc 1 232 0 is_stmt 1
 604 0020 2B68     		ldr	r3, [r5, #0]
 605              		.loc 1 233 0
 606 0022 0222     		movs	r2, #2
 607              		.loc 1 231 0
 608 0024 C4F8D050 		str	r5, [r4, #208]
ARM GAS  /tmp/ccpnMQ8j.s 			page 12


 609              		.loc 1 232 0
 610 0028 9C60     		str	r4, [r3, #8]
 611              		.loc 1 233 0
 612 002a 2273     		strb	r2, [r4, #12]
 613              		.loc 1 234 0
 614 002c FFF7FEFF 		bl	dbg_check_unlock
 615              	@ 234 "../chibios_2.4.x/os/hal/src/serial_usb.c" 1
 616 0030 FFF7FEFF 		bl      _port_unlock
 617              	@ 0 "" 2
 618              		.loc 1 235 0
 619              		.thumb
 620 0034 2946     		mov	r1, r5
 621 0036 51F8040B 		ldr	r0, [r1], #4
 622              		.loc 1 236 0
 623 003a BDE87040 		pop	{r4, r5, r6, lr}
 624              		.loc 1 235 0
 625 003e FFF7FEBF 		b	usbStart
 626              	.L30:
 627              		.loc 1 225 0 discriminator 1
 628 0042 0348     		ldr	r0, .L31+4
 629 0044 FFF7FEFF 		bl	chDbgPanic
 630 0048 DEE7     		b	.L28
 631              	.L32:
 632 004a 00BF     		.align	2
 633              	.L31:
 634 004c 10000000 		.word	.LC1
 635 0050 00000000 		.word	.LC0
 636              		.cfi_endproc
 637              	.LFE68:
 638              		.size	sduStart, .-sduStart
 639 0054 AFF30080 		.section	.text.sduStop,"ax",%progbits
 639      AFF30080 
 639      AFF30080 
 640              		.align	2
 641              		.p2align 4,,15
 642              		.global	sduStop
 643              		.thumb
 644              		.thumb_func
 645              		.type	sduStop, %function
 646              	sduStop:
 647              	.LFB69:
 648              		.loc 1 247 0
 649              		.cfi_startproc
 650              		@ args = 0, pretend = 0, frame = 0
 651              		@ frame_needed = 0, uses_anonymous_args = 0
 652              	.LVL36:
 653 0000 10B5     		push	{r4, lr}
 654              	.LCFI5:
 655              		.cfi_def_cfa_offset 8
 656              		.loc 1 249 0
 657 0002 0446     		mov	r4, r0
 658              		.cfi_offset 14, -4
 659              		.cfi_offset 4, -8
 660 0004 C0B1     		cbz	r0, .L36
 661              	.LVL37:
 662              	.L34:
 663              		.loc 1 251 0
ARM GAS  /tmp/ccpnMQ8j.s 			page 13


 664              	@ 251 "../chibios_2.4.x/os/hal/src/serial_usb.c" 1
 665 0006 FFF7FEFF 		bl      _port_lock
 666              	@ 0 "" 2
 667              		.thumb
 668 000a FFF7FEFF 		bl	dbg_check_lock
 669              		.loc 1 252 0
 670 000e 217B     		ldrb	r1, [r4, #12]	@ zero_extendqisi2
 671 0010 481E     		subs	r0, r1, #1
 672 0012 C3B2     		uxtb	r3, r0
 673 0014 012B     		cmp	r3, #1
 674 0016 02D9     		bls	.L35
 675              		.loc 1 252 0 is_stmt 0 discriminator 1
 676 0018 0948     		ldr	r0, .L37
 677 001a FFF7FEFF 		bl	chDbgPanic
 678              	.L35:
 679              		.loc 1 255 0 is_stmt 1
 680 001e 0123     		movs	r3, #1
 681 0020 2373     		strb	r3, [r4, #12]
 682              		.loc 1 256 0
 683 0022 FFF7FEFF 		bl	dbg_check_unlock
 684              	@ 256 "../chibios_2.4.x/os/hal/src/serial_usb.c" 1
 685 0026 FFF7FEFF 		bl      _port_unlock
 686              	@ 0 "" 2
 687              		.loc 1 257 0
 688              		.thumb
 689 002a D4F8D020 		ldr	r2, [r4, #208]
 690 002e 1068     		ldr	r0, [r2, #0]
 691              		.loc 1 258 0
 692 0030 BDE81040 		pop	{r4, lr}
 693              		.loc 1 257 0
 694 0034 FFF7FEBF 		b	usbStop
 695              	.L36:
 696              		.loc 1 249 0 discriminator 1
 697 0038 0248     		ldr	r0, .L37+4
 698 003a FFF7FEFF 		bl	chDbgPanic
 699 003e E2E7     		b	.L34
 700              	.L38:
 701              		.align	2
 702              	.L37:
 703 0040 2C000000 		.word	.LC3
 704 0044 20000000 		.word	.LC2
 705              		.cfi_endproc
 706              	.LFE69:
 707              		.size	sduStop, .-sduStop
 708 0048 AFF30080 		.section	.text.sduRequestsHook,"ax",%progbits
 708      AFF30080 
 709              		.align	2
 710              		.p2align 4,,15
 711              		.global	sduRequestsHook
 712              		.thumb
 713              		.thumb_func
 714              		.type	sduRequestsHook, %function
 715              	sduRequestsHook:
 716              	.LFB70:
 717              		.loc 1 275 0
 718              		.cfi_startproc
 719              		@ args = 0, pretend = 0, frame = 0
ARM GAS  /tmp/ccpnMQ8j.s 			page 14


 720              		@ frame_needed = 0, uses_anonymous_args = 0
 721              		@ link register save eliminated.
 722              	.LVL38:
 723              		.loc 1 277 0
 724 0000 90F84010 		ldrb	r1, [r0, #64]	@ zero_extendqisi2
 725 0004 01F06003 		and	r3, r1, #96
 726 0008 202B     		cmp	r3, #32
 727 000a 01D0     		beq	.L47
 728              		.loc 1 293 0
 729 000c 0020     		movs	r0, #0
 730              	.LVL39:
 731 000e 7047     		bx	lr
 732              	.LVL40:
 733              	.L47:
 734              		.loc 1 278 0
 735 0010 90F84130 		ldrb	r3, [r0, #65]	@ zero_extendqisi2
 736 0014 212B     		cmp	r3, #33
 737 0016 0BD0     		beq	.L41
 738 0018 222B     		cmp	r3, #34
 739 001a 03D0     		beq	.L43
 740 001c 202B     		cmp	r3, #32
 741 001e 07D0     		beq	.L41
 742              		.loc 1 290 0
 743 0020 0020     		movs	r0, #0
 744              	.LVL41:
 745              		.loc 1 294 0
 746 0022 7047     		bx	lr
 747              	.LVL42:
 748              	.L43:
 749              		.loc 1 287 0
 750 0024 0022     		movs	r2, #0
 751 0026 4263     		str	r2, [r0, #52]
 752 0028 8263     		str	r2, [r0, #56]
 753 002a C263     		str	r2, [r0, #60]
 754              		.loc 1 288 0
 755 002c 0120     		movs	r0, #1
 756              	.LVL43:
 757 002e 7047     		bx	lr
 758              	.LVL44:
 759              	.L41:
 760              		.loc 1 283 0
 761 0030 0349     		ldr	r1, .L48
 762 0032 0723     		movs	r3, #7
 763 0034 0022     		movs	r2, #0
 764 0036 4163     		str	r1, [r0, #52]
 765 0038 8363     		str	r3, [r0, #56]
 766 003a C263     		str	r2, [r0, #60]
 767              		.loc 1 284 0
 768 003c 0120     		movs	r0, #1
 769              	.LVL45:
 770 003e 7047     		bx	lr
 771              	.L49:
 772              		.align	2
 773              	.L48:
 774 0040 00000000 		.word	.LANCHOR1
 775              		.cfi_endproc
 776              	.LFE70:
ARM GAS  /tmp/ccpnMQ8j.s 			page 15


 777              		.size	sduRequestsHook, .-sduRequestsHook
 778 0044 AFF30080 		.section	.text.sduDataTransmitted,"ax",%progbits
 778      AFF30080 
 778      AFF30080 
 779              		.align	2
 780              		.p2align 4,,15
 781              		.global	sduDataTransmitted
 782              		.thumb
 783              		.thumb_func
 784              		.type	sduDataTransmitted, %function
 785              	sduDataTransmitted:
 786              	.LFB71:
 787              		.loc 1 304 0
 788              		.cfi_startproc
 789              		@ args = 0, pretend = 0, frame = 0
 790              		@ frame_needed = 0, uses_anonymous_args = 0
 791              	.LVL46:
 792 0000 F8B5     		push	{r3, r4, r5, r6, r7, lr}
 793              	.LCFI6:
 794              		.cfi_def_cfa_offset 24
 795              		.loc 1 305 0
 796 0002 8468     		ldr	r4, [r0, #8]
 797              		.cfi_offset 14, -4
 798              		.cfi_offset 7, -8
 799              		.cfi_offset 6, -12
 800              		.cfi_offset 5, -16
 801              		.cfi_offset 4, -20
 802              		.cfi_offset 3, -24
 803              	.LVL47:
 804              		.loc 1 304 0
 805 0004 0546     		mov	r5, r0
 806 0006 0E46     		mov	r6, r1
 807              		.loc 1 308 0
 808              	@ 308 "../chibios_2.4.x/os/hal/src/serial_usb.c" 1
 809 0008 FFF7FEFF 		bl      _port_lock
 810              	@ 0 "" 2
 811              		.thumb
 812 000c FFF7FEFF 		bl	dbg_check_lock_from_isr
 813              	.LVL48:
 814              		.loc 1 311 0
 815 0010 206C     		ldr	r0, [r4, #64]
 816 0012 E26B     		ldr	r2, [r4, #60]
 817 0014 A36B     		ldr	r3, [r4, #56]
 818 0016 871A     		subs	r7, r0, r2
 819              	.LVL49:
 820              		.loc 1 312 0
 821 0018 FF1A     		subs	r7, r7, r3
 822              	.LVL50:
 823 001a 04D1     		bne	.L55
 824              	.LVL51:
 825              	.L51:
 826              		.loc 1 328 0
 827 001c FFF7FEFF 		bl	dbg_check_unlock_from_isr
 828              	@ 328 "../chibios_2.4.x/os/hal/src/serial_usb.c" 1
 829 0020 FFF7FEFF 		bl      _port_unlock
 830              	@ 0 "" 2
 831              		.loc 1 329 0
ARM GAS  /tmp/ccpnMQ8j.s 			page 16


 832              		.thumb
 833 0024 F8BD     		pop	{r3, r4, r5, r6, r7, pc}
 834              	.LVL52:
 835              	.L55:
 836              		.loc 1 315 0
 837 0026 FFF7FEFF 		bl	dbg_check_unlock_from_isr
 838              	@ 315 "../chibios_2.4.x/os/hal/src/serial_usb.c" 1
 839 002a FFF7FEFF 		bl      _port_unlock
 840              	@ 0 "" 2
 841              		.loc 1 318 0
 842              		.thumb
 843 002e 2846     		mov	r0, r5
 844 0030 3146     		mov	r1, r6
 845 0032 E26B     		ldr	r2, [r4, #60]
 846 0034 3B46     		mov	r3, r7
 847 0036 FFF7FEFF 		bl	usb_lld_write_packet_buffer
 848              		.loc 1 320 0
 849              	@ 320 "../chibios_2.4.x/os/hal/src/serial_usb.c" 1
 850 003a FFF7FEFF 		bl      _port_lock
 851              	@ 0 "" 2
 852              		.thumb
 853 003e FFF7FEFF 		bl	dbg_check_lock_from_isr
 854              		.loc 1 321 0
 855 0042 2846     		mov	r0, r5
 856 0044 3146     		mov	r1, r6
 857 0046 FFF7FEFF 		bl	usbStartTransmitI
 858              		.loc 1 322 0
 859 004a A168     		ldr	r1, [r4, #8]
 860 004c 201D     		adds	r0, r4, #4
 861 004e 41F00802 		orr	r2, r1, #8
 862 0052 A260     		str	r2, [r4, #8]
 863 0054 0021     		movs	r1, #0
 864 0056 FFF7FEFF 		bl	chEvtBroadcastFlagsI
 865              		.loc 1 323 0
 866 005a E36B     		ldr	r3, [r4, #60]
 867              		.loc 1 324 0
 868 005c 256C     		ldr	r5, [r4, #64]
 869              	.LVL53:
 870              		.loc 1 325 0
 871 005e 206B     		ldr	r0, [r4, #48]
 872              		.loc 1 324 0
 873 0060 E91A     		subs	r1, r5, r3
 874              		.loc 1 325 0
 875 0062 04F13005 		add	r5, r4, #48
 876 0066 A842     		cmp	r0, r5
 877              		.loc 1 323 0
 878 0068 6364     		str	r3, [r4, #68]
 879              		.loc 1 324 0
 880 006a A163     		str	r1, [r4, #56]
 881              		.loc 1 325 0
 882 006c D6D0     		beq	.L51
 883              		.loc 1 326 0
 884 006e 0026     		movs	r6, #0
 885              	.L53:
 886 0070 2846     		mov	r0, r5
 887 0072 FFF7FEFF 		bl	fifo_remove
 888 0076 FFF7FEFF 		bl	chSchReadyI
ARM GAS  /tmp/ccpnMQ8j.s 			page 17


 889 007a 8662     		str	r6, [r0, #40]
 890              		.loc 1 325 0
 891 007c 206B     		ldr	r0, [r4, #48]
 892 007e A842     		cmp	r0, r5
 893 0080 F6D1     		bne	.L53
 894              		.loc 1 328 0
 895 0082 FFF7FEFF 		bl	dbg_check_unlock_from_isr
 896              	@ 328 "../chibios_2.4.x/os/hal/src/serial_usb.c" 1
 897 0086 FFF7FEFF 		bl      _port_unlock
 898              	@ 0 "" 2
 899              		.loc 1 329 0
 900              		.thumb
 901 008a F8BD     		pop	{r3, r4, r5, r6, r7, pc}
 902              		.cfi_endproc
 903              	.LFE71:
 904              		.size	sduDataTransmitted, .-sduDataTransmitted
 905 008c AFF30080 		.section	.text.sduDataReceived,"ax",%progbits
 906              		.align	2
 907              		.p2align 4,,15
 908              		.global	sduDataReceived
 909              		.thumb
 910              		.thumb_func
 911              		.type	sduDataReceived, %function
 912              	sduDataReceived:
 913              	.LFB72:
 914              		.loc 1 339 0
 915              		.cfi_startproc
 916              		@ args = 0, pretend = 0, frame = 0
 917              		@ frame_needed = 0, uses_anonymous_args = 0
 918              	.LVL54:
 919 0000 2DE9F041 		push	{r4, r5, r6, r7, r8, lr}
 920              	.LCFI7:
 921              		.cfi_def_cfa_offset 24
 922              		.loc 1 340 0
 923 0004 8468     		ldr	r4, [r0, #8]
 924              		.cfi_offset 14, -4
 925              		.cfi_offset 8, -8
 926              		.cfi_offset 7, -12
 927              		.cfi_offset 6, -16
 928              		.cfi_offset 5, -20
 929              		.cfi_offset 4, -24
 930              	.LVL55:
 931              		.loc 1 339 0
 932 0006 0546     		mov	r5, r0
 933 0008 0F46     		mov	r7, r1
 934              		.loc 1 342 0
 935              	@ 342 "../chibios_2.4.x/os/hal/src/serial_usb.c" 1
 936 000a FFF7FEFF 		bl      _port_lock
 937              	@ 0 "" 2
 938              		.thumb
 939 000e FFF7FEFF 		bl	dbg_check_lock_from_isr
 940              	.LVL56:
 941              		.loc 1 345 0
 942 0012 A669     		ldr	r6, [r4, #24]
 943 0014 2EB1     		cbz	r6, .L61
 944              	.LVL57:
 945              	.L57:
ARM GAS  /tmp/ccpnMQ8j.s 			page 18


 946              		.loc 1 364 0
 947 0016 FFF7FEFF 		bl	dbg_check_unlock_from_isr
 948              	@ 364 "../chibios_2.4.x/os/hal/src/serial_usb.c" 1
 949 001a FFF7FEFF 		bl      _port_unlock
 950              	@ 0 "" 2
 951              		.loc 1 365 0
 952              		.thumb
 953 001e BDE8F081 		pop	{r4, r5, r6, r7, r8, pc}
 954              	.LVL58:
 955              	.L61:
 956              	.LBB3:
 957              		.loc 1 350 0
 958 0022 FFF7FEFF 		bl	dbg_check_unlock_from_isr
 959              	@ 350 "../chibios_2.4.x/os/hal/src/serial_usb.c" 1
 960 0026 FFF7FEFF 		bl      _port_unlock
 961              	@ 0 "" 2
 962              		.loc 1 353 0
 963              		.thumb
 964 002a 4023     		movs	r3, #64
 965 002c 2846     		mov	r0, r5
 966 002e 3946     		mov	r1, r7
 967 0030 E269     		ldr	r2, [r4, #28]
 968 0032 FFF7FEFF 		bl	usb_lld_read_packet_buffer
 969 0036 8046     		mov	r8, r0
 970              	.LVL59:
 971              		.loc 1 356 0
 972              	@ 356 "../chibios_2.4.x/os/hal/src/serial_usb.c" 1
 973 0038 FFF7FEFF 		bl      _port_lock
 974              	@ 0 "" 2
 975              		.thumb
 976 003c FFF7FEFF 		bl	dbg_check_lock_from_isr
 977              	.LVL60:
 978              		.loc 1 357 0
 979 0040 2846     		mov	r0, r5
 980 0042 3946     		mov	r1, r7
 981 0044 FFF7FEFF 		bl	usbStartReceiveI
 982              		.loc 1 358 0
 983 0048 A568     		ldr	r5, [r4, #8]
 984              	.LVL61:
 985 004a 201D     		adds	r0, r4, #4
 986 004c 45F00401 		orr	r1, r5, #4
 987 0050 A160     		str	r1, [r4, #8]
 988 0052 3146     		mov	r1, r6
 989 0054 FFF7FEFF 		bl	chEvtBroadcastFlagsI
 990              		.loc 1 361 0
 991 0058 2369     		ldr	r3, [r4, #16]
 992              		.loc 1 359 0
 993 005a E269     		ldr	r2, [r4, #28]
 994              		.loc 1 361 0
 995 005c 04F11005 		add	r5, r4, #16
 996 0060 AB42     		cmp	r3, r5
 997              		.loc 1 359 0
 998 0062 A262     		str	r2, [r4, #40]
 999              		.loc 1 360 0
 1000 0064 C4F81880 		str	r8, [r4, #24]
 1001              		.loc 1 361 0
 1002 0068 D5D0     		beq	.L57
ARM GAS  /tmp/ccpnMQ8j.s 			page 19


 1003              	.L59:
 1004              		.loc 1 362 0
 1005 006a 2846     		mov	r0, r5
 1006 006c FFF7FEFF 		bl	fifo_remove
 1007 0070 FFF7FEFF 		bl	chSchReadyI
 1008 0074 8662     		str	r6, [r0, #40]
 1009              		.loc 1 361 0
 1010 0076 2069     		ldr	r0, [r4, #16]
 1011 0078 A842     		cmp	r0, r5
 1012 007a F6D1     		bne	.L59
 1013              	.LBE3:
 1014              		.loc 1 364 0
 1015 007c FFF7FEFF 		bl	dbg_check_unlock_from_isr
 1016              	@ 364 "../chibios_2.4.x/os/hal/src/serial_usb.c" 1
 1017 0080 FFF7FEFF 		bl      _port_unlock
 1018              	@ 0 "" 2
 1019              		.loc 1 365 0
 1020              		.thumb
 1021 0084 BDE8F081 		pop	{r4, r5, r6, r7, r8, pc}
 1022              		.cfi_endproc
 1023              	.LFE72:
 1024              		.size	sduDataReceived, .-sduDataReceived
 1025 0088 AFF30080 		.section	.text.sduInterruptTransmitted,"ax",%progbits
 1025      AFF30080 
 1026              		.align	2
 1027              		.p2align 4,,15
 1028              		.global	sduInterruptTransmitted
 1029              		.thumb
 1030              		.thumb_func
 1031              		.type	sduInterruptTransmitted, %function
 1032              	sduInterruptTransmitted:
 1033              	.LFB73:
 1034              		.loc 1 375 0
 1035              		.cfi_startproc
 1036              		@ args = 0, pretend = 0, frame = 0
 1037              		@ frame_needed = 0, uses_anonymous_args = 0
 1038              		@ link register save eliminated.
 1039              	.LVL62:
 1040              		.loc 1 379 0
 1041 0000 7047     		bx	lr
 1042              		.cfi_endproc
 1043              	.LFE73:
 1044              		.size	sduInterruptTransmitted, .-sduInterruptTransmitted
 1045 0002 00BFAFF3 		.section	.rodata.str1.4,"aMS",%progbits,1
 1045      0080AFF3 
 1045      0080AFF3 
 1045      0080
 1046              		.align	2
 1047              	.LC0:
 1048 0000 22736475 		.ascii	"\"sduStart\"()\000"
 1048      53746172 
 1048      74222829 
 1048      00
 1049 000d 000000   		.space	3
 1050              	.LC1:
 1051 0010 73647553 		.ascii	"sduStart(), #1\000"
 1051      74617274 
ARM GAS  /tmp/ccpnMQ8j.s 			page 20


 1051      28292C20 
 1051      233100
 1052 001f 00       		.space	1
 1053              	.LC2:
 1054 0020 22736453 		.ascii	"\"sdStop\"()\000"
 1054      746F7022 
 1054      282900
 1055 002b 00       		.space	1
 1056              	.LC3:
 1057 002c 73647553 		.ascii	"sduStop(), #1\000"
 1057      746F7028 
 1057      292C2023 
 1057      3100
 1058 003a 0000     		.section	.rodata.vmt,"a",%progbits
 1059              		.align	2
 1060              		.set	.LANCHOR0,. + 0
 1061              		.type	vmt, %object
 1062              		.size	vmt, 36
 1063              	vmt:
 1064 0000 00000000 		.word	writes
 1065 0004 00000000 		.word	reads
 1066 0008 00000000 		.word	putwouldblock
 1067 000c 00000000 		.word	getwouldblock
 1068 0010 00000000 		.word	putt
 1069 0014 00000000 		.word	gett
 1070 0018 00000000 		.word	writet
 1071 001c 00000000 		.word	readt
 1072 0020 00000000 		.word	getflags
 1073              		.section	.data.linecoding,"aw",%progbits
 1074              		.align	2
 1075              		.set	.LANCHOR1,. + 0
 1076              		.type	linecoding, %object
 1077              		.size	linecoding, 7
 1078              	linecoding:
 1079 0000 00       		.byte	0
 1080 0001 96       		.byte	-106
 1081 0002 00       		.byte	0
 1082 0003 00       		.byte	0
 1083 0004 00       		.byte	0
 1084 0005 00       		.byte	0
 1085 0006 08       		.byte	8
 1086 0007 00       		.text
 1087              	.Letext0: