ARM GAS  C:\DOCUME~1\z_80\LOCALS~1\Temp\ccoxOHei.s 			page 1


   1              		.syntax unified
   2              		.cpu cortex-m3
   3              		.fpu softvfp
   4              		.eabi_attribute 20, 1
   5              		.eabi_attribute 21, 1
   6              		.eabi_attribute 23, 3
   7              		.eabi_attribute 24, 1
   8              		.eabi_attribute 25, 1
   9              		.eabi_attribute 26, 1
  10              		.eabi_attribute 30, 2
  11              		.eabi_attribute 18, 4
  12              		.thumb
  13              		.file	"shell.c"
  20 0000 A9030000 		.text
  20      02001D02 
  20      00000201 
  20      FB0E0D00 
  20      01010101 
  21              	.Ltext0:
  22              		.cfi_sections	.debug_frame
  23              		.section	.text.cmd_systime,"ax",%progbits
  24              		.align	2
  25              		.p2align 4,,15
  26              		.thumb
  27              		.thumb_func
  28              		.type	cmd_systime, %function
  29              	cmd_systime:
  30              	.LFB59:
  31              		.file 1 "../chibios_2.4.x/os/various/shell.c"
  32              		.loc 1 110 0
  33              		.cfi_startproc
  34              		@ args = 0, pretend = 0, frame = 0
  35              		@ frame_needed = 0, uses_anonymous_args = 0
  36              		@ link register save eliminated.
  37              	.LVL0:
  38              		.loc 1 113 0
  39 0000 0029     		cmp	r1, #0
  40 0002 03DD     		ble	.L2
  41              	.LVL1:
  42              	.LBB10:
  43              	.LBB11:
  44              		.loc 1 67 0
  45 0004 0449     		ldr	r1, .L4
  46              	.LVL2:
  47 0006 054A     		ldr	r2, .L4+4
  48              	.LVL3:
  49              	.LBE11:
  50              	.LBE10:
  51              		.loc 1 118 0
  52              	.LBB13:
  53              	.LBB12:
ARM GAS  C:\DOCUME~1\z_80\LOCALS~1\Temp\ccoxOHei.s 			page 2


  54              		.loc 1 67 0
  55 0008 FFF7FEBF 		b	chprintf
  56              	.LVL4:
  57              	.L2:
  58              	.LBE12:
  59              	.LBE13:
  60              		.loc 1 117 0
  61 000c 044B     		ldr	r3, .L4+8
  62 000e 0549     		ldr	r1, .L4+12
  63              	.LVL5:
  64 0010 DA68     		ldr	r2, [r3, #12]
  65              	.LVL6:
  66              		.loc 1 118 0
  67              		.loc 1 117 0
  68 0012 FFF7FEBF 		b	chprintf
  69              	.LVL7:
  70              	.L5:
  71 0016 00BF     		.align	2
  72              	.L4:
  73 0018 00000000 		.word	.LC0
  74 001c 0C000000 		.word	.LC1
  75 0020 00000000 		.word	vtlist
  76 0024 14000000 		.word	.LC2
  77              		.cfi_endproc
  78              	.LFE59:
  79              		.size	cmd_systime, .-cmd_systime
  80 0028 AFF30080 		.section	.text.cmd_info,"ax",%progbits
  80      AFF30080 
  81              		.align	2
  82              		.p2align 4,,15
  83              		.thumb
  84              		.thumb_func
  85              		.type	cmd_info, %function
  86              	cmd_info:
  87              	.LFB58:
  88              		.loc 1 78 0
  89              		.cfi_startproc
  90              		@ args = 0, pretend = 0, frame = 0
  91              		@ frame_needed = 0, uses_anonymous_args = 0
  92              	.LVL8:
  93 0000 10B5     		push	{r4, lr}
  94              	.LCFI0:
  95              		.cfi_def_cfa_offset 8
  96              		.loc 1 81 0
  97 0002 0029     		cmp	r1, #0
  98              		.loc 1 78 0
  99 0004 82B0     		sub	sp, sp, #8
 100              	.LCFI1:
 101              		.cfi_def_cfa_offset 16
 102              		.loc 1 78 0
 103 0006 0446     		mov	r4, r0
 104              		.cfi_offset 14, -4
 105              		.cfi_offset 4, -8
 106              		.loc 1 81 0
 107 0008 06DD     		ble	.L7
 108              	.LVL9:
 109              	.LBB14:
ARM GAS  C:\DOCUME~1\z_80\LOCALS~1\Temp\ccoxOHei.s 			page 3


 110              	.LBB15:
 111              		.loc 1 67 0
 112 000a 1949     		ldr	r1, .L8
 113              	.LVL10:
 114 000c 194A     		ldr	r2, .L8+4
 115              	.LVL11:
 116              	.LBE15:
 117              	.LBE14:
 118              		.loc 1 108 0
 119 000e 02B0     		add	sp, sp, #8
 120 0010 BDE81040 		pop	{r4, lr}
 121              	.LBB17:
 122              	.LBB16:
 123              		.loc 1 67 0
 124 0014 FFF7FEBF 		b	chprintf
 125              	.LVL12:
 126              	.L7:
 127              	.LBE16:
 128              	.LBE17:
 129              		.loc 1 86 0
 130 0018 1749     		ldr	r1, .L8+8
 131              	.LVL13:
 132 001a 184A     		ldr	r2, .L8+12
 133              	.LVL14:
 134 001c FFF7FEFF 		bl	chprintf
 135              		.loc 1 88 0
 136 0020 2046     		mov	r0, r4
 137 0022 1749     		ldr	r1, .L8+16
 138 0024 174A     		ldr	r2, .L8+20
 139 0026 FFF7FEFF 		bl	chprintf
 140              		.loc 1 90 0
 141 002a 2046     		mov	r0, r4
 142 002c 1649     		ldr	r1, .L8+24
 143 002e 174A     		ldr	r2, .L8+28
 144 0030 FFF7FEFF 		bl	chprintf
 145              		.loc 1 92 0
 146 0034 2046     		mov	r0, r4
 147 0036 1649     		ldr	r1, .L8+32
 148 0038 164A     		ldr	r2, .L8+36
 149 003a FFF7FEFF 		bl	chprintf
 150              		.loc 1 95 0
 151 003e 2046     		mov	r0, r4
 152 0040 1549     		ldr	r1, .L8+40
 153 0042 164A     		ldr	r2, .L8+44
 154 0044 FFF7FEFF 		bl	chprintf
 155              		.loc 1 98 0
 156 0048 2046     		mov	r0, r4
 157 004a 1549     		ldr	r1, .L8+48
 158 004c 154A     		ldr	r2, .L8+52
 159 004e FFF7FEFF 		bl	chprintf
 160              		.loc 1 101 0
 161 0052 2046     		mov	r0, r4
 162 0054 1449     		ldr	r1, .L8+56
 163 0056 154A     		ldr	r2, .L8+60
 164 0058 FFF7FEFF 		bl	chprintf
 165              		.loc 1 105 0
 166 005c 2046     		mov	r0, r4
ARM GAS  C:\DOCUME~1\z_80\LOCALS~1\Temp\ccoxOHei.s 			page 4


 167 005e 144C     		ldr	r4, .L8+64
 168              	.LVL15:
 169 0060 1449     		ldr	r1, .L8+68
 170 0062 154A     		ldr	r2, .L8+72
 171 0064 154B     		ldr	r3, .L8+76
 172 0066 0094     		str	r4, [sp, #0]
 173 0068 FFF7FEFF 		bl	chprintf
 174              	.LVL16:
 175              		.loc 1 108 0
 176 006c 02B0     		add	sp, sp, #8
 177 006e 10BD     		pop	{r4, pc}
 178              	.L9:
 179              		.align	2
 180              	.L8:
 181 0070 00000000 		.word	.LC0
 182 0074 1C000000 		.word	.LC3
 183 0078 24000000 		.word	.LC4
 184 007c 38000000 		.word	.LC5
 185 0080 40000000 		.word	.LC6
 186 0084 54000000 		.word	.LC7
 187 0088 60000000 		.word	.LC8
 188 008c 74000000 		.word	.LC9
 189 0090 7C000000 		.word	.LC10
 190 0094 90000000 		.word	.LC11
 191 0098 9C000000 		.word	.LC12
 192 009c B0000000 		.word	.LC13
 193 00a0 C8000000 		.word	.LC14
 194 00a4 DC000000 		.word	.LC15
 195 00a8 04010000 		.word	.LC16
 196 00ac 18010000 		.word	.LC17
 197 00b0 54010000 		.word	.LC21
 198 00b4 2C010000 		.word	.LC18
 199 00b8 44010000 		.word	.LC19
 200 00bc 50010000 		.word	.LC20
 201              		.cfi_endproc
 202              	.LFE58:
 203              		.size	cmd_info, .-cmd_info
 204              		.section	.text.list_commands,"ax",%progbits
 205              		.align	2
 206              		.p2align 4,,15
 207              		.thumb
 208              		.thumb_func
 209              		.type	list_commands, %function
 210              	list_commands:
 211              	.LFB57:
 212              		.loc 1 70 0
 213              		.cfi_startproc
 214              		@ args = 0, pretend = 0, frame = 0
 215              		@ frame_needed = 0, uses_anonymous_args = 0
 216              	.LVL17:
 217              		.loc 1 72 0
 218 0000 0A68     		ldr	r2, [r1, #0]
 219              		.loc 1 70 0
 220 0002 38B5     		push	{r3, r4, r5, lr}
 221              	.LCFI2:
 222              		.cfi_def_cfa_offset 16
 223              		.loc 1 70 0
ARM GAS  C:\DOCUME~1\z_80\LOCALS~1\Temp\ccoxOHei.s 			page 5


 224 0004 0546     		mov	r5, r0
 225              		.cfi_offset 14, -4
 226              		.cfi_offset 5, -8
 227              		.cfi_offset 4, -12
 228              		.cfi_offset 3, -16
 229              		.loc 1 72 0
 230 0006 42B1     		cbz	r2, .L10
 231 0008 0C46     		mov	r4, r1
 232              	.LVL18:
 233              	.L12:
 234              		.loc 1 73 0
 235 000a 2846     		mov	r0, r5
 236 000c 0349     		ldr	r1, .L14
 237 000e FFF7FEFF 		bl	chprintf
 238              		.loc 1 72 0
 239 0012 54F8082F 		ldr	r2, [r4, #8]!
 240 0016 002A     		cmp	r2, #0
 241 0018 F7D1     		bne	.L12
 242              	.L10:
 243 001a 38BD     		pop	{r3, r4, r5, pc}
 244              	.L15:
 245              		.align	2
 246              	.L14:
 247 001c 60010000 		.word	.LC22
 248              		.cfi_endproc
 249              	.LFE57:
 250              		.size	list_commands, .-list_commands
 251              		.section	.text.cmdexec,"ax",%progbits
 252              		.align	2
 253              		.p2align 4,,15
 254              		.thumb
 255              		.thumb_func
 256              		.type	cmdexec, %function
 257              	cmdexec:
 258              	.LFB60:
 259              		.loc 1 130 0
 260              		.cfi_startproc
 261              		@ args = 4, pretend = 0, frame = 0
 262              		@ frame_needed = 0, uses_anonymous_args = 0
 263              	.LVL19:
 264 0000 2DE9F041 		push	{r4, r5, r6, r7, r8, lr}
 265              	.LCFI3:
 266              		.cfi_def_cfa_offset 24
 267              		.loc 1 130 0
 268 0004 0546     		mov	r5, r0
 269              		.cfi_offset 14, -4
 270              		.cfi_offset 8, -8
 271              		.cfi_offset 7, -12
 272              		.cfi_offset 6, -16
 273              		.cfi_offset 5, -20
 274              		.cfi_offset 4, -24
 275              		.loc 1 132 0
 276 0006 0068     		ldr	r0, [r0, #0]
 277              	.LVL20:
 278              		.loc 1 130 0
 279 0008 0C46     		mov	r4, r1
 280 000a 1646     		mov	r6, r2
ARM GAS  C:\DOCUME~1\z_80\LOCALS~1\Temp\ccoxOHei.s 			page 6


 281 000c 9846     		mov	r8, r3
 282              		.loc 1 132 0
 283 000e A8B1     		cbz	r0, .L20
 284 0010 2F46     		mov	r7, r5
 285 0012 02E0     		b	.L19
 286              	.LVL21:
 287              	.L18:
 288 0014 57F8080F 		ldr	r0, [r7, #8]!
 289              	.LVL22:
 290 0018 68B1     		cbz	r0, .L22
 291              	.LVL23:
 292              	.L19:
 293              		.loc 1 133 0
 294 001a 3146     		mov	r1, r6
 295 001c FFF7FEFF 		bl	strcasecmp
 296 0020 0546     		mov	r5, r0
 297 0022 0028     		cmp	r0, #0
 298 0024 F6D1     		bne	.L18
 299              		.loc 1 134 0
 300 0026 2046     		mov	r0, r4
 301 0028 7E68     		ldr	r6, [r7, #4]
 302              	.LVL24:
 303 002a 4146     		mov	r1, r8
 304 002c 069A     		ldr	r2, [sp, #24]
 305 002e B047     		blx	r6
 306              		.loc 1 135 0
 307 0030 2846     		mov	r0, r5
 308 0032 BDE8F081 		pop	{r4, r5, r6, r7, r8, pc}
 309              	.LVL25:
 310              	.L22:
 311              		.loc 1 139 0
 312 0036 0120     		movs	r0, #1
 313 0038 BDE8F081 		pop	{r4, r5, r6, r7, r8, pc}
 314              	.LVL26:
 315              	.L20:
 316 003c 0120     		movs	r0, #1
 317              		.loc 1 140 0
 318 003e BDE8F081 		pop	{r4, r5, r6, r7, r8, pc}
 319              		.cfi_endproc
 320              	.LFE60:
 321              		.size	cmdexec, .-cmdexec
 322 0042 00BFAFF3 		.section	.text._strtok.clone.0,"ax",%progbits
 322      0080AFF3 
 322      0080AFF3 
 322      0080
 323              		.align	2
 324              		.p2align 4,,15
 325              		.thumb
 326              		.thumb_func
 327              		.type	_strtok.clone.0, %function
 328              	_strtok.clone.0:
 329              	.LFB66:
 330              		.loc 1 48 0
 331              		.cfi_startproc
 332              		@ args = 0, pretend = 0, frame = 0
 333              		@ frame_needed = 0, uses_anonymous_args = 0
 334              	.LVL27:
ARM GAS  C:\DOCUME~1\z_80\LOCALS~1\Temp\ccoxOHei.s 			page 7


 335 0000 38B5     		push	{r3, r4, r5, lr}
 336              	.LCFI4:
 337              		.cfi_def_cfa_offset 16
 338              		.loc 1 50 0
 339 0002 0446     		mov	r4, r0
 340              		.cfi_offset 14, -4
 341              		.cfi_offset 5, -8
 342              		.cfi_offset 4, -12
 343              		.cfi_offset 3, -16
 344              		.loc 1 48 0
 345 0004 0D46     		mov	r5, r1
 346              		.loc 1 50 0
 347 0006 A8B1     		cbz	r0, .L24
 348              		.loc 1 51 0
 349 0008 0860     		str	r0, [r1, #0]
 350              	.LVL28:
 351              	.L25:
 352              		.loc 1 57 0
 353 000a 0D49     		ldr	r1, .L29
 354              	.LVL29:
 355 000c 2046     		mov	r0, r4
 356              	.LVL30:
 357 000e FFF7FEFF 		bl	strspn
 358 0012 2418     		adds	r4, r4, r0
 359              	.LVL31:
 360              		.loc 1 58 0
 361 0014 2046     		mov	r0, r4
 362 0016 2021     		movs	r1, #32
 363 0018 FFF7FEFF 		bl	strchr
 364 001c 2860     		str	r0, [r5, #0]
 365              		.loc 1 59 0
 366 001e 18B1     		cbz	r0, .L27
 367              		.loc 1 60 0
 368 0020 0023     		movs	r3, #0
 369 0022 00F8013B 		strb	r3, [r0], #1
 370 0026 2860     		str	r0, [r5, #0]
 371              	.L27:
 372              		.loc 1 62 0
 373 0028 2078     		ldrb	r0, [r4, #0]	@ zero_extendqisi2
 374 002a 0028     		cmp	r0, #0
 375 002c 14BF     		ite	ne
 376 002e 2046     		movne	r0, r4
 377 0030 0020     		moveq	r0, #0
 378 0032 38BD     		pop	{r3, r4, r5, pc}
 379              	.LVL32:
 380              	.L24:
 381              		.loc 1 52 0
 382 0034 0C68     		ldr	r4, [r1, #0]
 383              	.LVL33:
 384              		.loc 1 54 0
 385 0036 002C     		cmp	r4, #0
 386 0038 E7D1     		bne	.L25
 387              		.loc 1 55 0
 388 003a 2046     		mov	r0, r4
 389              	.LVL34:
 390              		.loc 1 63 0
 391 003c 38BD     		pop	{r3, r4, r5, pc}
ARM GAS  C:\DOCUME~1\z_80\LOCALS~1\Temp\ccoxOHei.s 			page 8


 392              	.L30:
 393 003e 00BF     		.align	2
 394              	.L29:
 395 0040 00000000 		.word	.LANCHOR0
 396              		.cfi_endproc
 397              	.LFE66:
 398              		.size	_strtok.clone.0, .-_strtok.clone.0
 399 0044 AFF30080 		.section	.text.shellInit,"ax",%progbits
 399      AFF30080 
 399      AFF30080 
 400              		.align	2
 401              		.p2align 4,,15
 402              		.global	shellInit
 403              		.thumb
 404              		.thumb_func
 405              		.type	shellInit, %function
 406              	shellInit:
 407              	.LFB62:
 408              		.loc 1 215 0
 409              		.cfi_startproc
 410              		@ args = 0, pretend = 0, frame = 0
 411              		@ frame_needed = 0, uses_anonymous_args = 0
 412              		@ link register save eliminated.
 413              		.loc 1 217 0
 414 0000 014B     		ldr	r3, .L32
 415 0002 1B60     		str	r3, [r3, #0]
 416              		.loc 1 218 0
 417 0004 7047     		bx	lr
 418              	.L33:
 419 0006 00BF     		.align	2
 420              	.L32:
 421 0008 00000000 		.word	.LANCHOR1
 422              		.cfi_endproc
 423              	.LFE62:
 424              		.size	shellInit, .-shellInit
 425 000c AFF30080 		.section	.text.shellCreate,"ax",%progbits
 426              		.align	2
 427              		.p2align 4,,15
 428              		.global	shellCreate
 429              		.thumb
 430              		.thumb_func
 431              		.type	shellCreate, %function
 432              	shellCreate:
 433              	.LFB63:
 434              		.loc 1 231 0
 435              		.cfi_startproc
 436              		@ args = 0, pretend = 0, frame = 0
 437              		@ frame_needed = 0, uses_anonymous_args = 0
 438              	.LVL35:
 439 0000 00B5     		push	{lr}
 440              	.LCFI5:
 441              		.cfi_def_cfa_offset 4
 442 0002 83B0     		sub	sp, sp, #12
 443              	.LCFI6:
 444              		.cfi_def_cfa_offset 16
 445              		.loc 1 233 0
 446 0004 0090     		str	r0, [sp, #0]
ARM GAS  C:\DOCUME~1\z_80\LOCALS~1\Temp\ccoxOHei.s 			page 9


 447 0006 034B     		ldr	r3, .L35
 448 0008 0020     		movs	r0, #0
 449              	.LVL36:
 450              		.cfi_offset 14, -4
 451 000a FFF7FEFF 		bl	chThdCreateFromHeap
 452              	.LVL37:
 453              		.loc 1 234 0
 454 000e 03B0     		add	sp, sp, #12
 455 0010 00BD     		pop	{pc}
 456              	.L36:
 457 0012 00BF     		.align	2
 458              	.L35:
 459 0014 00000000 		.word	shell_thread
 460              		.cfi_endproc
 461              	.LFE63:
 462              		.size	shellCreate, .-shellCreate
 463 0018 AFF30080 		.section	.text.shellCreateStatic,"ax",%progbits
 463      AFF30080 
 464              		.align	2
 465              		.p2align 4,,15
 466              		.global	shellCreateStatic
 467              		.thumb
 468              		.thumb_func
 469              		.type	shellCreateStatic, %function
 470              	shellCreateStatic:
 471              	.LFB64:
 472              		.loc 1 247 0
 473              		.cfi_startproc
 474              		@ args = 0, pretend = 0, frame = 0
 475              		@ frame_needed = 0, uses_anonymous_args = 0
 476              	.LVL38:
 477 0000 00B5     		push	{lr}
 478              	.LCFI7:
 479              		.cfi_def_cfa_offset 4
 480 0002 83B0     		sub	sp, sp, #12
 481              	.LCFI8:
 482              		.cfi_def_cfa_offset 16
 483              		.loc 1 249 0
 484 0004 0090     		str	r0, [sp, #0]
 485 0006 0846     		mov	r0, r1
 486              	.LVL39:
 487 0008 1146     		mov	r1, r2
 488              	.LVL40:
 489 000a 1A46     		mov	r2, r3
 490              	.LVL41:
 491 000c 024B     		ldr	r3, .L38
 492              	.LVL42:
 493              		.cfi_offset 14, -4
 494 000e FFF7FEFF 		bl	chThdCreateStatic
 495              	.LVL43:
 496              		.loc 1 250 0
 497 0012 03B0     		add	sp, sp, #12
 498 0014 00BD     		pop	{pc}
 499              	.L39:
 500 0016 00BF     		.align	2
 501              	.L38:
 502 0018 00000000 		.word	shell_thread
ARM GAS  C:\DOCUME~1\z_80\LOCALS~1\Temp\ccoxOHei.s 			page 10


 503              		.cfi_endproc
 504              	.LFE64:
 505              		.size	shellCreateStatic, .-shellCreateStatic
 506 001c AFF30080 		.section	.text.shellGetLine,"ax",%progbits
 507              		.align	2
 508              		.p2align 4,,15
 509              		.global	shellGetLine
 510              		.thumb
 511              		.thumb_func
 512              		.type	shellGetLine, %function
 513              	shellGetLine:
 514              	.LFB65:
 515              		.loc 1 262 0
 516              		.cfi_startproc
 517              		@ args = 0, pretend = 0, frame = 0
 518              		@ frame_needed = 0, uses_anonymous_args = 0
 519              	.LVL44:
 520              	.LBB18:
 521              		.loc 1 289 0
 522 0000 013A     		subs	r2, r2, #1
 523              	.LVL45:
 524              	.LBE18:
 525              		.loc 1 262 0
 526 0002 2DE9F843 		push	{r3, r4, r5, r6, r7, r8, r9, lr}
 527              	.LCFI9:
 528              		.cfi_def_cfa_offset 32
 529              		.loc 1 262 0
 530 0006 8846     		mov	r8, r1
 531              		.cfi_offset 14, -4
 532              		.cfi_offset 9, -8
 533              		.cfi_offset 8, -12
 534              		.cfi_offset 7, -16
 535              		.cfi_offset 6, -20
 536              		.cfi_offset 5, -24
 537              		.cfi_offset 4, -28
 538              		.cfi_offset 3, -32
 539              	.LVL46:
 540 0008 0546     		mov	r5, r0
 541              		.loc 1 263 0
 542 000a 0F46     		mov	r7, r1
 543              	.LBB19:
 544              		.loc 1 289 0
 545 000c 01EB0209 		add	r9, r1, r2
 546              	.LVL47:
 547              	.L50:
 548              		.loc 1 266 0
 549 0010 2968     		ldr	r1, [r5, #0]
 550 0012 2846     		mov	r0, r5
 551 0014 4B69     		ldr	r3, [r1, #20]
 552 0016 4FF0FF31 		mov	r1, #-1
 553 001a 9847     		blx	r3
 554              		.loc 1 267 0
 555 001c 04B2     		sxth	r4, r0
 556 001e 002C     		cmp	r4, #0
 557              		.loc 1 266 0
 558 0020 0646     		mov	r6, r0	@ movhi
 559              	.LVL48:
ARM GAS  C:\DOCUME~1\z_80\LOCALS~1\Temp\ccoxOHei.s 			page 11


 560              		.loc 1 267 0
 561 0022 2CDB     		blt	.L47
 562              		.loc 1 269 0
 563 0024 042C     		cmp	r4, #4
 564 0026 2DD0     		beq	.L51
 565              		.loc 1 273 0
 566 0028 082C     		cmp	r4, #8
 567 002a 0FD0     		beq	.L52
 568              		.loc 1 282 0
 569 002c 0D2C     		cmp	r4, #13
 570 002e 30D0     		beq	.L53
 571              		.loc 1 287 0
 572 0030 1F2C     		cmp	r4, #31
 573 0032 EDDD     		ble	.L50
 574              		.loc 1 289 0
 575 0034 4F45     		cmp	r7, r9
 576 0036 EBD2     		bcs	.L50
 577              		.loc 1 290 0
 578 0038 2968     		ldr	r1, [r5, #0]
 579 003a 2846     		mov	r0, r5
 580 003c 0C69     		ldr	r4, [r1, #16]
 581 003e 4FF0FF32 		mov	r2, #-1
 582 0042 F1B2     		uxtb	r1, r6
 583 0044 A047     		blx	r4
 584              		.loc 1 291 0
 585 0046 07F8016B 		strb	r6, [r7], #1
 586              	.LVL49:
 587 004a E1E7     		b	.L50
 588              	.L52:
 589              		.loc 1 274 0
 590 004c 4745     		cmp	r7, r8
 591 004e DFD0     		beq	.L50
 592              		.loc 1 275 0
 593 0050 2B68     		ldr	r3, [r5, #0]
 594 0052 2146     		mov	r1, r4
 595 0054 1E69     		ldr	r6, [r3, #16]
 596              	.LVL50:
 597 0056 4FF0FF32 		mov	r2, #-1
 598 005a 2846     		mov	r0, r5
 599 005c B047     		blx	r6
 600              		.loc 1 276 0
 601 005e 2868     		ldr	r0, [r5, #0]
 602 0060 2021     		movs	r1, #32
 603 0062 0369     		ldr	r3, [r0, #16]
 604 0064 4FF0FF32 		mov	r2, #-1
 605 0068 2846     		mov	r0, r5
 606 006a 9847     		blx	r3
 607              		.loc 1 277 0
 608 006c 2A68     		ldr	r2, [r5, #0]
 609 006e 2846     		mov	r0, r5
 610 0070 1669     		ldr	r6, [r2, #16]
 611 0072 2146     		mov	r1, r4
 612 0074 4FF0FF32 		mov	r2, #-1
 613 0078 B047     		blx	r6
 614              		.loc 1 278 0
 615 007a 013F     		subs	r7, r7, #1
 616              	.LVL51:
ARM GAS  C:\DOCUME~1\z_80\LOCALS~1\Temp\ccoxOHei.s 			page 12


 617 007c C8E7     		b	.L50
 618              	.LVL52:
 619              	.L47:
 620              		.loc 1 268 0
 621 007e 0120     		movs	r0, #1
 622              	.LBE19:
 623              		.loc 1 294 0
 624 0080 BDE8F883 		pop	{r3, r4, r5, r6, r7, r8, r9, pc}
 625              	.L51:
 626              	.LBB20:
 627              		.loc 1 270 0
 628 0084 2846     		mov	r0, r5
 629 0086 0749     		ldr	r1, .L54
 630 0088 FFF7FEFF 		bl	chprintf
 631              		.loc 1 271 0
 632 008c 0120     		movs	r0, #1
 633 008e BDE8F883 		pop	{r3, r4, r5, r6, r7, r8, r9, pc}
 634              	.L53:
 635              		.loc 1 283 0
 636 0092 2846     		mov	r0, r5
 637 0094 0449     		ldr	r1, .L54+4
 638 0096 FFF7FEFF 		bl	chprintf
 639              		.loc 1 284 0
 640 009a 0020     		movs	r0, #0
 641 009c 3870     		strb	r0, [r7, #0]
 642              		.loc 1 285 0
 643 009e BDE8F883 		pop	{r3, r4, r5, r6, r7, r8, r9, pc}
 644              	.L55:
 645 00a2 00BF     		.align	2
 646              	.L54:
 647 00a4 64010000 		.word	.LC24
 648 00a8 68010000 		.word	.LC25
 649              	.LBE20:
 650              		.cfi_endproc
 651              	.LFE65:
 652              		.size	shellGetLine, .-shellGetLine
 653 00ac AFF30080 		.section	.text.shell_thread,"ax",%progbits
 654              		.align	2
 655              		.p2align 4,,15
 656              		.thumb
 657              		.thumb_func
 658              		.type	shell_thread, %function
 659              	shell_thread:
 660              	.LFB61:
 661              		.loc 1 150 0
 662              		.cfi_startproc
 663              		@ args = 0, pretend = 0, frame = 88
 664              		@ frame_needed = 0, uses_anonymous_args = 0
 665              	.LVL53:
 666 0000 2DE9F043 		push	{r4, r5, r6, r7, r8, r9, lr}
 667              	.LCFI10:
 668              		.cfi_def_cfa_offset 28
 669              		.loc 1 158 0
 670 0004 6549     		ldr	r1, .L78
 671              		.loc 1 153 0
 672 0006 0468     		ldr	r4, [r0, #0]
 673              		.cfi_offset 14, -4
ARM GAS  C:\DOCUME~1\z_80\LOCALS~1\Temp\ccoxOHei.s 			page 13


 674              		.cfi_offset 9, -8
 675              		.cfi_offset 8, -12
 676              		.cfi_offset 7, -16
 677              		.cfi_offset 6, -20
 678              		.cfi_offset 5, -24
 679              		.cfi_offset 4, -28
 680              	.LVL54:
 681              		.loc 1 158 0
 682 0008 CB69     		ldr	r3, [r1, #28]
 683 000a 654A     		ldr	r2, .L78+4
 684              		.loc 1 154 0
 685 000c D0F80480 		ldr	r8, [r0, #4]
 686              	.LVL55:
 687              		.loc 1 150 0
 688 0010 99B0     		sub	sp, sp, #100
 689              	.LCFI11:
 690              		.cfi_def_cfa_offset 128
 691              		.loc 1 159 0
 692 0012 2046     		mov	r0, r4
 693              	.LVL56:
 694              		.loc 1 158 0
 695 0014 9A61     		str	r2, [r3, #24]
 696              		.loc 1 159 0
 697 0016 6349     		ldr	r1, .L78+8
 698 0018 FFF7FEFF 		bl	chprintf
 699              	.LVL57:
 700              		.loc 1 177 0
 701 001c 4FF00009 		mov	r9, #0
 702              	.L76:
 703              		.loc 1 161 0
 704 0020 2046     		mov	r0, r4
 705 0022 6149     		ldr	r1, .L78+12
 706 0024 FFF7FEFF 		bl	chprintf
 707              		.loc 1 162 0
 708 0028 2046     		mov	r0, r4
 709 002a 02A9     		add	r1, sp, #8
 710 002c 4022     		movs	r2, #64
 711 002e FFF7FEFF 		bl	shellGetLine
 712 0032 0646     		mov	r6, r0
 713 0034 0028     		cmp	r0, #0
 714 0036 3BD1     		bne	.L77
 715              	.L59:
 716              		.loc 1 166 0
 717 0038 17A9     		add	r1, sp, #92
 718 003a 02A8     		add	r0, sp, #8
 719 003c FFF7FEFF 		bl	_strtok.clone.0
 720              		.loc 1 169 0
 721 0040 17A9     		add	r1, sp, #92
 722              		.loc 1 166 0
 723 0042 0546     		mov	r5, r0
 724              	.LVL58:
 725              		.loc 1 169 0
 726 0044 3046     		mov	r0, r6
 727              	.LVL59:
 728 0046 FFF7FEFF 		bl	_strtok.clone.0
 729              	.LVL60:
 730 004a 0346     		mov	r3, r0
ARM GAS  C:\DOCUME~1\z_80\LOCALS~1\Temp\ccoxOHei.s 			page 14


 731 004c 0028     		cmp	r0, #0
 732 004e 42D0     		beq	.L69
 733 0050 3046     		mov	r0, r6
 734              	.LVL61:
 735 0052 17A9     		add	r1, sp, #92
 736              		.loc 1 175 0
 737 0054 1293     		str	r3, [sp, #72]
 738              	.LVL62:
 739              		.loc 1 169 0
 740 0056 FFF7FEFF 		bl	_strtok.clone.0
 741              	.LVL63:
 742 005a 0346     		mov	r3, r0
 743 005c 0028     		cmp	r0, #0
 744 005e 5DD0     		beq	.L70
 745 0060 3046     		mov	r0, r6
 746              	.LVL64:
 747 0062 17A9     		add	r1, sp, #92
 748              		.loc 1 175 0
 749 0064 1393     		str	r3, [sp, #76]
 750              	.LVL65:
 751              		.loc 1 169 0
 752 0066 FFF7FEFF 		bl	_strtok.clone.0
 753              	.LVL66:
 754 006a 0346     		mov	r3, r0
 755 006c 0028     		cmp	r0, #0
 756 006e 57D0     		beq	.L71
 757 0070 3046     		mov	r0, r6
 758              	.LVL67:
 759 0072 17A9     		add	r1, sp, #92
 760              		.loc 1 175 0
 761 0074 1493     		str	r3, [sp, #80]
 762              	.LVL68:
 763              		.loc 1 169 0
 764 0076 FFF7FEFF 		bl	_strtok.clone.0
 765              	.LVL69:
 766 007a 0346     		mov	r3, r0
 767 007c 0028     		cmp	r0, #0
 768 007e 51D0     		beq	.L72
 769 0080 3046     		mov	r0, r6
 770              	.LVL70:
 771 0082 17A9     		add	r1, sp, #92
 772              		.loc 1 175 0
 773 0084 1593     		str	r3, [sp, #84]
 774              	.LVL71:
 775              		.loc 1 169 0
 776 0086 FFF7FEFF 		bl	_strtok.clone.0
 777              	.LVL72:
 778 008a 0028     		cmp	r0, #0
 779 008c 4CD0     		beq	.L73
 780              		.loc 1 171 0
 781 008e 2046     		mov	r0, r4
 782              	.LVL73:
 783 0090 4649     		ldr	r1, .L78+16
 784 0092 FFF7FEFF 		bl	chprintf
 785              	.LVL74:
 786              		.loc 1 161 0
 787 0096 2046     		mov	r0, r4
ARM GAS  C:\DOCUME~1\z_80\LOCALS~1\Temp\ccoxOHei.s 			page 15


 788 0098 4349     		ldr	r1, .L78+12
 789              		.loc 1 177 0
 790 009a 1696     		str	r6, [sp, #88]
 791              		.loc 1 161 0
 792 009c FFF7FEFF 		bl	chprintf
 793              		.loc 1 162 0
 794 00a0 2046     		mov	r0, r4
 795 00a2 02A9     		add	r1, sp, #8
 796 00a4 4022     		movs	r2, #64
 797 00a6 FFF7FEFF 		bl	shellGetLine
 798 00aa 0646     		mov	r6, r0
 799 00ac 0028     		cmp	r0, #0
 800 00ae C3D0     		beq	.L59
 801              	.LVL75:
 802              	.L77:
 803              		.loc 1 163 0
 804 00b0 2046     		mov	r0, r4
 805 00b2 3F49     		ldr	r1, .L78+20
 806 00b4 FFF7FEFF 		bl	chprintf
 807              	.L60:
 808              		.loc 1 206 0
 809              	@ 206 "../chibios_2.4.x/os/various/shell.c" 1
 810 00b8 FFF7FEFF 		bl      _port_lock
 811              	@ 0 "" 2
 812              		.thumb
 813 00bc FFF7FEFF 		bl	dbg_check_lock
 814              		.loc 1 207 0
 815 00c0 0021     		movs	r1, #0
 816 00c2 3C48     		ldr	r0, .L78+24
 817 00c4 FFF7FEFF 		bl	chEvtBroadcastFlagsI
 818              		.loc 1 208 0
 819 00c8 0020     		movs	r0, #0
 820 00ca FFF7FEFF 		bl	chThdExitS
 821              		.loc 1 210 0
 822 00ce 0020     		movs	r0, #0
 823 00d0 19B0     		add	sp, sp, #100
 824 00d2 BDE8F083 		pop	{r4, r5, r6, r7, r8, r9, pc}
 825              	.LVL76:
 826              	.L69:
 827              		.loc 1 168 0
 828 00d6 0646     		mov	r6, r0
 829              	.LVL77:
 830              	.L61:
 831              		.loc 1 177 0
 832 00d8 0DF1600C 		add	ip, sp, #96
 833 00dc 0CEB8600 		add	r0, ip, r6, lsl #2
 834              	.LVL78:
 835 00e0 40F8189C 		str	r9, [r0, #-24]
 836              		.loc 1 178 0
 837 00e4 002D     		cmp	r5, #0
 838 00e6 9BD0     		beq	.L76
 839              		.loc 1 179 0
 840 00e8 2846     		mov	r0, r5
 841 00ea 3349     		ldr	r1, .L78+28
 842 00ec FFF7FEFF 		bl	strcasecmp
 843 00f0 38B9     		cbnz	r0, .L63
 844              		.loc 1 180 0
ARM GAS  C:\DOCUME~1\z_80\LOCALS~1\Temp\ccoxOHei.s 			page 16


 845 00f2 002E     		cmp	r6, #0
 846 00f4 E0D0     		beq	.L60
 847              	.LVL79:
 848              	.LBB21:
 849              	.LBB22:
 850              		.loc 1 67 0
 851 00f6 2046     		mov	r0, r4
 852 00f8 3049     		ldr	r1, .L78+32
 853 00fa 2F4A     		ldr	r2, .L78+28
 854 00fc FFF7FEFF 		bl	chprintf
 855              	.LBE22:
 856              	.LBE21:
 857              		.loc 1 182 0
 858 0100 8EE7     		b	.L76
 859              	.LVL80:
 860              	.L63:
 861              		.loc 1 186 0
 862 0102 2846     		mov	r0, r5
 863 0104 2E49     		ldr	r1, .L78+36
 864 0106 FFF7FEFF 		bl	strcasecmp
 865 010a 78B9     		cbnz	r0, .L65
 866              		.loc 1 187 0
 867 010c 002E     		cmp	r6, #0
 868 010e 30D0     		beq	.L66
 869              	.LVL81:
 870              	.LBB23:
 871              	.LBB24:
 872              		.loc 1 67 0
 873 0110 2046     		mov	r0, r4
 874 0112 2A49     		ldr	r1, .L78+32
 875 0114 2A4A     		ldr	r2, .L78+36
 876 0116 FFF7FEFF 		bl	chprintf
 877              	.LBE24:
 878              	.LBE23:
 879              		.loc 1 189 0
 880 011a 81E7     		b	.L76
 881              	.LVL82:
 882              	.L70:
 883              		.loc 1 175 0
 884 011c 0126     		movs	r6, #1
 885 011e DBE7     		b	.L61
 886              	.LVL83:
 887              	.L71:
 888 0120 0226     		movs	r6, #2
 889 0122 D9E7     		b	.L61
 890              	.LVL84:
 891              	.L72:
 892 0124 0326     		movs	r6, #3
 893 0126 D7E7     		b	.L61
 894              	.LVL85:
 895              	.L73:
 896              		.loc 1 169 0
 897 0128 0426     		movs	r6, #4
 898 012a D5E7     		b	.L61
 899              	.LVL86:
 900              	.L65:
 901              		.loc 1 197 0
ARM GAS  C:\DOCUME~1\z_80\LOCALS~1\Temp\ccoxOHei.s 			page 17


 902 012c 12AF     		add	r7, sp, #72
 903 012e 2548     		ldr	r0, .L78+40
 904 0130 2146     		mov	r1, r4
 905 0132 2A46     		mov	r2, r5
 906 0134 3346     		mov	r3, r6
 907 0136 0097     		str	r7, [sp, #0]
 908 0138 FFF7FEFF 		bl	cmdexec
 909 013c 0028     		cmp	r0, #0
 910 013e 3FF46FAF 		beq	.L76
 911              		.loc 1 197 0 is_stmt 0 discriminator 1
 912 0142 B8F1000F 		cmp	r8, #0
 913 0146 0AD0     		beq	.L68
 914              		.loc 1 198 0 is_stmt 1
 915 0148 3346     		mov	r3, r6
 916 014a 4046     		mov	r0, r8
 917 014c 12AE     		add	r6, sp, #72
 918 014e 2146     		mov	r1, r4
 919 0150 2A46     		mov	r2, r5
 920 0152 0096     		str	r6, [sp, #0]
 921 0154 FFF7FEFF 		bl	cmdexec
 922 0158 0028     		cmp	r0, #0
 923 015a 3FF461AF 		beq	.L76
 924              	.L68:
 925              		.loc 1 199 0
 926 015e 2046     		mov	r0, r4
 927 0160 1949     		ldr	r1, .L78+44
 928 0162 2A46     		mov	r2, r5
 929 0164 FFF7FEFF 		bl	chprintf
 930              		.loc 1 200 0
 931 0168 2046     		mov	r0, r4
 932 016a 1849     		ldr	r1, .L78+48
 933 016c FFF7FEFF 		bl	chprintf
 934 0170 56E7     		b	.L76
 935              	.L66:
 936              		.loc 1 191 0
 937 0172 1749     		ldr	r1, .L78+52
 938 0174 2046     		mov	r0, r4
 939 0176 FFF7FEFF 		bl	chprintf
 940              		.loc 1 192 0
 941 017a 2046     		mov	r0, r4
 942 017c 1149     		ldr	r1, .L78+40
 943 017e FFF7FEFF 		bl	list_commands
 944              		.loc 1 193 0
 945 0182 B8F1000F 		cmp	r8, #0
 946 0186 03D0     		beq	.L67
 947              		.loc 1 194 0
 948 0188 2046     		mov	r0, r4
 949 018a 4146     		mov	r1, r8
 950 018c FFF7FEFF 		bl	list_commands
 951              	.L67:
 952              		.loc 1 195 0
 953 0190 2046     		mov	r0, r4
 954 0192 1049     		ldr	r1, .L78+56
 955 0194 FFF7FEFF 		bl	chprintf
 956 0198 42E7     		b	.L76
 957              	.L79:
 958 019a 00BF     		.align	2
ARM GAS  C:\DOCUME~1\z_80\LOCALS~1\Temp\ccoxOHei.s 			page 18


 959              	.L78:
 960 019c 00000000 		.word	rlist
 961 01a0 6C010000 		.word	.LC26
 962 01a4 74010000 		.word	.LC27
 963 01a8 8C010000 		.word	.LC28
 964 01ac A0010000 		.word	.LC30
 965 01b0 94010000 		.word	.LC29
 966 01b4 00000000 		.word	.LANCHOR1
 967 01b8 B8010000 		.word	.LC31
 968 01bc 00000000 		.word	.LC0
 969 01c0 C0010000 		.word	.LC32
 970 01c4 00000000 		.word	.LANCHOR2
 971 01c8 E0010000 		.word	.LC34
 972 01cc E4010000 		.word	.LC35
 973 01d0 C8010000 		.word	.LC33
 974 01d4 68010000 		.word	.LC25
 975              		.cfi_endproc
 976              	.LFE61:
 977              		.size	shell_thread, .-shell_thread
 978              		.global	shell_terminated
 979 01d8 AFF30080 		.section	.rodata
 979      AFF30080 
 980              		.align	2
 981              		.set	.LANCHOR0,. + 0
 982              	.LC23:
 983 0000 20003900 		.ascii	" \0009\000"
 984              		.section	.data.local_commands,"aw",%progbits
 985              		.align	2
 986              		.set	.LANCHOR2,. + 0
 987              		.type	local_commands, %object
 988              		.size	local_commands, 24
 989              	local_commands:
 990 0000 1C000000 		.word	.LC3
 991 0004 00000000 		.word	cmd_info
 992 0008 0C000000 		.word	.LC1
 993 000c 00000000 		.word	cmd_systime
 994 0010 00000000 		.word	0
 995 0014 00000000 		.word	0
 996              		.section	.rodata.str1.4,"aMS",%progbits,1
 997              		.align	2
 998              	.LC0:
 999 0000 55736167 		.ascii	"Usage: %s\015\012\000"
 999      653A2025 
 999      730D0A00 
 1000              	.LC1:
 1001 000c 73797374 		.ascii	"systime\000"
 1001      696D6500 
 1002              	.LC2:
 1003 0014 256C750D 		.ascii	"%lu\015\012\000"
 1003      0A00
 1004 001a 0000     		.space	2
 1005              	.LC3:
 1006 001c 696E666F 		.ascii	"info\000"
 1006      00
 1007 0021 000000   		.space	3
 1008              	.LC4:
 1009 0024 4B65726E 		.ascii	"Kernel:       %s\015\012\000"
ARM GAS  C:\DOCUME~1\z_80\LOCALS~1\Temp\ccoxOHei.s 			page 19


 1009      656C3A20 
 1009      20202020 
 1009      20202573 
 1009      0D0A00
 1010 0037 00       		.space	1
 1011              	.LC5:
 1012 0038 322E342E 		.ascii	"2.4.3\000"
 1012      3300
 1013 003e 0000     		.space	2
 1014              	.LC6:
 1015 0040 436F6D70 		.ascii	"Compiler:     %s\015\012\000"
 1015      696C6572 
 1015      3A202020 
 1015      20202573 
 1015      0D0A00
 1016 0053 00       		.space	1
 1017              	.LC7:
 1018 0054 47434320 		.ascii	"GCC 4.5.2\000"
 1018      342E352E 
 1018      3200
 1019 005e 0000     		.space	2
 1020              	.LC8:
 1021 0060 41726368 		.ascii	"Architecture: %s\015\012\000"
 1021      69746563 
 1021      74757265 
 1021      3A202573 
 1021      0D0A00
 1022 0073 00       		.space	1
 1023              	.LC9:
 1024 0074 41524D76 		.ascii	"ARMv7-M\000"
 1024      372D4D00 
 1025              	.LC10:
 1026 007c 436F7265 		.ascii	"Core Variant: %s\015\012\000"
 1026      20566172 
 1026      69616E74 
 1026      3A202573 
 1026      0D0A00
 1027 008f 00       		.space	1
 1028              	.LC11:
 1029 0090 436F7274 		.ascii	"Cortex-M3\000"
 1029      65782D4D 
 1029      3300
 1030 009a 0000     		.space	2
 1031              	.LC12:
 1032 009c 506F7274 		.ascii	"Port Info:    %s\015\012\000"
 1032      20496E66 
 1032      6F3A2020 
 1032      20202573 
 1032      0D0A00
 1033 00af 00       		.space	1
 1034              	.LC13:
 1035 00b0 41647661 		.ascii	"Advanced kernel mode\000"
 1035      6E636564 
 1035      206B6572 
 1035      6E656C20 
 1035      6D6F6465 
 1036 00c5 000000   		.space	3
ARM GAS  C:\DOCUME~1\z_80\LOCALS~1\Temp\ccoxOHei.s 			page 20


 1037              	.LC14:
 1038 00c8 506C6174 		.ascii	"Platform:     %s\015\012\000"
 1038      666F726D 
 1038      3A202020 
 1038      20202573 
 1038      0D0A00
 1039 00db 00       		.space	1
 1040              	.LC15:
 1041 00dc 53544D33 		.ascii	"STM32F1 Performance Line Medium Density\000"
 1041      32463120 
 1041      50657266 
 1041      6F726D61 
 1041      6E636520 
 1042              	.LC16:
 1043 0104 426F6172 		.ascii	"Board:        %s\015\012\000"
 1043      643A2020 
 1043      20202020 
 1043      20202573 
 1043      0D0A00
 1044 0117 00       		.space	1
 1045              	.LC17:
 1046 0118 4F6C696D 		.ascii	"Olimex STM32-P103\000"
 1046      65782053 
 1046      544D3332 
 1046      2D503130 
 1046      3300
 1047 012a 0000     		.space	2
 1048              	.LC18:
 1049 012c 4275696C 		.ascii	"Build time:   %s%s%s\015\012\000"
 1049      64207469 
 1049      6D653A20 
 1049      20202573 
 1049      25732573 
 1050 0143 00       		.space	1
 1051              	.LC19:
 1052 0144 4F637420 		.ascii	"Oct 31 2012\000"
 1052      33312032 
 1052      30313200 
 1053              	.LC20:
 1054 0150 202D2000 		.ascii	" - \000"
 1055              	.LC21:
 1056 0154 31313A32 		.ascii	"11:29:04\000"
 1056      393A3034 
 1056      00
 1057 015d 000000   		.space	3
 1058              	.LC22:
 1059 0160 25732000 		.ascii	"%s \000"
 1060              	.LC24:
 1061 0164 5E4400   		.ascii	"^D\000"
 1062 0167 00       		.space	1
 1063              	.LC25:
 1064 0168 0D0A00   		.ascii	"\015\012\000"
 1065 016b 00       		.space	1
 1066              	.LC26:
 1067 016c 7368656C 		.ascii	"shell\000"
 1067      6C00
 1068 0172 0000     		.space	2
ARM GAS  C:\DOCUME~1\z_80\LOCALS~1\Temp\ccoxOHei.s 			page 21


 1069              	.LC27:
 1070 0174 0D0A4368 		.ascii	"\015\012ChibiOS/RT Shell\015\012\000"
 1070      6962694F 
 1070      532F5254 
 1070      20536865 
 1070      6C6C0D0A 
 1071 0189 000000   		.space	3
 1072              	.LC28:
 1073 018c 63683E20 		.ascii	"ch> \000"
 1073      00
 1074 0191 000000   		.space	3
 1075              	.LC29:
 1076 0194 0D0A6C6F 		.ascii	"\015\012logout\000"
 1076      676F7574 
 1076      00
 1077 019d 000000   		.space	3
 1078              	.LC30:
 1079 01a0 746F6F20 		.ascii	"too many arguments\015\012\000"
 1079      6D616E79 
 1079      20617267 
 1079      756D656E 
 1079      74730D0A 
 1080 01b5 000000   		.space	3
 1081              	.LC31:
 1082 01b8 65786974 		.ascii	"exit\000"
 1082      00
 1083 01bd 000000   		.space	3
 1084              	.LC32:
 1085 01c0 68656C70 		.ascii	"help\000"
 1085      00
 1086 01c5 000000   		.space	3
 1087              	.LC33:
 1088 01c8 436F6D6D 		.ascii	"Commands: help exit \000"
 1088      616E6473 
 1088      3A206865 
 1088      6C702065 
 1088      78697420 
 1089 01dd 000000   		.space	3
 1090              	.LC34:
 1091 01e0 257300   		.ascii	"%s\000"
 1092 01e3 00       		.space	1
 1093              	.LC35:
 1094 01e4 203F0D0A 		.ascii	" ?\015\012\000"
 1094      00
 1095 01e9 000000   		.section	.bss.shell_terminated,"aw",%nobits
 1096              		.align	2
 1097              		.set	.LANCHOR1,. + 0
 1098              		.type	shell_terminated, %object
 1099              		.size	shell_terminated, 4
 1100              	shell_terminated:
 1101 0000 00000000 		.space	4
 1102              		.text
 1103              	.Letext0: