ARM GAS  /tmp/ccG12VGG.s 			page 1


   1              		.syntax unified
   2              		.cpu cortex-m3
   3              		.fpu softvfp
   4              		.eabi_attribute 20, 1
   5              		.eabi_attribute 21, 1
   6              		.eabi_attribute 23, 3
   7              		.eabi_attribute 24, 1
   8              		.eabi_attribute 25, 1
   9              		.eabi_attribute 26, 1
  10              		.eabi_attribute 30, 2
  11              		.eabi_attribute 18, 4
  12              		.thumb
  13              		.file	"stm32_dma.c"
  20 0000 A4020000 		.text
  20      02005F01 
  20      00000201 
  20      FB0E0D00 
  20      01010101 
  21              	.Ltext0:
  22              		.cfi_sections	.debug_frame
  23              		.section	.text.Vector6C,"ax",%progbits
  24              		.align	2
  25              		.p2align 4,,15
  26              		.global	Vector6C
  27              		.thumb
  28              		.thumb_func
  29              		.type	Vector6C, %function
  30              	Vector6C:
  31              	.LFB55:
  32              		.file 1 "../chibios_2.4.x/os/hal/platforms/STM32F1xx/stm32_dma.c"
  33              		.loc 1 137 0
  34              		.cfi_startproc
  35              		@ args = 0, pretend = 0, frame = 0
  36              		@ frame_needed = 0, uses_anonymous_args = 0
  37 0000 10B5     		push	{r4, lr}
  38              	.LCFI0:
  39              		.cfi_def_cfa_offset 8
  40              		.loc 1 140 0
  41              		.cfi_offset 14, -4
  42              		.cfi_offset 4, -8
  43 0002 FFF7FEFF 		bl	dbg_check_enter_isr
  44              		.loc 1 144 0
  45 0006 0848     		ldr	r0, .L4
  46              		.loc 1 142 0
  47 0008 084A     		ldr	r2, .L4+4
  48              		.loc 1 144 0
  49 000a 0368     		ldr	r3, [r0, #0]
  50              		.loc 1 143 0
  51 000c 0F24     		movs	r4, #15
  52              		.loc 1 142 0
  53 000e 1168     		ldr	r1, [r2, #0]
ARM GAS  /tmp/ccG12VGG.s 			page 2


  54              	.LVL0:
  55              		.loc 1 143 0
  56 0010 5460     		str	r4, [r2, #4]
  57              		.loc 1 144 0
  58 0012 13B1     		cbz	r3, .L2
  59              		.loc 1 145 0
  60 0014 4068     		ldr	r0, [r0, #4]
  61 0016 2140     		ands	r1, r1, r4
  62              	.LVL1:
  63 0018 9847     		blx	r3
  64              	.LVL2:
  65              	.L2:
  66              		.loc 1 147 0
  67 001a FFF7FEFF 		bl	dbg_check_leave_isr
  68              		.loc 1 148 0
  69 001e BDE81040 		pop	{r4, lr}
  70              		.loc 1 147 0
  71 0022 FFF7FEBF 		b	_port_irq_epilogue
  72              	.L5:
  73 0026 00BF     		.align	2
  74              	.L4:
  75 0028 00000000 		.word	.LANCHOR0
  76 002c 00000240 		.word	1073872896
  77              		.cfi_endproc
  78              	.LFE55:
  79              		.size	Vector6C, .-Vector6C
  80              		.section	.text.Vector70,"ax",%progbits
  81              		.align	2
  82              		.p2align 4,,15
  83              		.global	Vector70
  84              		.thumb
  85              		.thumb_func
  86              		.type	Vector70, %function
  87              	Vector70:
  88              	.LFB56:
  89              		.loc 1 155 0
  90              		.cfi_startproc
  91              		@ args = 0, pretend = 0, frame = 0
  92              		@ frame_needed = 0, uses_anonymous_args = 0
  93 0000 10B5     		push	{r4, lr}
  94              	.LCFI1:
  95              		.cfi_def_cfa_offset 8
  96              		.loc 1 158 0
  97              		.cfi_offset 14, -4
  98              		.cfi_offset 4, -8
  99 0002 FFF7FEFF 		bl	dbg_check_enter_isr
 100              		.loc 1 162 0
 101 0006 0848     		ldr	r0, .L8
 102              		.loc 1 160 0
 103 0008 084A     		ldr	r2, .L8+4
 104              		.loc 1 162 0
 105 000a 8368     		ldr	r3, [r0, #8]
 106              		.loc 1 161 0
 107 000c F024     		movs	r4, #240
 108              		.loc 1 160 0
 109 000e 1168     		ldr	r1, [r2, #0]
 110              	.LVL3:
ARM GAS  /tmp/ccG12VGG.s 			page 3


 111              		.loc 1 161 0
 112 0010 5460     		str	r4, [r2, #4]
 113              		.loc 1 162 0
 114 0012 1BB1     		cbz	r3, .L7
 115              		.loc 1 163 0
 116 0014 C068     		ldr	r0, [r0, #12]
 117 0016 C1F30311 		ubfx	r1, r1, #4, #4
 118              	.LVL4:
 119 001a 9847     		blx	r3
 120              	.L7:
 121              		.loc 1 165 0
 122 001c FFF7FEFF 		bl	dbg_check_leave_isr
 123              		.loc 1 166 0
 124 0020 BDE81040 		pop	{r4, lr}
 125              		.loc 1 165 0
 126 0024 FFF7FEBF 		b	_port_irq_epilogue
 127              	.L9:
 128              		.align	2
 129              	.L8:
 130 0028 00000000 		.word	.LANCHOR0
 131 002c 00000240 		.word	1073872896
 132              		.cfi_endproc
 133              	.LFE56:
 134              		.size	Vector70, .-Vector70
 135              		.section	.text.Vector74,"ax",%progbits
 136              		.align	2
 137              		.p2align 4,,15
 138              		.global	Vector74
 139              		.thumb
 140              		.thumb_func
 141              		.type	Vector74, %function
 142              	Vector74:
 143              	.LFB57:
 144              		.loc 1 173 0
 145              		.cfi_startproc
 146              		@ args = 0, pretend = 0, frame = 0
 147              		@ frame_needed = 0, uses_anonymous_args = 0
 148 0000 10B5     		push	{r4, lr}
 149              	.LCFI2:
 150              		.cfi_def_cfa_offset 8
 151              		.loc 1 176 0
 152              		.cfi_offset 14, -4
 153              		.cfi_offset 4, -8
 154 0002 FFF7FEFF 		bl	dbg_check_enter_isr
 155              		.loc 1 180 0
 156 0006 0948     		ldr	r0, .L12
 157              		.loc 1 178 0
 158 0008 094A     		ldr	r2, .L12+4
 159              		.loc 1 180 0
 160 000a 0369     		ldr	r3, [r0, #16]
 161              		.loc 1 179 0
 162 000c 4FF47064 		mov	r4, #3840
 163              		.loc 1 178 0
 164 0010 1168     		ldr	r1, [r2, #0]
 165              	.LVL5:
 166              		.loc 1 179 0
 167 0012 5460     		str	r4, [r2, #4]
ARM GAS  /tmp/ccG12VGG.s 			page 4


 168              		.loc 1 180 0
 169 0014 1BB1     		cbz	r3, .L11
 170              		.loc 1 181 0
 171 0016 4069     		ldr	r0, [r0, #20]
 172 0018 C1F30321 		ubfx	r1, r1, #8, #4
 173              	.LVL6:
 174 001c 9847     		blx	r3
 175              	.L11:
 176              		.loc 1 183 0
 177 001e FFF7FEFF 		bl	dbg_check_leave_isr
 178              		.loc 1 184 0
 179 0022 BDE81040 		pop	{r4, lr}
 180              		.loc 1 183 0
 181 0026 FFF7FEBF 		b	_port_irq_epilogue
 182              	.L13:
 183 002a 00BF     		.align	2
 184              	.L12:
 185 002c 00000000 		.word	.LANCHOR0
 186 0030 00000240 		.word	1073872896
 187              		.cfi_endproc
 188              	.LFE57:
 189              		.size	Vector74, .-Vector74
 190 0034 AFF30080 		.section	.text.Vector78,"ax",%progbits
 190      AFF30080 
 190      AFF30080 
 191              		.align	2
 192              		.p2align 4,,15
 193              		.global	Vector78
 194              		.thumb
 195              		.thumb_func
 196              		.type	Vector78, %function
 197              	Vector78:
 198              	.LFB58:
 199              		.loc 1 191 0
 200              		.cfi_startproc
 201              		@ args = 0, pretend = 0, frame = 0
 202              		@ frame_needed = 0, uses_anonymous_args = 0
 203 0000 10B5     		push	{r4, lr}
 204              	.LCFI3:
 205              		.cfi_def_cfa_offset 8
 206              		.loc 1 194 0
 207              		.cfi_offset 14, -4
 208              		.cfi_offset 4, -8
 209 0002 FFF7FEFF 		bl	dbg_check_enter_isr
 210              		.loc 1 198 0
 211 0006 0948     		ldr	r0, .L16
 212              		.loc 1 196 0
 213 0008 094A     		ldr	r2, .L16+4
 214              		.loc 1 198 0
 215 000a 8369     		ldr	r3, [r0, #24]
 216              		.loc 1 197 0
 217 000c 4FF47044 		mov	r4, #61440
 218              		.loc 1 196 0
 219 0010 1168     		ldr	r1, [r2, #0]
 220              	.LVL7:
 221              		.loc 1 197 0
 222 0012 5460     		str	r4, [r2, #4]
ARM GAS  /tmp/ccG12VGG.s 			page 5


 223              		.loc 1 198 0
 224 0014 1BB1     		cbz	r3, .L15
 225              		.loc 1 199 0
 226 0016 C069     		ldr	r0, [r0, #28]
 227 0018 C1F30331 		ubfx	r1, r1, #12, #4
 228              	.LVL8:
 229 001c 9847     		blx	r3
 230              	.L15:
 231              		.loc 1 201 0
 232 001e FFF7FEFF 		bl	dbg_check_leave_isr
 233              		.loc 1 202 0
 234 0022 BDE81040 		pop	{r4, lr}
 235              		.loc 1 201 0
 236 0026 FFF7FEBF 		b	_port_irq_epilogue
 237              	.L17:
 238 002a 00BF     		.align	2
 239              	.L16:
 240 002c 00000000 		.word	.LANCHOR0
 241 0030 00000240 		.word	1073872896
 242              		.cfi_endproc
 243              	.LFE58:
 244              		.size	Vector78, .-Vector78
 245 0034 AFF30080 		.section	.text.Vector7C,"ax",%progbits
 245      AFF30080 
 245      AFF30080 
 246              		.align	2
 247              		.p2align 4,,15
 248              		.global	Vector7C
 249              		.thumb
 250              		.thumb_func
 251              		.type	Vector7C, %function
 252              	Vector7C:
 253              	.LFB59:
 254              		.loc 1 209 0
 255              		.cfi_startproc
 256              		@ args = 0, pretend = 0, frame = 0
 257              		@ frame_needed = 0, uses_anonymous_args = 0
 258 0000 10B5     		push	{r4, lr}
 259              	.LCFI4:
 260              		.cfi_def_cfa_offset 8
 261              		.loc 1 212 0
 262              		.cfi_offset 14, -4
 263              		.cfi_offset 4, -8
 264 0002 FFF7FEFF 		bl	dbg_check_enter_isr
 265              		.loc 1 216 0
 266 0006 0948     		ldr	r0, .L20
 267              		.loc 1 214 0
 268 0008 094A     		ldr	r2, .L20+4
 269              		.loc 1 216 0
 270 000a 036A     		ldr	r3, [r0, #32]
 271              		.loc 1 215 0
 272 000c 4FF47024 		mov	r4, #983040
 273              		.loc 1 214 0
 274 0010 1168     		ldr	r1, [r2, #0]
 275              	.LVL9:
 276              		.loc 1 215 0
 277 0012 5460     		str	r4, [r2, #4]
ARM GAS  /tmp/ccG12VGG.s 			page 6


 278              		.loc 1 216 0
 279 0014 1BB1     		cbz	r3, .L19
 280              		.loc 1 217 0
 281 0016 406A     		ldr	r0, [r0, #36]
 282 0018 C1F30341 		ubfx	r1, r1, #16, #4
 283              	.LVL10:
 284 001c 9847     		blx	r3
 285              	.L19:
 286              		.loc 1 219 0
 287 001e FFF7FEFF 		bl	dbg_check_leave_isr
 288              		.loc 1 220 0
 289 0022 BDE81040 		pop	{r4, lr}
 290              		.loc 1 219 0
 291 0026 FFF7FEBF 		b	_port_irq_epilogue
 292              	.L21:
 293 002a 00BF     		.align	2
 294              	.L20:
 295 002c 00000000 		.word	.LANCHOR0
 296 0030 00000240 		.word	1073872896
 297              		.cfi_endproc
 298              	.LFE59:
 299              		.size	Vector7C, .-Vector7C
 300 0034 AFF30080 		.section	.text.Vector80,"ax",%progbits
 300      AFF30080 
 300      AFF30080 
 301              		.align	2
 302              		.p2align 4,,15
 303              		.global	Vector80
 304              		.thumb
 305              		.thumb_func
 306              		.type	Vector80, %function
 307              	Vector80:
 308              	.LFB60:
 309              		.loc 1 227 0
 310              		.cfi_startproc
 311              		@ args = 0, pretend = 0, frame = 0
 312              		@ frame_needed = 0, uses_anonymous_args = 0
 313 0000 10B5     		push	{r4, lr}
 314              	.LCFI5:
 315              		.cfi_def_cfa_offset 8
 316              		.loc 1 230 0
 317              		.cfi_offset 14, -4
 318              		.cfi_offset 4, -8
 319 0002 FFF7FEFF 		bl	dbg_check_enter_isr
 320              		.loc 1 234 0
 321 0006 0948     		ldr	r0, .L24
 322              		.loc 1 232 0
 323 0008 094A     		ldr	r2, .L24+4
 324              		.loc 1 234 0
 325 000a 836A     		ldr	r3, [r0, #40]
 326              		.loc 1 233 0
 327 000c 4FF47004 		mov	r4, #15728640
 328              		.loc 1 232 0
 329 0010 1168     		ldr	r1, [r2, #0]
 330              	.LVL11:
 331              		.loc 1 233 0
 332 0012 5460     		str	r4, [r2, #4]
ARM GAS  /tmp/ccG12VGG.s 			page 7


 333              		.loc 1 234 0
 334 0014 1BB1     		cbz	r3, .L23
 335              		.loc 1 235 0
 336 0016 C06A     		ldr	r0, [r0, #44]
 337 0018 C1F30351 		ubfx	r1, r1, #20, #4
 338              	.LVL12:
 339 001c 9847     		blx	r3
 340              	.L23:
 341              		.loc 1 237 0
 342 001e FFF7FEFF 		bl	dbg_check_leave_isr
 343              		.loc 1 238 0
 344 0022 BDE81040 		pop	{r4, lr}
 345              		.loc 1 237 0
 346 0026 FFF7FEBF 		b	_port_irq_epilogue
 347              	.L25:
 348 002a 00BF     		.align	2
 349              	.L24:
 350 002c 00000000 		.word	.LANCHOR0
 351 0030 00000240 		.word	1073872896
 352              		.cfi_endproc
 353              	.LFE60:
 354              		.size	Vector80, .-Vector80
 355 0034 AFF30080 		.section	.text.Vector84,"ax",%progbits
 355      AFF30080 
 355      AFF30080 
 356              		.align	2
 357              		.p2align 4,,15
 358              		.global	Vector84
 359              		.thumb
 360              		.thumb_func
 361              		.type	Vector84, %function
 362              	Vector84:
 363              	.LFB61:
 364              		.loc 1 245 0
 365              		.cfi_startproc
 366              		@ args = 0, pretend = 0, frame = 0
 367              		@ frame_needed = 0, uses_anonymous_args = 0
 368 0000 10B5     		push	{r4, lr}
 369              	.LCFI6:
 370              		.cfi_def_cfa_offset 8
 371              		.loc 1 248 0
 372              		.cfi_offset 14, -4
 373              		.cfi_offset 4, -8
 374 0002 FFF7FEFF 		bl	dbg_check_enter_isr
 375              		.loc 1 252 0
 376 0006 0948     		ldr	r0, .L28
 377              		.loc 1 250 0
 378 0008 094A     		ldr	r2, .L28+4
 379              		.loc 1 252 0
 380 000a 036B     		ldr	r3, [r0, #48]
 381              		.loc 1 251 0
 382 000c 4FF07064 		mov	r4, #251658240
 383              		.loc 1 250 0
 384 0010 1168     		ldr	r1, [r2, #0]
 385              	.LVL13:
 386              		.loc 1 251 0
 387 0012 5460     		str	r4, [r2, #4]
ARM GAS  /tmp/ccG12VGG.s 			page 8


 388              		.loc 1 252 0
 389 0014 1BB1     		cbz	r3, .L27
 390              		.loc 1 253 0
 391 0016 406B     		ldr	r0, [r0, #52]
 392 0018 C1F30361 		ubfx	r1, r1, #24, #4
 393              	.LVL14:
 394 001c 9847     		blx	r3
 395              	.L27:
 396              		.loc 1 255 0
 397 001e FFF7FEFF 		bl	dbg_check_leave_isr
 398              		.loc 1 256 0
 399 0022 BDE81040 		pop	{r4, lr}
 400              		.loc 1 255 0
 401 0026 FFF7FEBF 		b	_port_irq_epilogue
 402              	.L29:
 403 002a 00BF     		.align	2
 404              	.L28:
 405 002c 00000000 		.word	.LANCHOR0
 406 0030 00000240 		.word	1073872896
 407              		.cfi_endproc
 408              	.LFE61:
 409              		.size	Vector84, .-Vector84
 410 0034 AFF30080 		.section	.text.dmaInit,"ax",%progbits
 410      AFF30080 
 410      AFF30080 
 411              		.align	2
 412              		.p2align 4,,15
 413              		.global	dmaInit
 414              		.thumb
 415              		.thumb_func
 416              		.type	dmaInit, %function
 417              	dmaInit:
 418              	.LFB62:
 419              		.loc 1 392 0
 420              		.cfi_startproc
 421              		@ args = 0, pretend = 0, frame = 0
 422              		@ frame_needed = 0, uses_anonymous_args = 0
 423              		@ link register save eliminated.
 424              		.loc 1 397 0
 425 0000 124B     		ldr	r3, .L31
 426              		.loc 1 392 0
 427 0002 F0B4     		push	{r4, r5, r6, r7}
 428              	.LCFI7:
 429              		.cfi_def_cfa_offset 16
 430              		.loc 1 397 0
 431 0004 D3F800C0 		ldr	ip, [r3, #0]
 432 0008 DF68     		ldr	r7, [r3, #12]
 433              		.cfi_offset 7, -4
 434              		.cfi_offset 6, -8
 435              		.cfi_offset 5, -12
 436              		.cfi_offset 4, -16
 437 000a 9E69     		ldr	r6, [r3, #24]
 438 000c 5D6A     		ldr	r5, [r3, #36]
 439 000e 1C6B     		ldr	r4, [r3, #48]
 440 0010 D86B     		ldr	r0, [r3, #60]
 441 0012 996C     		ldr	r1, [r3, #72]
 442              		.loc 1 395 0
ARM GAS  /tmp/ccG12VGG.s 			page 9


 443 0014 0023     		movs	r3, #0
 444              		.loc 1 397 0
 445 0016 CCF80030 		str	r3, [ip, #0]
 446              		.loc 1 398 0
 447 001a 0D4A     		ldr	r2, .L31+4
 448              		.loc 1 395 0
 449 001c DFF838C0 		ldr	ip, .L31+12
 450              		.loc 1 397 0
 451 0020 3B60     		str	r3, [r7, #0]
 452              		.loc 1 398 0
 453 0022 1360     		str	r3, [r2, #0]
 454              		.loc 1 397 0
 455 0024 3360     		str	r3, [r6, #0]
 456              		.loc 1 398 0
 457 0026 9360     		str	r3, [r2, #8]
 458              		.loc 1 397 0
 459 0028 2B60     		str	r3, [r5, #0]
 460              		.loc 1 398 0
 461 002a 1361     		str	r3, [r2, #16]
 462              		.loc 1 397 0
 463 002c 2360     		str	r3, [r4, #0]
 464              		.loc 1 398 0
 465 002e 9361     		str	r3, [r2, #24]
 466              		.loc 1 397 0
 467 0030 0360     		str	r3, [r0, #0]
 468              		.loc 1 398 0
 469 0032 1362     		str	r3, [r2, #32]
 470 0034 9362     		str	r3, [r2, #40]
 471 0036 1363     		str	r3, [r2, #48]
 472              		.loc 1 395 0
 473 0038 CCF80030 		str	r3, [ip, #0]
 474              	.LVL15:
 475              		.loc 1 397 0
 476 003c 0B60     		str	r3, [r1, #0]
 477              		.loc 1 400 0
 478 003e 054B     		ldr	r3, .L31+8
 479 0040 4FF0FF32 		mov	r2, #-1
 480 0044 5A60     		str	r2, [r3, #4]
 481              		.loc 1 404 0
 482 0046 F0BC     		pop	{r4, r5, r6, r7}
 483 0048 7047     		bx	lr
 484              	.L32:
 485 004a 00BF     		.align	2
 486              	.L31:
 487 004c 00000000 		.word	.LANCHOR2
 488 0050 00000000 		.word	.LANCHOR0
 489 0054 00000240 		.word	1073872896
 490 0058 00000000 		.word	.LANCHOR1
 491              		.cfi_endproc
 492              	.LFE62:
 493              		.size	dmaInit, .-dmaInit
 494 005c AFF30080 		.section	.text.dmaStreamAllocate,"ax",%progbits
 495              		.align	2
 496              		.p2align 4,,15
 497              		.global	dmaStreamAllocate
 498              		.thumb
 499              		.thumb_func
ARM GAS  /tmp/ccG12VGG.s 			page 10


 500              		.type	dmaStreamAllocate, %function
 501              	dmaStreamAllocate:
 502              	.LFB63:
 503              		.loc 1 433 0
 504              		.cfi_startproc
 505              		@ args = 0, pretend = 0, frame = 16
 506              		@ frame_needed = 0, uses_anonymous_args = 0
 507              	.LVL16:
 508 0000 F0B5     		push	{r4, r5, r6, r7, lr}
 509              	.LCFI8:
 510              		.cfi_def_cfa_offset 20
 511              		.loc 1 435 0
 512 0002 0446     		mov	r4, r0
 513              		.cfi_offset 14, -4
 514              		.cfi_offset 7, -8
 515              		.cfi_offset 6, -12
 516              		.cfi_offset 5, -16
 517              		.cfi_offset 4, -20
 518              		.loc 1 433 0
 519 0004 85B0     		sub	sp, sp, #20
 520              	.LCFI9:
 521              		.cfi_def_cfa_offset 40
 522              		.loc 1 435 0
 523 0006 0028     		cmp	r0, #0
 524 0008 33D0     		beq	.L39
 525              	.LVL17:
 526              	.L34:
 527              		.loc 1 438 0
 528 000a 667A     		ldrb	r6, [r4, #9]	@ zero_extendqisi2
 529 000c 0125     		movs	r5, #1
 530 000e 05FA06FC 		lsl	ip, r5, r6
 531 0012 1D4F     		ldr	r7, .L40
 532 0014 3868     		ldr	r0, [r7, #0]
 533 0016 1CEA000F 		tst	ip, r0
 534 001a 26D1     		bne	.L37
 535              		.loc 1 442 0
 536 001c 1B4D     		ldr	r5, .L40+4
 537              		.loc 1 444 0
 538 001e 4CEA0000 		orr	r0, ip, r0
 539              		.loc 1 447 0
 540 0022 10F07F0F 		tst	r0, #127
 541              		.loc 1 443 0
 542 0026 05EBC60C 		add	ip, r5, r6, lsl #3
 543              		.loc 1 442 0
 544 002a 45F83620 		str	r2, [r5, r6, lsl #3]
 545              		.loc 1 443 0
 546 002e CCF80430 		str	r3, [ip, #4]
 547              		.loc 1 444 0
 548 0032 3860     		str	r0, [r7, #0]
 549              		.loc 1 447 0
 550 0034 04D0     		beq	.L36
 551              		.loc 1 448 0
 552 0036 164B     		ldr	r3, .L40+8
 553 0038 5F69     		ldr	r7, [r3, #20]
 554 003a 47F00106 		orr	r6, r7, #1
 555 003e 5E61     		str	r6, [r3, #20]
 556              	.L36:
ARM GAS  /tmp/ccG12VGG.s 			page 11


 557              		.loc 1 455 0
 558 0040 2368     		ldr	r3, [r4, #0]
 559 0042 6068     		ldr	r0, [r4, #4]
 560 0044 1F68     		ldr	r7, [r3, #0]
 561 0046 27F00105 		bic	r5, r7, #1
 562 004a 1D60     		str	r5, [r3, #0]
 563 004c 267A     		ldrb	r6, [r4, #8]	@ zero_extendqisi2
 564 004e 0F27     		movs	r7, #15
 565 0050 17FA06F6 		lsls	r6, r7, r6
 566              		.loc 1 456 0
 567 0054 0025     		movs	r5, #0
 568              		.loc 1 455 0
 569 0056 0660     		str	r6, [r0, #0]
 570              		.loc 1 456 0
 571 0058 1D60     		str	r5, [r3, #0]
 572              		.loc 1 459 0
 573 005a 42B1     		cbz	r2, .L38
 574              		.loc 1 460 0
 575 005c A07A     		ldrb	r0, [r4, #10]	@ zero_extendqisi2
 576 005e 0901     		lsls	r1, r1, #4
 577 0060 FFF7FEFF 		bl	nvicEnableVector
 578              		.loc 1 462 0
 579 0064 2846     		mov	r0, r5
 580              	.L35:
 581              		.loc 1 463 0
 582 0066 05B0     		add	sp, sp, #20
 583 0068 F0BD     		pop	{r4, r5, r6, r7, pc}
 584              	.L37:
 585              		.loc 1 439 0
 586 006a 2846     		mov	r0, r5
 587 006c FBE7     		b	.L35
 588              	.L38:
 589              		.loc 1 462 0
 590 006e 1046     		mov	r0, r2
 591 0070 F9E7     		b	.L35
 592              	.LVL18:
 593              	.L39:
 594              		.loc 1 435 0 discriminator 1
 595 0072 0848     		ldr	r0, .L40+12
 596 0074 0391     		str	r1, [sp, #12]
 597 0076 0292     		str	r2, [sp, #8]
 598 0078 0193     		str	r3, [sp, #4]
 599 007a FFF7FEFF 		bl	chDbgPanic
 600              	.LVL19:
 601 007e 019B     		ldr	r3, [sp, #4]
 602 0080 029A     		ldr	r2, [sp, #8]
 603 0082 0399     		ldr	r1, [sp, #12]
 604 0084 C1E7     		b	.L34
 605              	.L41:
 606 0086 00BF     		.align	2
 607              	.L40:
 608 0088 00000000 		.word	.LANCHOR1
 609 008c 00000000 		.word	.LANCHOR0
 610 0090 00100240 		.word	1073876992
 611 0094 00000000 		.word	.LC0
 612              		.cfi_endproc
 613              	.LFE63:
ARM GAS  /tmp/ccG12VGG.s 			page 12


 614              		.size	dmaStreamAllocate, .-dmaStreamAllocate
 615 0098 AFF30080 		.section	.text.dmaStreamRelease,"ax",%progbits
 615      AFF30080 
 616              		.align	2
 617              		.p2align 4,,15
 618              		.global	dmaStreamRelease
 619              		.thumb
 620              		.thumb_func
 621              		.type	dmaStreamRelease, %function
 622              	dmaStreamRelease:
 623              	.LFB64:
 624              		.loc 1 478 0
 625              		.cfi_startproc
 626              		@ args = 0, pretend = 0, frame = 0
 627              		@ frame_needed = 0, uses_anonymous_args = 0
 628              	.LVL20:
 629 0000 38B5     		push	{r3, r4, r5, lr}
 630              	.LCFI10:
 631              		.cfi_def_cfa_offset 16
 632              		.loc 1 480 0
 633 0002 0446     		mov	r4, r0
 634              		.cfi_offset 14, -4
 635              		.cfi_offset 5, -8
 636              		.cfi_offset 4, -12
 637              		.cfi_offset 3, -16
 638 0004 F8B1     		cbz	r0, .L46
 639              	.LVL21:
 640              	.L43:
 641              		.loc 1 483 0
 642 0006 617A     		ldrb	r1, [r4, #9]	@ zero_extendqisi2
 643 0008 0120     		movs	r0, #1
 644 000a 10FA01F2 		lsls	r2, r0, r1
 645 000e 104D     		ldr	r5, .L48
 646 0010 2B68     		ldr	r3, [r5, #0]
 647 0012 1A42     		tst	r2, r3
 648 0014 13D0     		beq	.L47
 649              	.L44:
 650              		.loc 1 487 0
 651 0016 A07A     		ldrb	r0, [r4, #10]	@ zero_extendqisi2
 652 0018 FFF7FEFF 		bl	nvicDisableVector
 653              		.loc 1 490 0
 654 001c 617A     		ldrb	r1, [r4, #9]	@ zero_extendqisi2
 655 001e 0122     		movs	r2, #1
 656 0020 12FA01F3 		lsls	r3, r2, r1
 657 0024 2868     		ldr	r0, [r5, #0]
 658 0026 20EA0302 		bic	r2, r0, r3
 659              		.loc 1 493 0
 660 002a 12F07F0F 		tst	r2, #127
 661              		.loc 1 490 0
 662 002e 2A60     		str	r2, [r5, #0]
 663              		.loc 1 493 0
 664 0030 04D1     		bne	.L42
 665              		.loc 1 494 0
 666 0032 084B     		ldr	r3, .L48+4
 667 0034 5969     		ldr	r1, [r3, #20]
 668 0036 21F00100 		bic	r0, r1, #1
 669 003a 5861     		str	r0, [r3, #20]
ARM GAS  /tmp/ccG12VGG.s 			page 13


 670              	.L42:
 671 003c 38BD     		pop	{r3, r4, r5, pc}
 672              	.L47:
 673              		.loc 1 483 0 discriminator 1
 674 003e 0648     		ldr	r0, .L48+8
 675 0040 FFF7FEFF 		bl	chDbgPanic
 676 0044 E7E7     		b	.L44
 677              	.L46:
 678              		.loc 1 480 0 discriminator 1
 679 0046 0548     		ldr	r0, .L48+12
 680 0048 FFF7FEFF 		bl	chDbgPanic
 681 004c DBE7     		b	.L43
 682              	.L49:
 683 004e 00BF     		.align	2
 684              	.L48:
 685 0050 00000000 		.word	.LANCHOR1
 686 0054 00100240 		.word	1073876992
 687 0058 20000000 		.word	.LC2
 688 005c 10000000 		.word	.LC1
 689              		.cfi_endproc
 690              	.LFE64:
 691              		.size	dmaStreamRelease, .-dmaStreamRelease
 692              		.global	_stm32_dma_streams
 693              		.section	.rodata.str1.4,"aMS",%progbits,1
 694              		.align	2
 695              	.LC0:
 696 0000 22646D61 		.ascii	"\"dmaAllocate\"()\000"
 696      416C6C6F 
 696      63617465 
 696      22282900 
 697              	.LC1:
 698 0010 22646D61 		.ascii	"\"dmaRelease\"()\000"
 698      52656C65 
 698      61736522 
 698      282900
 699 001f 00       		.space	1
 700              	.LC2:
 701 0020 646D6152 		.ascii	"dmaRelease(), #1\000"
 701      656C6561 
 701      73652829 
 701      2C202331 
 701      00
 702 0031 000000   		.section	.bss.dma_isr_redir,"aw",%nobits
 703              		.align	2
 704              		.set	.LANCHOR0,. + 0
 705              		.type	dma_isr_redir, %object
 706              		.size	dma_isr_redir, 56
 707              	dma_isr_redir:
 708 0000 00000000 		.space	56
 708      00000000 
 708      00000000 
 708      00000000 
 708      00000000 
 709              		.section	.rodata._stm32_dma_streams,"a",%progbits
 710              		.align	2
 711              		.set	.LANCHOR2,. + 0
 712              		.type	_stm32_dma_streams, %object
ARM GAS  /tmp/ccG12VGG.s 			page 14


 713              		.size	_stm32_dma_streams, 84
 714              	_stm32_dma_streams:
 715 0000 08000240 		.word	1073872904
 716 0004 04000240 		.word	1073872900
 717 0008 00       		.byte	0
 718 0009 00       		.byte	0
 719 000a 0B       		.byte	11
 720 000b 00       		.space	1
 721 000c 1C000240 		.word	1073872924
 722 0010 04000240 		.word	1073872900
 723 0014 04       		.byte	4
 724 0015 01       		.byte	1
 725 0016 0C       		.byte	12
 726 0017 00       		.space	1
 727 0018 30000240 		.word	1073872944
 728 001c 04000240 		.word	1073872900
 729 0020 08       		.byte	8
 730 0021 02       		.byte	2
 731 0022 0D       		.byte	13
 732 0023 00       		.space	1
 733 0024 44000240 		.word	1073872964
 734 0028 04000240 		.word	1073872900
 735 002c 0C       		.byte	12
 736 002d 03       		.byte	3
 737 002e 0E       		.byte	14
 738 002f 00       		.space	1
 739 0030 58000240 		.word	1073872984
 740 0034 04000240 		.word	1073872900
 741 0038 10       		.byte	16
 742 0039 04       		.byte	4
 743 003a 0F       		.byte	15
 744 003b 00       		.space	1
 745 003c 6C000240 		.word	1073873004
 746 0040 04000240 		.word	1073872900
 747 0044 14       		.byte	20
 748 0045 05       		.byte	5
 749 0046 10       		.byte	16
 750 0047 00       		.space	1
 751 0048 80000240 		.word	1073873024
 752 004c 04000240 		.word	1073872900
 753 0050 18       		.byte	24
 754 0051 06       		.byte	6
 755 0052 11       		.byte	17
 756 0053 00       		.space	1
 757              		.section	.bss.dma_streams_mask,"aw",%nobits
 758              		.align	2
 759              		.set	.LANCHOR1,. + 0
 760              		.type	dma_streams_mask, %object
 761              		.size	dma_streams_mask, 4
 762              	dma_streams_mask:
 763 0000 00000000 		.space	4
 764              		.text
 765              	.Letext0: