ARM GAS  /tmp/cchvIWnc.s 			page 1


   1              		.syntax unified
   2              		.cpu cortex-m3
   3              		.fpu softvfp
   4              		.eabi_attribute 20, 1
   5              		.eabi_attribute 21, 1
   6              		.eabi_attribute 23, 3
   7              		.eabi_attribute 24, 1
   8              		.eabi_attribute 25, 1
   9              		.eabi_attribute 26, 1
  10              		.eabi_attribute 30, 2
  11              		.eabi_attribute 18, 4
  12              		.thumb
  13              		.file	"syscalls.c"
  20 0000 EC010000 		.text
  20      02004B01 
  20      00000201 
  20      FB0E0D00 
  20      01010101 
  21              	.Ltext0:
  22              		.cfi_sections	.debug_frame
  23              		.section	.text._read_r,"ax",%progbits
  24              		.align	2
  25              		.p2align 4,,15
  26              		.global	_read_r
  27              		.thumb
  28              		.thumb_func
  29              		.type	_read_r, %function
  30              	_read_r:
  31              	.LFB0:
  32              		.file 1 "../chibios_2.4.x/os/various/syscalls.c"
  33              		.loc 1 82 0
  34              		.cfi_startproc
  35              		@ args = 0, pretend = 0, frame = 0
  36              		@ frame_needed = 0, uses_anonymous_args = 0
  37              		@ link register save eliminated.
  38              	.LVL0:
  39              		.loc 1 95 0
  40 0000 1623     		movs	r3, #22
  41              	.LVL1:
  42 0002 0360     		str	r3, [r0, #0]
  43              		.loc 1 98 0
  44 0004 4FF0FF30 		mov	r0, #-1
  45              	.LVL2:
  46 0008 7047     		bx	lr
  47              		.cfi_endproc
  48              	.LFE0:
  49              		.size	_read_r, .-_read_r
  50 000a 00BFAFF3 		.section	.text._lseek_r,"ax",%progbits
  50      0080
  51              		.align	2
  52              		.p2align 4,,15
ARM GAS  /tmp/cchvIWnc.s 			page 2


  53              		.global	_lseek_r
  54              		.thumb
  55              		.thumb_func
  56              		.type	_lseek_r, %function
  57              	_lseek_r:
  58              	.LFB1:
  59              		.loc 1 103 0
  60              		.cfi_startproc
  61              		@ args = 0, pretend = 0, frame = 0
  62              		@ frame_needed = 0, uses_anonymous_args = 0
  63              		@ link register save eliminated.
  64              	.LVL3:
  65              		.loc 1 110 0
  66 0000 0020     		movs	r0, #0
  67              	.LVL4:
  68 0002 7047     		bx	lr
  69              		.cfi_endproc
  70              	.LFE1:
  71              		.size	_lseek_r, .-_lseek_r
  72 0004 AFF30080 		.section	.text._write_r,"ax",%progbits
  72      AFF30080 
  72      AFF30080 
  73              		.align	2
  74              		.p2align 4,,15
  75              		.global	_write_r
  76              		.thumb
  77              		.thumb_func
  78              		.type	_write_r, %function
  79              	_write_r:
  80              	.LFB2:
  81              		.loc 1 115 0
  82              		.cfi_startproc
  83              		@ args = 0, pretend = 0, frame = 0
  84              		@ frame_needed = 0, uses_anonymous_args = 0
  85              		@ link register save eliminated.
  86              	.LVL5:
  87              		.loc 1 127 0
  88 0000 1846     		mov	r0, r3
  89              	.LVL6:
  90 0002 7047     		bx	lr
  91              		.cfi_endproc
  92              	.LFE2:
  93              		.size	_write_r, .-_write_r
  94 0004 AFF30080 		.section	.text._close_r,"ax",%progbits
  94      AFF30080 
  94      AFF30080 
  95              		.align	2
  96              		.p2align 4,,15
  97              		.global	_close_r
  98              		.thumb
  99              		.thumb_func
 100              		.type	_close_r, %function
 101              	_close_r:
 102              	.LFB3:
 103              		.loc 1 132 0
 104              		.cfi_startproc
 105              		@ args = 0, pretend = 0, frame = 0
ARM GAS  /tmp/cchvIWnc.s 			page 3


 106              		@ frame_needed = 0, uses_anonymous_args = 0
 107              		@ link register save eliminated.
 108              	.LVL7:
 109              		.loc 1 137 0
 110 0000 0020     		movs	r0, #0
 111              	.LVL8:
 112 0002 7047     		bx	lr
 113              		.cfi_endproc
 114              	.LFE3:
 115              		.size	_close_r, .-_close_r
 116 0004 AFF30080 		.section	.text._sbrk_r,"ax",%progbits
 116      AFF30080 
 116      AFF30080 
 117              		.align	2
 118              		.p2align 4,,15
 119              		.global	_sbrk_r
 120              		.thumb
 121              		.thumb_func
 122              		.type	_sbrk_r, %function
 123              	_sbrk_r:
 124              	.LFB4:
 125              		.loc 1 142 0
 126              		.cfi_startproc
 127              		@ args = 0, pretend = 0, frame = 0
 128              		@ frame_needed = 0, uses_anonymous_args = 0
 129              	.LVL9:
 130 0000 38B5     		push	{r3, r4, r5, lr}
 131              	.LCFI0:
 132              		.cfi_def_cfa_offset 16
 133              		.loc 1 146 0
 134 0002 0D1E     		subs	r5, r1, #0
 135              		.cfi_offset 14, -4
 136              		.cfi_offset 5, -8
 137              		.cfi_offset 4, -12
 138              		.cfi_offset 3, -16
 139              		.loc 1 142 0
 140 0004 0446     		mov	r4, r0
 141              		.loc 1 146 0
 142 0006 04DD     		ble	.L10
 143              		.loc 1 149 0
 144 0008 2846     		mov	r0, r5
 145              	.LVL10:
 146 000a FFF7FEFF 		bl	chCoreAlloc
 147              	.LVL11:
 148              		.loc 1 150 0
 149 000e 40B1     		cbz	r0, .L11
 150              	.L8:
 151              		.loc 1 159 0
 152 0010 38BD     		pop	{r3, r4, r5, pc}
 153              	.LVL12:
 154              	.L10:
 155              		.loc 1 146 0 discriminator 1
 156 0012 0648     		ldr	r0, .L12
 157 0014 FFF7FEFF 		bl	chDbgPanic
 158              		.loc 1 149 0 discriminator 1
 159 0018 2846     		mov	r0, r5
 160 001a FFF7FEFF 		bl	chCoreAlloc
ARM GAS  /tmp/cchvIWnc.s 			page 4


 161              	.LVL13:
 162              		.loc 1 150 0 discriminator 1
 163 001e 0028     		cmp	r0, #0
 164 0020 F6D1     		bne	.L8
 165              	.L11:
 166              		.loc 1 151 0
 167 0022 0C23     		movs	r3, #12
 168 0024 2360     		str	r3, [r4, #0]
 169              		.loc 1 152 0
 170 0026 4FF0FF30 		mov	r0, #-1
 171              	.LVL14:
 172              		.loc 1 159 0
 173 002a 38BD     		pop	{r3, r4, r5, pc}
 174              	.L13:
 175              		.align	2
 176              	.L12:
 177 002c 00000000 		.word	.LC0
 178              		.cfi_endproc
 179              	.LFE4:
 180              		.size	_sbrk_r, .-_sbrk_r
 181              		.section	.text._fstat_r,"ax",%progbits
 182              		.align	2
 183              		.p2align 4,,15
 184              		.global	_fstat_r
 185              		.thumb
 186              		.thumb_func
 187              		.type	_fstat_r, %function
 188              	_fstat_r:
 189              	.LFB5:
 190              		.loc 1 164 0
 191              		.cfi_startproc
 192              		@ args = 0, pretend = 0, frame = 0
 193              		@ frame_needed = 0, uses_anonymous_args = 0
 194              	.LVL15:
 195 0000 10B5     		push	{r4, lr}
 196              	.LCFI1:
 197              		.cfi_def_cfa_offset 8
 198              		.loc 1 168 0
 199 0002 1046     		mov	r0, r2
 200              	.LVL16:
 201              		.loc 1 164 0
 202 0004 1446     		mov	r4, r2
 203              		.cfi_offset 14, -4
 204              		.cfi_offset 4, -8
 205              		.loc 1 168 0
 206 0006 0021     		movs	r1, #0
 207              	.LVL17:
 208 0008 3C22     		movs	r2, #60
 209              	.LVL18:
 210 000a FFF7FEFF 		bl	memset
 211              	.LVL19:
 212              		.loc 1 169 0
 213 000e 4FF40053 		mov	r3, #8192
 214 0012 6360     		str	r3, [r4, #4]
 215              		.loc 1 171 0
 216 0014 0020     		movs	r0, #0
 217 0016 10BD     		pop	{r4, pc}
ARM GAS  /tmp/cchvIWnc.s 			page 5


 218              		.cfi_endproc
 219              	.LFE5:
 220              		.size	_fstat_r, .-_fstat_r
 221 0018 AFF30080 		.section	.text._isatty_r,"ax",%progbits
 221      AFF30080 
 222              		.align	2
 223              		.p2align 4,,15
 224              		.global	_isatty_r
 225              		.thumb
 226              		.thumb_func
 227              		.type	_isatty_r, %function
 228              	_isatty_r:
 229              	.LFB6:
 230              		.loc 1 176 0
 231              		.cfi_startproc
 232              		@ args = 0, pretend = 0, frame = 0
 233              		@ frame_needed = 0, uses_anonymous_args = 0
 234              		@ link register save eliminated.
 235              	.LVL20:
 236              		.loc 1 181 0
 237 0000 0120     		movs	r0, #1
 238              	.LVL21:
 239 0002 7047     		bx	lr
 240              		.cfi_endproc
 241              	.LFE6:
 242              		.size	_isatty_r, .-_isatty_r
 243 0004 AFF30080 		.section	.rodata.str1.4,"aMS",%progbits,1
 243      AFF30080 
 243      AFF30080 
 244              		.align	2
 245              	.LC0:
 246 0000 225F7362 		.ascii	"\"_sbrk_r\"()\000"
 246      726B5F72 
 246      22282900 
 247              		.text
 248              	.Letext0: