ARM GAS  /tmp/cc7pvxVj.s 			page 1


   1              		.syntax unified
   2              		.cpu cortex-m3
   3              		.fpu softvfp
   4              		.eabi_attribute 20, 1
   5              		.eabi_attribute 21, 1
   6              		.eabi_attribute 23, 3
   7              		.eabi_attribute 24, 1
   8              		.eabi_attribute 25, 1
   9              		.eabi_attribute 26, 1
  10              		.eabi_attribute 30, 2
  11              		.eabi_attribute 18, 4
  12              		.thumb
  13              		.file	"usb.c"
  14              		.section	.debug_abbrev,"",%progbits
  15              	.Ldebug_abbrev0:
  16              		.section	.debug_info,"",%progbits
  17              	.Ldebug_info0:
  18              		.section	.debug_line,"",%progbits
  19              	.Ldebug_line0:
  20 0000 E4040000 		.text
  20      0200F201 
  20      00000201 
  20      FB0E0D00 
  20      01010101 
  21              	.Ltext0:
  22              		.cfi_sections	.debug_frame
  23              		.section	.text.set_address,"ax",%progbits
  24              		.align	2
  25              		.p2align 4,,15
  26              		.thumb
  27              		.thumb_func
  28              		.type	set_address, %function
  29              	set_address:
  30              	.LFB55:
  31              		.file 1 "../chibios_2.4.x/os/hal/src/usb.c"
  32              		.loc 1 69 0
  33              		.cfi_startproc
  34              		@ args = 0, pretend = 0, frame = 0
  35              		@ frame_needed = 0, uses_anonymous_args = 0
  36              	.LVL0:
  37 0000 10B5     		push	{r4, lr}
  38              	.LCFI0:
  39              		.cfi_def_cfa_offset 8
  40              		.loc 1 71 0
  41 0002 90F84210 		ldrb	r1, [r0, #66]	@ zero_extendqisi2
  42              		.loc 1 69 0
  43 0006 0446     		mov	r4, r0
  44              		.cfi_offset 14, -4
  45              		.cfi_offset 4, -8
  46              		.loc 1 71 0
  47 0008 80F84A10 		strb	r1, [r0, #74]
  48              		.loc 1 72 0
  49 000c FFF7FEFF 		bl	usb_lld_set_address
  50              	.LVL1:
  51              		.loc 1 73 0
  52 0010 6368     		ldr	r3, [r4, #4]
  53 0012 1B68     		ldr	r3, [r3, #0]
ARM GAS  /tmp/cc7pvxVj.s 			page 2


  54 0014 13B1     		cbz	r3, .L2
  55              		.loc 1 73 0 is_stmt 0 discriminator 1
  56 0016 2046     		mov	r0, r4
  57 0018 0121     		movs	r1, #1
  58 001a 9847     		blx	r3
  59              	.L2:
  60              		.loc 1 74 0 is_stmt 1
  61 001c 0320     		movs	r0, #3
  62 001e 2070     		strb	r0, [r4, #0]
  63              		.loc 1 75 0
  64 0020 10BD     		pop	{r4, pc}
  65              		.cfi_endproc
  66              	.LFE55:
  67              		.size	set_address, .-set_address
  68 0022 00BFAFF3 		.section	.text.usbInit,"ax",%progbits
  68      0080AFF3 
  68      0080AFF3 
  68      0080
  69              		.align	2
  70              		.p2align 4,,15
  71              		.global	usbInit
  72              		.thumb
  73              		.thumb_func
  74              		.type	usbInit, %function
  75              	usbInit:
  76              	.LFB57:
  77              		.loc 1 235 0
  78              		.cfi_startproc
  79              		@ args = 0, pretend = 0, frame = 0
  80              		@ frame_needed = 0, uses_anonymous_args = 0
  81              		@ link register save eliminated.
  82              		.loc 1 238 0
  83              		.loc 1 237 0
  84 0000 FFF7FEBF 		b	usb_lld_init
  85              		.cfi_endproc
  86              	.LFE57:
  87              		.size	usbInit, .-usbInit
  88 0004 AFF30080 		.section	.text.usbObjectInit,"ax",%progbits
  88      AFF30080 
  88      AFF30080 
  89              		.align	2
  90              		.p2align 4,,15
  91              		.global	usbObjectInit
  92              		.thumb
  93              		.thumb_func
  94              		.type	usbObjectInit, %function
  95              	usbObjectInit:
  96              	.LFB58:
  97              		.loc 1 247 0
  98              		.cfi_startproc
  99              		@ args = 0, pretend = 0, frame = 0
 100              		@ frame_needed = 0, uses_anonymous_args = 0
 101              		@ link register save eliminated.
 102              	.LVL2:
 103              		.loc 1 250 0
 104 0000 0023     		movs	r3, #0
 105              		.loc 1 249 0
ARM GAS  /tmp/cc7pvxVj.s 			page 3


 106 0002 0122     		movs	r2, #1
 107 0004 0270     		strb	r2, [r0, #0]
 108              		.loc 1 250 0
 109 0006 4360     		str	r3, [r0, #4]
 110              		.loc 1 251 0
 111 0008 8360     		str	r3, [r0, #8]
 112              		.loc 1 252 0
 113 000a 8381     		strh	r3, [r0, #12]	@ movhi
 114              		.loc 1 253 0
 115 000c C381     		strh	r3, [r0, #14]	@ movhi
 116              		.loc 1 254 0
 117 000e 7047     		bx	lr
 118              		.cfi_endproc
 119              	.LFE58:
 120              		.size	usbObjectInit, .-usbObjectInit
 121              		.section	.text.usbStart,"ax",%progbits
 122              		.align	2
 123              		.p2align 4,,15
 124              		.global	usbStart
 125              		.thumb
 126              		.thumb_func
 127              		.type	usbStart, %function
 128              	usbStart:
 129              	.LFB59:
 130              		.loc 1 264 0
 131              		.cfi_startproc
 132              		@ args = 0, pretend = 0, frame = 0
 133              		@ frame_needed = 0, uses_anonymous_args = 0
 134              	.LVL3:
 135 0000 38B5     		push	{r3, r4, r5, lr}
 136              	.LCFI1:
 137              		.cfi_def_cfa_offset 16
 138              		.loc 1 267 0
 139 0002 0446     		mov	r4, r0
 140              		.cfi_offset 14, -4
 141              		.cfi_offset 5, -8
 142              		.cfi_offset 4, -12
 143              		.cfi_offset 3, -16
 144              		.loc 1 264 0
 145 0004 0D46     		mov	r5, r1
 146              		.loc 1 267 0
 147 0006 00B3     		cbz	r0, .L7
 148              		.loc 1 267 0 is_stmt 0 discriminator 2
 149 0008 F9B1     		cbz	r1, .L7
 150              	.LVL4:
 151              	.L8:
 152              		.loc 1 269 0 is_stmt 1
 153              	@ 269 "../chibios_2.4.x/os/hal/src/usb.c" 1
 154 000a FFF7FEFF 		bl      _port_lock
 155              	@ 0 "" 2
 156              		.thumb
 157 000e FFF7FEFF 		bl	dbg_check_lock
 158              		.loc 1 270 0
 159 0012 2178     		ldrb	r1, [r4, #0]	@ zero_extendqisi2
 160 0014 481E     		subs	r0, r1, #1
 161 0016 C3B2     		uxtb	r3, r0
 162 0018 012B     		cmp	r3, #1
ARM GAS  /tmp/cc7pvxVj.s 			page 4


 163 001a 02D9     		bls	.L9
 164              		.loc 1 270 0 is_stmt 0 discriminator 1
 165 001c 0D48     		ldr	r0, .L10
 166 001e FFF7FEFF 		bl	chDbgPanic
 167              	.L9:
 168              		.loc 1 274 0 is_stmt 1
 169 0022 0023     		movs	r3, #0
 170              		.loc 1 275 0
 171 0024 2046     		mov	r0, r4
 172              		.loc 1 274 0
 173 0026 2361     		str	r3, [r4, #16]
 174 0028 6361     		str	r3, [r4, #20]
 175 002a A361     		str	r3, [r4, #24]
 176 002c E361     		str	r3, [r4, #28]
 177 002e 2362     		str	r3, [r4, #32]
 178 0030 6362     		str	r3, [r4, #36]
 179 0032 A362     		str	r3, [r4, #40]
 180 0034 E362     		str	r3, [r4, #44]
 181              		.loc 1 272 0
 182 0036 6560     		str	r5, [r4, #4]
 183              	.LVL5:
 184              		.loc 1 275 0
 185 0038 FFF7FEFF 		bl	usb_lld_start
 186              		.loc 1 276 0
 187 003c 0222     		movs	r2, #2
 188 003e 2270     		strb	r2, [r4, #0]
 189              		.loc 1 277 0
 190 0040 FFF7FEFF 		bl	dbg_check_unlock
 191              	@ 277 "../chibios_2.4.x/os/hal/src/usb.c" 1
 192 0044 FFF7FEFF 		bl      _port_unlock
 193              	@ 0 "" 2
 194              		.loc 1 278 0
 195              		.thumb
 196 0048 38BD     		pop	{r3, r4, r5, pc}
 197              	.LVL6:
 198              	.L7:
 199              		.loc 1 267 0 discriminator 1
 200 004a 0348     		ldr	r0, .L10+4
 201 004c FFF7FEFF 		bl	chDbgPanic
 202 0050 DBE7     		b	.L8
 203              	.L11:
 204 0052 00BF     		.align	2
 205              	.L10:
 206 0054 10000000 		.word	.LC1
 207 0058 00000000 		.word	.LC0
 208              		.cfi_endproc
 209              	.LFE59:
 210              		.size	usbStart, .-usbStart
 211 005c AFF30080 		.section	.text.usbStop,"ax",%progbits
 212              		.align	2
 213              		.p2align 4,,15
 214              		.global	usbStop
 215              		.thumb
 216              		.thumb_func
 217              		.type	usbStop, %function
 218              	usbStop:
 219              	.LFB60:
ARM GAS  /tmp/cc7pvxVj.s 			page 5


 220              		.loc 1 287 0
 221              		.cfi_startproc
 222              		@ args = 0, pretend = 0, frame = 0
 223              		@ frame_needed = 0, uses_anonymous_args = 0
 224              	.LVL7:
 225 0000 10B5     		push	{r4, lr}
 226              	.LCFI2:
 227              		.cfi_def_cfa_offset 8
 228              		.loc 1 289 0
 229 0002 0446     		mov	r4, r0
 230              		.cfi_offset 14, -4
 231              		.cfi_offset 4, -8
 232 0004 A8B1     		cbz	r0, .L15
 233              	.LVL8:
 234              	.L13:
 235              		.loc 1 291 0
 236              	@ 291 "../chibios_2.4.x/os/hal/src/usb.c" 1
 237 0006 FFF7FEFF 		bl      _port_lock
 238              	@ 0 "" 2
 239              		.thumb
 240 000a FFF7FEFF 		bl	dbg_check_lock
 241              		.loc 1 292 0
 242 000e 2178     		ldrb	r1, [r4, #0]	@ zero_extendqisi2
 243 0010 481E     		subs	r0, r1, #1
 244 0012 C3B2     		uxtb	r3, r0
 245 0014 012B     		cmp	r3, #1
 246 0016 02D9     		bls	.L14
 247              		.loc 1 292 0 is_stmt 0 discriminator 1
 248 0018 0848     		ldr	r0, .L16
 249 001a FFF7FEFF 		bl	chDbgPanic
 250              	.L14:
 251              		.loc 1 294 0 is_stmt 1
 252 001e 2046     		mov	r0, r4
 253 0020 FFF7FEFF 		bl	usb_lld_stop
 254              		.loc 1 295 0
 255 0024 0122     		movs	r2, #1
 256 0026 2270     		strb	r2, [r4, #0]
 257              		.loc 1 296 0
 258 0028 FFF7FEFF 		bl	dbg_check_unlock
 259              	@ 296 "../chibios_2.4.x/os/hal/src/usb.c" 1
 260 002c FFF7FEFF 		bl      _port_unlock
 261              	@ 0 "" 2
 262              		.loc 1 297 0
 263              		.thumb
 264 0030 10BD     		pop	{r4, pc}
 265              	.L15:
 266              		.loc 1 289 0 discriminator 1
 267 0032 0348     		ldr	r0, .L16+4
 268 0034 FFF7FEFF 		bl	chDbgPanic
 269 0038 E5E7     		b	.L13
 270              	.L17:
 271 003a 00BF     		.align	2
 272              	.L16:
 273 003c 2C000000 		.word	.LC3
 274 0040 20000000 		.word	.LC2
 275              		.cfi_endproc
 276              	.LFE60:
ARM GAS  /tmp/cc7pvxVj.s 			page 6


 277              		.size	usbStop, .-usbStop
 278 0044 AFF30080 		.section	.text.usbInitEndpointI,"ax",%progbits
 278      AFF30080 
 278      AFF30080 
 279              		.align	2
 280              		.p2align 4,,15
 281              		.global	usbInitEndpointI
 282              		.thumb
 283              		.thumb_func
 284              		.type	usbInitEndpointI, %function
 285              	usbInitEndpointI:
 286              	.LFB61:
 287              		.loc 1 313 0
 288              		.cfi_startproc
 289              		@ args = 0, pretend = 0, frame = 0
 290              		@ frame_needed = 0, uses_anonymous_args = 0
 291              	.LVL9:
 292 0000 2DE9F041 		push	{r4, r5, r6, r7, r8, lr}
 293              	.LCFI3:
 294              		.cfi_def_cfa_offset 24
 295              		.loc 1 313 0
 296 0004 0446     		mov	r4, r0
 297              		.cfi_offset 14, -4
 298              		.cfi_offset 8, -8
 299              		.cfi_offset 7, -12
 300              		.cfi_offset 6, -16
 301              		.cfi_offset 5, -20
 302              		.cfi_offset 4, -24
 303 0006 0D46     		mov	r5, r1
 304 0008 1646     		mov	r6, r2
 305              		.loc 1 315 0
 306 000a FFF7FEFF 		bl	chDbgCheckClassI
 307              	.LVL10:
 308              		.loc 1 316 0
 309 000e 002C     		cmp	r4, #0
 310 0010 2AD0     		beq	.L19
 311              		.loc 1 316 0 is_stmt 0 discriminator 2
 312 0012 002E     		cmp	r6, #0
 313 0014 28D0     		beq	.L19
 314              	.L20:
 315              		.loc 1 317 0 is_stmt 1
 316 0016 2378     		ldrb	r3, [r4, #0]	@ zero_extendqisi2
 317 0018 042B     		cmp	r3, #4
 318 001a 02D0     		beq	.L21
 319              		.loc 1 317 0 is_stmt 0 discriminator 1
 320 001c 1448     		ldr	r0, .L24
 321 001e FFF7FEFF 		bl	chDbgPanic
 322              	.L21:
 323              		.loc 1 319 0 is_stmt 1
 324 0022 2F1D     		adds	r7, r5, #4
 325 0024 54F82700 		ldr	r0, [r4, r7, lsl #2]
 326 0028 10B1     		cbz	r0, .L22
 327              		.loc 1 319 0 is_stmt 0 discriminator 1
 328 002a 1248     		ldr	r0, .L24+4
 329 002c FFF7FEFF 		bl	chDbgPanic
 330              	.L22:
 331              		.loc 1 323 0 is_stmt 1
ARM GAS  /tmp/cc7pvxVj.s 			page 7


 332 0030 3168     		ldr	r1, [r6, #0]
 333 0032 11F01003 		ands	r3, r1, #16
 334 0036 0FD1     		bne	.L23
 335              		.loc 1 324 0
 336 0038 7269     		ldr	r2, [r6, #20]
 337 003a 9446     		mov	ip, r2
 338 003c 4CF8043B 		str	r3, [ip], #4
 339 0040 5360     		str	r3, [r2, #4]
 340 0042 CCF80430 		str	r3, [ip, #4]
 341              		.loc 1 325 0
 342 0046 B069     		ldr	r0, [r6, #24]
 343 0048 0146     		mov	r1, r0
 344 004a 41F8043B 		str	r3, [r1], #4
 345 004e 0A1D     		adds	r2, r1, #4
 346 0050 4360     		str	r3, [r0, #4]
 347 0052 42F8043B 		str	r3, [r2], #4
 348 0056 1360     		str	r3, [r2, #0]
 349              	.L23:
 350              		.loc 1 330 0
 351 0058 2046     		mov	r0, r4
 352 005a 2946     		mov	r1, r5
 353              		.loc 1 327 0
 354 005c 44F82760 		str	r6, [r4, r7, lsl #2]
 355              		.loc 1 331 0
 356 0060 BDE8F041 		pop	{r4, r5, r6, r7, r8, lr}
 357              		.loc 1 330 0
 358 0064 FFF7FEBF 		b	usb_lld_init_endpoint
 359              	.L19:
 360              		.loc 1 316 0 discriminator 1
 361 0068 0348     		ldr	r0, .L24+8
 362 006a FFF7FEFF 		bl	chDbgPanic
 363 006e D2E7     		b	.L20
 364              	.L25:
 365              		.align	2
 366              	.L24:
 367 0070 54000000 		.word	.LC5
 368 0074 70000000 		.word	.LC6
 369 0078 3C000000 		.word	.LC4
 370              		.cfi_endproc
 371              	.LFE61:
 372              		.size	usbInitEndpointI, .-usbInitEndpointI
 373 007c AFF30080 		.section	.text.usbDisableEndpointsI,"ax",%progbits
 374              		.align	2
 375              		.p2align 4,,15
 376              		.global	usbDisableEndpointsI
 377              		.thumb
 378              		.thumb_func
 379              		.type	usbDisableEndpointsI, %function
 380              	usbDisableEndpointsI:
 381              	.LFB62:
 382              		.loc 1 344 0
 383              		.cfi_startproc
 384              		@ args = 0, pretend = 0, frame = 0
 385              		@ frame_needed = 0, uses_anonymous_args = 0
 386              	.LVL11:
 387 0000 10B5     		push	{r4, lr}
 388              	.LCFI4:
ARM GAS  /tmp/cc7pvxVj.s 			page 8


 389              		.cfi_def_cfa_offset 8
 390              		.loc 1 344 0
 391 0002 0446     		mov	r4, r0
 392              		.cfi_offset 14, -4
 393              		.cfi_offset 4, -8
 394              		.loc 1 347 0
 395 0004 FFF7FEFF 		bl	chDbgCheckClassI
 396              	.LVL12:
 397              		.loc 1 348 0
 398 0008 E4B1     		cbz	r4, .L29
 399              	.L27:
 400              		.loc 1 349 0
 401 000a 2378     		ldrb	r3, [r4, #0]	@ zero_extendqisi2
 402 000c 032B     		cmp	r3, #3
 403 000e 02D0     		beq	.L28
 404              		.loc 1 349 0 is_stmt 0 discriminator 1
 405 0010 0E48     		ldr	r0, .L30
 406 0012 FFF7FEFF 		bl	chDbgPanic
 407              	.L28:
 408              		.loc 1 352 0 is_stmt 1
 409 0016 B4F80CE0 		ldrh	lr, [r4, #12]
 410              		.loc 1 353 0
 411 001a B4F80EC0 		ldrh	ip, [r4, #14]
 412              		.loc 1 355 0
 413 001e 0020     		movs	r0, #0
 414              		.loc 1 352 0
 415 0020 2EF00101 		bic	r1, lr, #1
 416              		.loc 1 353 0
 417 0024 2CF00102 		bic	r2, ip, #1
 418              		.loc 1 355 0
 419 0028 6061     		str	r0, [r4, #20]
 420 002a A061     		str	r0, [r4, #24]
 421 002c E061     		str	r0, [r4, #28]
 422 002e 2062     		str	r0, [r4, #32]
 423 0030 6062     		str	r0, [r4, #36]
 424 0032 A062     		str	r0, [r4, #40]
 425 0034 E062     		str	r0, [r4, #44]
 426              		.loc 1 358 0
 427 0036 2046     		mov	r0, r4
 428              		.loc 1 352 0
 429 0038 A181     		strh	r1, [r4, #12]	@ movhi
 430              		.loc 1 353 0
 431 003a E281     		strh	r2, [r4, #14]	@ movhi
 432              	.LVL13:
 433              		.loc 1 359 0
 434 003c BDE81040 		pop	{r4, lr}
 435              		.loc 1 358 0
 436 0040 FFF7FEBF 		b	usb_lld_disable_endpoints
 437              	.LVL14:
 438              	.L29:
 439              		.loc 1 348 0 discriminator 1
 440 0044 0248     		ldr	r0, .L30+4
 441 0046 FFF7FEFF 		bl	chDbgPanic
 442 004a DEE7     		b	.L27
 443              	.L31:
 444              		.align	2
 445              	.L30:
ARM GAS  /tmp/cc7pvxVj.s 			page 9


 446 004c A8000000 		.word	.LC8
 447 0050 8C000000 		.word	.LC7
 448              		.cfi_endproc
 449              	.LFE62:
 450              		.size	usbDisableEndpointsI, .-usbDisableEndpointsI
 451 0054 AFF30080 		.section	.text.usbStartReceiveI,"ax",%progbits
 451      AFF30080 
 451      AFF30080 
 452              		.align	2
 453              		.p2align 4,,15
 454              		.global	usbStartReceiveI
 455              		.thumb
 456              		.thumb_func
 457              		.type	usbStartReceiveI, %function
 458              	usbStartReceiveI:
 459              	.LFB63:
 460              		.loc 1 374 0
 461              		.cfi_startproc
 462              		@ args = 0, pretend = 0, frame = 0
 463              		@ frame_needed = 0, uses_anonymous_args = 0
 464              	.LVL15:
 465 0000 70B5     		push	{r4, r5, r6, lr}
 466              	.LCFI5:
 467              		.cfi_def_cfa_offset 16
 468              		.loc 1 374 0
 469 0002 0446     		mov	r4, r0
 470              		.cfi_offset 14, -4
 471              		.cfi_offset 6, -8
 472              		.cfi_offset 5, -12
 473              		.cfi_offset 4, -16
 474 0004 0E46     		mov	r6, r1
 475              		.loc 1 376 0
 476 0006 FFF7FEFF 		bl	chDbgCheckClassI
 477              	.LVL16:
 478              		.loc 1 377 0
 479 000a 9CB1     		cbz	r4, .L36
 480              	.L33:
 481              		.loc 1 379 0
 482 000c E389     		ldrh	r3, [r4, #14]
 483 000e 53FA06F5 		asrs	r5, r3, r6
 484 0012 15F00105 		ands	r5, r5, #1
 485 0016 01D0     		beq	.L37
 486              		.loc 1 380 0
 487 0018 0120     		movs	r0, #1
 488              		.loc 1 385 0
 489 001a 70BD     		pop	{r4, r5, r6, pc}
 490              	.L37:
 491              		.loc 1 382 0
 492 001c 0120     		movs	r0, #1
 493 001e 10FA06F2 		lsls	r2, r0, r6
 494 0022 42EA0303 		orr	r3, r2, r3
 495              		.loc 1 383 0
 496 0026 2046     		mov	r0, r4
 497              		.loc 1 382 0
 498 0028 E381     		strh	r3, [r4, #14]	@ movhi
 499              		.loc 1 383 0
 500 002a 3146     		mov	r1, r6
ARM GAS  /tmp/cc7pvxVj.s 			page 10


 501 002c FFF7FEFF 		bl	usb_lld_start_out
 502              		.loc 1 384 0
 503 0030 2846     		mov	r0, r5
 504 0032 70BD     		pop	{r4, r5, r6, pc}
 505              	.L36:
 506              		.loc 1 377 0 discriminator 1
 507 0034 0148     		ldr	r0, .L38
 508 0036 FFF7FEFF 		bl	chDbgPanic
 509 003a E7E7     		b	.L33
 510              	.L39:
 511              		.align	2
 512              	.L38:
 513 003c C4000000 		.word	.LC9
 514              		.cfi_endproc
 515              	.LFE63:
 516              		.size	usbStartReceiveI, .-usbStartReceiveI
 517              		.section	.text.usbStartTransmitI,"ax",%progbits
 518              		.align	2
 519              		.p2align 4,,15
 520              		.global	usbStartTransmitI
 521              		.thumb
 522              		.thumb_func
 523              		.type	usbStartTransmitI, %function
 524              	usbStartTransmitI:
 525              	.LFB64:
 526              		.loc 1 400 0
 527              		.cfi_startproc
 528              		@ args = 0, pretend = 0, frame = 0
 529              		@ frame_needed = 0, uses_anonymous_args = 0
 530              	.LVL17:
 531 0000 70B5     		push	{r4, r5, r6, lr}
 532              	.LCFI6:
 533              		.cfi_def_cfa_offset 16
 534              		.loc 1 400 0
 535 0002 0446     		mov	r4, r0
 536              		.cfi_offset 14, -4
 537              		.cfi_offset 6, -8
 538              		.cfi_offset 5, -12
 539              		.cfi_offset 4, -16
 540 0004 0E46     		mov	r6, r1
 541              		.loc 1 402 0
 542 0006 FFF7FEFF 		bl	chDbgCheckClassI
 543              	.LVL18:
 544              		.loc 1 403 0
 545 000a 9CB1     		cbz	r4, .L44
 546              	.L41:
 547              		.loc 1 405 0
 548 000c A389     		ldrh	r3, [r4, #12]
 549 000e 53FA06F5 		asrs	r5, r3, r6
 550 0012 15F00105 		ands	r5, r5, #1
 551 0016 01D0     		beq	.L45
 552              		.loc 1 406 0
 553 0018 0120     		movs	r0, #1
 554              		.loc 1 411 0
 555 001a 70BD     		pop	{r4, r5, r6, pc}
 556              	.L45:
 557              		.loc 1 408 0
ARM GAS  /tmp/cc7pvxVj.s 			page 11


 558 001c 0120     		movs	r0, #1
 559 001e 10FA06F2 		lsls	r2, r0, r6
 560 0022 42EA0303 		orr	r3, r2, r3
 561              		.loc 1 409 0
 562 0026 2046     		mov	r0, r4
 563              		.loc 1 408 0
 564 0028 A381     		strh	r3, [r4, #12]	@ movhi
 565              		.loc 1 409 0
 566 002a 3146     		mov	r1, r6
 567 002c FFF7FEFF 		bl	usb_lld_start_in
 568              		.loc 1 410 0
 569 0030 2846     		mov	r0, r5
 570 0032 70BD     		pop	{r4, r5, r6, pc}
 571              	.L44:
 572              		.loc 1 403 0 discriminator 1
 573 0034 0148     		ldr	r0, .L46
 574 0036 FFF7FEFF 		bl	chDbgPanic
 575 003a E7E7     		b	.L41
 576              	.L47:
 577              		.align	2
 578              	.L46:
 579 003c DC000000 		.word	.LC10
 580              		.cfi_endproc
 581              	.LFE64:
 582              		.size	usbStartTransmitI, .-usbStartTransmitI
 583              		.section	.text.usbStallReceiveI,"ax",%progbits
 584              		.align	2
 585              		.p2align 4,,15
 586              		.global	usbStallReceiveI
 587              		.thumb
 588              		.thumb_func
 589              		.type	usbStallReceiveI, %function
 590              	usbStallReceiveI:
 591              	.LFB65:
 592              		.loc 1 424 0
 593              		.cfi_startproc
 594              		@ args = 0, pretend = 0, frame = 0
 595              		@ frame_needed = 0, uses_anonymous_args = 0
 596              	.LVL19:
 597 0000 70B5     		push	{r4, r5, r6, lr}
 598              	.LCFI7:
 599              		.cfi_def_cfa_offset 16
 600              		.loc 1 424 0
 601 0002 0446     		mov	r4, r0
 602              		.cfi_offset 14, -4
 603              		.cfi_offset 6, -8
 604              		.cfi_offset 5, -12
 605              		.cfi_offset 4, -16
 606 0004 0E46     		mov	r6, r1
 607              		.loc 1 426 0
 608 0006 FFF7FEFF 		bl	chDbgCheckClassI
 609              	.LVL20:
 610              		.loc 1 427 0
 611 000a 6CB1     		cbz	r4, .L52
 612              	.L49:
 613              		.loc 1 429 0
 614 000c E089     		ldrh	r0, [r4, #14]
ARM GAS  /tmp/cc7pvxVj.s 			page 12


 615 000e 50FA06F5 		asrs	r5, r0, r6
 616 0012 15F00105 		ands	r5, r5, #1
 617 0016 01D0     		beq	.L53
 618              		.loc 1 430 0
 619 0018 0120     		movs	r0, #1
 620              		.loc 1 434 0
 621 001a 70BD     		pop	{r4, r5, r6, pc}
 622              	.L53:
 623              		.loc 1 432 0
 624 001c 2046     		mov	r0, r4
 625 001e 3146     		mov	r1, r6
 626 0020 FFF7FEFF 		bl	usb_lld_stall_out
 627              		.loc 1 433 0
 628 0024 2846     		mov	r0, r5
 629 0026 70BD     		pop	{r4, r5, r6, pc}
 630              	.L52:
 631              		.loc 1 427 0 discriminator 1
 632 0028 0148     		ldr	r0, .L54
 633 002a FFF7FEFF 		bl	chDbgPanic
 634 002e EDE7     		b	.L49
 635              	.L55:
 636              		.align	2
 637              	.L54:
 638 0030 F4000000 		.word	.LC11
 639              		.cfi_endproc
 640              	.LFE65:
 641              		.size	usbStallReceiveI, .-usbStallReceiveI
 642 0034 AFF30080 		.section	.text.usbStallTransmitI,"ax",%progbits
 642      AFF30080 
 642      AFF30080 
 643              		.align	2
 644              		.p2align 4,,15
 645              		.global	usbStallTransmitI
 646              		.thumb
 647              		.thumb_func
 648              		.type	usbStallTransmitI, %function
 649              	usbStallTransmitI:
 650              	.LFB66:
 651              		.loc 1 447 0
 652              		.cfi_startproc
 653              		@ args = 0, pretend = 0, frame = 0
 654              		@ frame_needed = 0, uses_anonymous_args = 0
 655              	.LVL21:
 656 0000 70B5     		push	{r4, r5, r6, lr}
 657              	.LCFI8:
 658              		.cfi_def_cfa_offset 16
 659              		.loc 1 447 0
 660 0002 0446     		mov	r4, r0
 661              		.cfi_offset 14, -4
 662              		.cfi_offset 6, -8
 663              		.cfi_offset 5, -12
 664              		.cfi_offset 4, -16
 665 0004 0E46     		mov	r6, r1
 666              		.loc 1 449 0
 667 0006 FFF7FEFF 		bl	chDbgCheckClassI
 668              	.LVL22:
 669              		.loc 1 450 0
ARM GAS  /tmp/cc7pvxVj.s 			page 13


 670 000a 6CB1     		cbz	r4, .L60
 671              	.L57:
 672              		.loc 1 452 0
 673 000c A089     		ldrh	r0, [r4, #12]
 674 000e 50FA06F5 		asrs	r5, r0, r6
 675 0012 15F00105 		ands	r5, r5, #1
 676 0016 01D0     		beq	.L61
 677              		.loc 1 453 0
 678 0018 0120     		movs	r0, #1
 679              		.loc 1 457 0
 680 001a 70BD     		pop	{r4, r5, r6, pc}
 681              	.L61:
 682              		.loc 1 455 0
 683 001c 2046     		mov	r0, r4
 684 001e 3146     		mov	r1, r6
 685 0020 FFF7FEFF 		bl	usb_lld_stall_in
 686              		.loc 1 456 0
 687 0024 2846     		mov	r0, r5
 688 0026 70BD     		pop	{r4, r5, r6, pc}
 689              	.L60:
 690              		.loc 1 450 0 discriminator 1
 691 0028 0148     		ldr	r0, .L62
 692 002a FFF7FEFF 		bl	chDbgPanic
 693 002e EDE7     		b	.L57
 694              	.L63:
 695              		.align	2
 696              	.L62:
 697 0030 0C010000 		.word	.LC12
 698              		.cfi_endproc
 699              	.LFE66:
 700              		.size	usbStallTransmitI, .-usbStallTransmitI
 701 0034 AFF30080 		.section	.text._usb_reset,"ax",%progbits
 701      AFF30080 
 701      AFF30080 
 702              		.align	2
 703              		.p2align 4,,15
 704              		.global	_usb_reset
 705              		.thumb
 706              		.thumb_func
 707              		.type	_usb_reset, %function
 708              	_usb_reset:
 709              	.LFB67:
 710              		.loc 1 468 0
 711              		.cfi_startproc
 712              		@ args = 0, pretend = 0, frame = 0
 713              		@ frame_needed = 0, uses_anonymous_args = 0
 714              		@ link register save eliminated.
 715              	.LVL23:
 716 0000 10B4     		push	{r4}
 717              	.LCFI9:
 718              		.cfi_def_cfa_offset 4
 719              		.loc 1 472 0
 720 0002 0022     		movs	r2, #0
 721              		.loc 1 471 0
 722 0004 0224     		movs	r4, #2
 723              		.cfi_offset 4, -4
 724 0006 0470     		strb	r4, [r0, #0]
ARM GAS  /tmp/cc7pvxVj.s 			page 14


 725              		.loc 1 472 0
 726 0008 A0F84820 		strh	r2, [r0, #72]	@ movhi
 727              		.loc 1 473 0
 728 000c 80F84A20 		strb	r2, [r0, #74]
 729              		.loc 1 474 0
 730 0010 80F84B20 		strb	r2, [r0, #75]
 731              		.loc 1 475 0
 732 0014 8281     		strh	r2, [r0, #12]	@ movhi
 733              		.loc 1 476 0
 734 0016 C281     		strh	r2, [r0, #14]	@ movhi
 735              	.LVL24:
 736              		.loc 1 480 0
 737 0018 0261     		str	r2, [r0, #16]
 738              	.LVL25:
 739 001a 4261     		str	r2, [r0, #20]
 740              	.LVL26:
 741 001c 8261     		str	r2, [r0, #24]
 742              	.LVL27:
 743 001e C261     		str	r2, [r0, #28]
 744              	.LVL28:
 745 0020 0262     		str	r2, [r0, #32]
 746              	.LVL29:
 747 0022 4262     		str	r2, [r0, #36]
 748              	.LVL30:
 749 0024 8262     		str	r2, [r0, #40]
 750              	.LVL31:
 751 0026 C262     		str	r2, [r0, #44]
 752              	.LVL32:
 753              		.loc 1 483 0
 754 0028 80F83020 		strb	r2, [r0, #48]
 755              		.loc 1 487 0
 756 002c 10BC     		pop	{r4}
 757              		.loc 1 486 0
 758 002e FFF7FEBF 		b	usb_lld_reset
 759              		.cfi_endproc
 760              	.LFE67:
 761              		.size	_usb_reset, .-_usb_reset
 762 0032 00BFAFF3 		.section	.text._usb_ep0setup,"ax",%progbits
 762      0080AFF3 
 762      0080AFF3 
 762      0080
 763              		.align	2
 764              		.p2align 4,,15
 765              		.global	_usb_ep0setup
 766              		.thumb
 767              		.thumb_func
 768              		.type	_usb_ep0setup, %function
 769              	_usb_ep0setup:
 770              	.LFB68:
 771              		.loc 1 499 0
 772              		.cfi_startproc
 773              		@ args = 0, pretend = 0, frame = 0
 774              		@ frame_needed = 0, uses_anonymous_args = 0
 775              	.LVL33:
 776              		.loc 1 502 0
 777 0000 0022     		movs	r2, #0
 778              		.loc 1 499 0
ARM GAS  /tmp/cc7pvxVj.s 			page 15


 779 0002 2DE9F041 		push	{r4, r5, r6, r7, r8, lr}
 780              	.LCFI10:
 781              		.cfi_def_cfa_offset 24
 782              		.loc 1 499 0
 783 0006 0446     		mov	r4, r0
 784              		.cfi_offset 14, -4
 785              		.cfi_offset 8, -8
 786              		.cfi_offset 7, -12
 787              		.cfi_offset 6, -16
 788              		.cfi_offset 5, -20
 789              		.cfi_offset 4, -24
 790              		.loc 1 502 0
 791 0008 80F83020 		strb	r2, [r0, #48]
 792              		.loc 1 503 0
 793 000c 00F14002 		add	r2, r0, #64
 794 0010 FFF7FEFF 		bl	usb_lld_read_setup
 795              	.LVL34:
 796              		.loc 1 507 0
 797 0014 6368     		ldr	r3, [r4, #4]
 798 0016 9B68     		ldr	r3, [r3, #8]
 799 0018 002B     		cmp	r3, #0
 800 001a 1FD0     		beq	.L66
 801              		.loc 1 508 0 discriminator 1
 802 001c 2046     		mov	r0, r4
 803 001e 9847     		blx	r3
 804              		.loc 1 507 0 discriminator 1
 805 0020 E0B1     		cbz	r0, .L66
 806              		.loc 1 520 0
 807 0022 A56B     		ldr	r5, [r4, #56]
 808 0024 94F84030 		ldrb	r3, [r4, #64]	@ zero_extendqisi2
 809              	.L103:
 810              		.loc 1 527 0
 811 0028 B4F84600 		ldrh	r0, [r4, #70]
 812              	.LVL35:
 813              		.loc 1 529 0
 814 002c A842     		cmp	r0, r5
 815              		.loc 1 530 0
 816 002e 3CBF     		itt	cc
 817 0030 A063     		strcc	r0, [r4, #56]
 818 0032 0546     		movcc	r5, r0
 819              		.loc 1 531 0
 820 0034 13F0800F 		tst	r3, #128
 821 0038 7BD1     		bne	.L106
 822              		.loc 1 549 0
 823 003a 002D     		cmp	r5, #0
 824 003c 6AD1     		bne	.L107
 825              		.loc 1 558 0
 826 003e 0420     		movs	r0, #4
 827              	.LVL36:
 828 0040 84F83000 		strb	r0, [r4, #48]
 829              		.loc 1 559 0
 830 0044 2946     		mov	r1, r5
 831 0046 2046     		mov	r0, r4
 832 0048 2A46     		mov	r2, r5
 833 004a 2B46     		mov	r3, r5
 834 004c FFF7FEFF 		bl	usb_lld_prepare_transmit
 835              		.loc 1 560 0
ARM GAS  /tmp/cc7pvxVj.s 			page 16


 836 0050 2046     		mov	r0, r4
 837 0052 2946     		mov	r1, r5
 838              		.loc 1 563 0
 839 0054 BDE8F041 		pop	{r4, r5, r6, r7, r8, lr}
 840              		.loc 1 560 0
 841 0058 FFF7FEBF 		b	usb_lld_start_in
 842              	.L66:
 843              		.loc 1 511 0
 844 005c 94F84030 		ldrb	r3, [r4, #64]	@ zero_extendqisi2
 845 0060 13F06006 		ands	r6, r3, #96
 846 0064 1A46     		mov	r2, r3
 847 0066 12D0     		beq	.L108
 848              	.L68:
 849              		.loc 1 516 0
 850 0068 0021     		movs	r1, #0
 851 006a 2046     		mov	r0, r4
 852 006c FFF7FEFF 		bl	usb_lld_stall_in
 853              		.loc 1 517 0
 854 0070 2046     		mov	r0, r4
 855 0072 0021     		movs	r1, #0
 856 0074 FFF7FEFF 		bl	usb_lld_stall_out
 857              		.loc 1 518 0
 858 0078 6268     		ldr	r2, [r4, #4]
 859 007a 1368     		ldr	r3, [r2, #0]
 860 007c 13B1     		cbz	r3, .L97
 861              		.loc 1 518 0 is_stmt 0 discriminator 1
 862 007e 2046     		mov	r0, r4
 863 0080 0521     		movs	r1, #5
 864 0082 9847     		blx	r3
 865              	.L97:
 866              		.loc 1 519 0 is_stmt 1
 867 0084 0523     		movs	r3, #5
 868 0086 84F83030 		strb	r3, [r4, #48]
 869              		.loc 1 563 0
 870 008a BDE8F081 		pop	{r4, r5, r6, r7, r8, pc}
 871              	.L108:
 872              	.LVL37:
 873              	.LBB4:
 874              	.LBB5:
 875              		.loc 1 95 0
 876 008e 94F84170 		ldrb	r7, [r4, #65]	@ zero_extendqisi2
 877              		.loc 1 93 0
 878 0092 03F07F01 		and	r1, r3, #127
 879              		.loc 1 94 0
 880 0096 41EA0727 		orr	r7, r1, r7, lsl #8
 881              		.loc 1 93 0
 882 009a B7F5407F 		cmp	r7, #768
 883 009e 00F0A980 		beq	.L75
 884 00a2 16DD     		ble	.L109
 885 00a4 B7F5C06F 		cmp	r7, #1536
 886 00a8 00F0CE80 		beq	.L78
 887 00ac 60DD     		ble	.L110
 888 00ae B7F5106F 		cmp	r7, #2304
 889 00b2 00F0B680 		beq	.L80
 890 00b6 40F6024C 		movw	ip, #3074
 891 00ba 6745     		cmp	r7, ip
 892 00bc 6BD0     		beq	.L71
ARM GAS  /tmp/cc7pvxVj.s 			page 17


 893 00be B7F5006F 		cmp	r7, #2048
 894 00c2 D1D1     		bne	.L68
 895              		.loc 1 142 0
 896 00c4 0125     		movs	r5, #1
 897 00c6 04F14B00 		add	r0, r4, #75
 898 00ca 6063     		str	r0, [r4, #52]
 899 00cc A563     		str	r5, [r4, #56]
 900 00ce E663     		str	r6, [r4, #60]
 901 00d0 AAE7     		b	.L103
 902              	.L109:
 903              		.loc 1 93 0
 904 00d2 022F     		cmp	r7, #2
 905 00d4 77D0     		beq	.L72
 906 00d6 59DD     		ble	.L111
 907 00d8 B7F5807F 		cmp	r7, #256
 908 00dc 62D0     		beq	.L73
 909 00de B7F5817F 		cmp	r7, #258
 910 00e2 C1D1     		bne	.L68
 911              		.loc 1 188 0
 912 00e4 94F84200 		ldrb	r0, [r4, #66]	@ zero_extendqisi2
 913 00e8 0028     		cmp	r0, #0
 914 00ea BDD1     		bne	.L68
 915              		.loc 1 191 0
 916 00ec 94F84430 		ldrb	r3, [r4, #68]	@ zero_extendqisi2
 917 00f0 13F00F01 		ands	r1, r3, #15
 918 00f4 08D0     		beq	.L95
 919              		.loc 1 192 0
 920 00f6 13F0800F 		tst	r3, #128
 921 00fa 40F0E080 		bne	.L112
 922              		.loc 1 195 0
 923 00fe 2046     		mov	r0, r4
 924 0100 FFF7FEFF 		bl	usb_lld_clear_out
 925 0104 94F84020 		ldrb	r2, [r4, #64]	@ zero_extendqisi2
 926              	.L95:
 927              		.loc 1 210 0
 928 0108 0025     		movs	r5, #0
 929 010a 6563     		str	r5, [r4, #52]
 930 010c A563     		str	r5, [r4, #56]
 931 010e E563     		str	r5, [r4, #60]
 932 0110 1346     		mov	r3, r2
 933 0112 89E7     		b	.L103
 934              	.LVL38:
 935              	.L107:
 936              	.LBE5:
 937              	.LBE4:
 938              		.loc 1 551 0
 939 0114 0323     		movs	r3, #3
 940              		.loc 1 552 0
 941 0116 0021     		movs	r1, #0
 942              		.loc 1 551 0
 943 0118 84F83030 		strb	r3, [r4, #48]
 944              		.loc 1 552 0
 945 011c 2046     		mov	r0, r4
 946              	.LVL39:
 947 011e 626B     		ldr	r2, [r4, #52]
 948 0120 2B46     		mov	r3, r5
 949 0122 FFF7FEFF 		bl	usb_lld_prepare_receive
ARM GAS  /tmp/cc7pvxVj.s 			page 18


 950              		.loc 1 553 0
 951 0126 2046     		mov	r0, r4
 952 0128 0021     		movs	r1, #0
 953              		.loc 1 563 0
 954 012a BDE8F041 		pop	{r4, r5, r6, r7, r8, lr}
 955              		.loc 1 553 0
 956 012e FFF7FEBF 		b	usb_lld_start_out
 957              	.LVL40:
 958              	.L106:
 959              		.loc 1 533 0
 960 0132 75B1     		cbz	r5, .L101
 961              		.loc 1 535 0
 962 0134 0122     		movs	r2, #1
 963              		.loc 1 536 0
 964 0136 0021     		movs	r1, #0
 965              		.loc 1 535 0
 966 0138 84F83020 		strb	r2, [r4, #48]
 967              		.loc 1 536 0
 968 013c 2046     		mov	r0, r4
 969              	.LVL41:
 970 013e 626B     		ldr	r2, [r4, #52]
 971 0140 2B46     		mov	r3, r5
 972 0142 FFF7FEFF 		bl	usb_lld_prepare_transmit
 973              		.loc 1 537 0
 974 0146 2046     		mov	r0, r4
 975 0148 0021     		movs	r1, #0
 976              		.loc 1 563 0
 977 014a BDE8F041 		pop	{r4, r5, r6, r7, r8, lr}
 978              		.loc 1 537 0
 979 014e FFF7FEBF 		b	usb_lld_start_in
 980              	.LVL42:
 981              	.L101:
 982              		.loc 1 542 0
 983 0152 0221     		movs	r1, #2
 984 0154 84F83010 		strb	r1, [r4, #48]
 985              		.loc 1 543 0
 986 0158 2046     		mov	r0, r4
 987              	.LVL43:
 988 015a 2946     		mov	r1, r5
 989 015c 2A46     		mov	r2, r5
 990 015e 2B46     		mov	r3, r5
 991 0160 FFF7FEFF 		bl	usb_lld_prepare_receive
 992              		.loc 1 544 0
 993 0164 2046     		mov	r0, r4
 994 0166 2946     		mov	r1, r5
 995              		.loc 1 563 0
 996 0168 BDE8F041 		pop	{r4, r5, r6, r7, r8, lr}
 997              		.loc 1 544 0
 998 016c FFF7FEBF 		b	usb_lld_start_out
 999              	.LVL44:
 1000              	.L110:
 1001              	.LBB7:
 1002              	.LBB6:
 1003              		.loc 1 93 0
 1004 0170 40F20230 		movw	r0, #770
 1005 0174 8742     		cmp	r7, r0
 1006 0176 7CD0     		beq	.L76
ARM GAS  /tmp/cc7pvxVj.s 			page 19


 1007 0178 B7F5A06F 		cmp	r7, #1280
 1008 017c 7FF474AF 		bne	.L68
 1009              		.loc 1 128 0
 1010 0180 554D     		ldr	r5, .L115
 1011 0182 6663     		str	r6, [r4, #52]
 1012 0184 E563     		str	r5, [r4, #60]
 1013 0186 A663     		str	r6, [r4, #56]
 1014 0188 3546     		mov	r5, r6
 1015 018a 4DE7     		b	.L103
 1016              	.L111:
 1017              		.loc 1 93 0
 1018 018c 002F     		cmp	r7, #0
 1019 018e 41D0     		beq	.L70
 1020 0190 012F     		cmp	r7, #1
 1021 0192 7FF469AF 		bne	.L68
 1022              	.L71:
 1023              		.loc 1 158 0
 1024 0196 5149     		ldr	r1, .L115+4
 1025 0198 0225     		movs	r5, #2
 1026 019a 0022     		movs	r2, #0
 1027 019c 6163     		str	r1, [r4, #52]
 1028 019e A563     		str	r5, [r4, #56]
 1029 01a0 E263     		str	r2, [r4, #60]
 1030 01a2 41E7     		b	.L103
 1031              	.L73:
 1032              		.loc 1 103 0
 1033 01a4 94F842E0 		ldrb	lr, [r4, #66]	@ zero_extendqisi2
 1034 01a8 BEF1010F 		cmp	lr, #1
 1035 01ac 7FF45CAF 		bne	.L68
 1036              		.loc 1 104 0
 1037 01b0 B4F84810 		ldrh	r1, [r4, #72]
 1038              		.loc 1 105 0
 1039 01b4 6663     		str	r6, [r4, #52]
 1040              		.loc 1 104 0
 1041 01b6 21F00205 		bic	r5, r1, #2
 1042 01ba A4F84850 		strh	r5, [r4, #72]	@ movhi
 1043              		.loc 1 105 0
 1044 01be A663     		str	r6, [r4, #56]
 1045 01c0 E663     		str	r6, [r4, #60]
 1046 01c2 3546     		mov	r5, r6
 1047 01c4 30E7     		b	.L103
 1048              	.L72:
 1049              		.loc 1 162 0
 1050 01c6 94F84410 		ldrb	r1, [r4, #68]	@ zero_extendqisi2
 1051 01ca 11F0800F 		tst	r1, #128
 1052 01ce 67D1     		bne	.L113
 1053              		.loc 1 175 0
 1054 01d0 2046     		mov	r0, r4
 1055 01d2 01F00F01 		and	r1, r1, #15
 1056 01d6 FFF7FEFF 		bl	usb_lld_get_status_out
 1057 01da 0128     		cmp	r0, #1
 1058 01dc 67D0     		beq	.L91
 1059              	.L105:
 1060 01de 0228     		cmp	r0, #2
 1061 01e0 7FF442AF 		bne	.L68
 1062              		.loc 1 180 0
 1063 01e4 3E4B     		ldr	r3, .L115+8
ARM GAS  /tmp/cc7pvxVj.s 			page 20


 1064 01e6 A063     		str	r0, [r4, #56]
 1065 01e8 6363     		str	r3, [r4, #52]
 1066 01ea E663     		str	r6, [r4, #60]
 1067 01ec 94F84030 		ldrb	r3, [r4, #64]	@ zero_extendqisi2
 1068 01f0 0546     		mov	r5, r0
 1069 01f2 19E7     		b	.L103
 1070              	.L75:
 1071              		.loc 1 112 0
 1072 01f4 94F84200 		ldrb	r0, [r4, #66]	@ zero_extendqisi2
 1073 01f8 0128     		cmp	r0, #1
 1074 01fa 7FF435AF 		bne	.L68
 1075              		.loc 1 113 0
 1076 01fe B4F84820 		ldrh	r2, [r4, #72]
 1077              		.loc 1 114 0
 1078 0202 6663     		str	r6, [r4, #52]
 1079              		.loc 1 113 0
 1080 0204 42F0020C 		orr	ip, r2, #2
 1081 0208 A4F848C0 		strh	ip, [r4, #72]	@ movhi
 1082              		.loc 1 114 0
 1083 020c A663     		str	r6, [r4, #56]
 1084 020e E663     		str	r6, [r4, #60]
 1085 0210 3546     		mov	r5, r6
 1086 0212 09E7     		b	.L103
 1087              	.L70:
 1088              		.loc 1 98 0
 1089 0214 0225     		movs	r5, #2
 1090 0216 04F14802 		add	r2, r4, #72
 1091 021a 6263     		str	r2, [r4, #52]
 1092 021c A563     		str	r5, [r4, #56]
 1093 021e E763     		str	r7, [r4, #60]
 1094 0220 02E7     		b	.L103
 1095              	.L80:
 1096              		.loc 1 146 0
 1097 0222 94F84250 		ldrb	r5, [r4, #66]	@ zero_extendqisi2
 1098 0226 84F84B50 		strb	r5, [r4, #75]
 1099              		.loc 1 147 0
 1100 022a 002D     		cmp	r5, #0
 1101 022c 35D1     		bne	.L85
 1102              		.loc 1 148 0
 1103 022e 0323     		movs	r3, #3
 1104 0230 2370     		strb	r3, [r4, #0]
 1105              	.L86:
 1106              		.loc 1 151 0
 1107 0232 6068     		ldr	r0, [r4, #4]
 1108 0234 0368     		ldr	r3, [r0, #0]
 1109 0236 002B     		cmp	r3, #0
 1110 0238 3FF466AF 		beq	.L95
 1111 023c 2046     		mov	r0, r4
 1112 023e 0221     		movs	r1, #2
 1113 0240 9847     		blx	r3
 1114 0242 94F84020 		ldrb	r2, [r4, #64]	@ zero_extendqisi2
 1115 0246 5FE7     		b	.L95
 1116              	.L78:
 1117              		.loc 1 133 0
 1118 0248 6368     		ldr	r3, [r4, #4]
 1119 024a 2046     		mov	r0, r4
 1120 024c 5D68     		ldr	r5, [r3, #4]
ARM GAS  /tmp/cc7pvxVj.s 			page 21


 1121 024e 94F84310 		ldrb	r1, [r4, #67]	@ zero_extendqisi2
 1122 0252 94F84220 		ldrb	r2, [r4, #66]	@ zero_extendqisi2
 1123 0256 B4F84430 		ldrh	r3, [r4, #68]
 1124 025a A847     		blx	r5
 1125              	.LVL45:
 1126              		.loc 1 136 0
 1127 025c 0028     		cmp	r0, #0
 1128 025e 3FF403AF 		beq	.L68
 1129              		.loc 1 138 0
 1130 0262 4168     		ldr	r1, [r0, #4]
 1131 0264 0568     		ldr	r5, [r0, #0]
 1132 0266 94F84030 		ldrb	r3, [r4, #64]	@ zero_extendqisi2
 1133 026a 6163     		str	r1, [r4, #52]
 1134 026c A563     		str	r5, [r4, #56]
 1135 026e E663     		str	r6, [r4, #60]
 1136 0270 DAE6     		b	.L103
 1137              	.LVL46:
 1138              	.L76:
 1139              		.loc 1 201 0
 1140 0272 94F84210 		ldrb	r1, [r4, #66]	@ zero_extendqisi2
 1141 0276 0029     		cmp	r1, #0
 1142 0278 7FF4F6AE 		bne	.L68
 1143              		.loc 1 204 0
 1144 027c 94F84430 		ldrb	r3, [r4, #68]	@ zero_extendqisi2
 1145 0280 13F00F01 		ands	r1, r3, #15
 1146 0284 3FF440AF 		beq	.L95
 1147              		.loc 1 205 0
 1148 0288 13F0800F 		tst	r3, #128
 1149 028c 1DD1     		bne	.L114
 1150              		.loc 1 208 0
 1151 028e 2046     		mov	r0, r4
 1152 0290 FFF7FEFF 		bl	usb_lld_stall_out
 1153 0294 94F84020 		ldrb	r2, [r4, #64]	@ zero_extendqisi2
 1154 0298 36E7     		b	.L95
 1155              	.L85:
 1156              		.loc 1 150 0
 1157 029a 0421     		movs	r1, #4
 1158 029c 2170     		strb	r1, [r4, #0]
 1159 029e C8E7     		b	.L86
 1160              	.L113:
 1161              		.loc 1 163 0
 1162 02a0 2046     		mov	r0, r4
 1163 02a2 01F00F01 		and	r1, r1, #15
 1164 02a6 FFF7FEFF 		bl	usb_lld_get_status_in
 1165 02aa 0128     		cmp	r0, #1
 1166 02ac 97D1     		bne	.L105
 1167              	.L91:
 1168              		.loc 1 177 0
 1169 02ae 0D4D     		ldr	r5, .L115+12
 1170 02b0 A763     		str	r7, [r4, #56]
 1171 02b2 6563     		str	r5, [r4, #52]
 1172 02b4 E663     		str	r6, [r4, #60]
 1173 02b6 94F84030 		ldrb	r3, [r4, #64]	@ zero_extendqisi2
 1174 02ba 3D46     		mov	r5, r7
 1175 02bc B4E6     		b	.L103
 1176              	.L112:
 1177              		.loc 1 193 0
ARM GAS  /tmp/cc7pvxVj.s 			page 22


 1178 02be 2046     		mov	r0, r4
 1179 02c0 FFF7FEFF 		bl	usb_lld_clear_in
 1180 02c4 94F84020 		ldrb	r2, [r4, #64]	@ zero_extendqisi2
 1181 02c8 1EE7     		b	.L95
 1182              	.L114:
 1183              		.loc 1 206 0
 1184 02ca 2046     		mov	r0, r4
 1185 02cc FFF7FEFF 		bl	usb_lld_stall_in
 1186 02d0 94F84020 		ldrb	r2, [r4, #64]	@ zero_extendqisi2
 1187 02d4 18E7     		b	.L95
 1188              	.L116:
 1189 02d6 00BF     		.align	2
 1190              	.L115:
 1191 02d8 00000000 		.word	set_address
 1192 02dc 00000000 		.word	.LANCHOR0
 1193 02e0 00000000 		.word	.LANCHOR2
 1194 02e4 00000000 		.word	.LANCHOR1
 1195              	.LBE6:
 1196              	.LBE7:
 1197              		.cfi_endproc
 1198              	.LFE68:
 1199              		.size	_usb_ep0setup, .-_usb_ep0setup
 1200 02e8 AFF30080 		.section	.text._usb_ep0in,"ax",%progbits
 1200      AFF30080 
 1201              		.align	2
 1202              		.p2align 4,,15
 1203              		.global	_usb_ep0in
 1204              		.thumb
 1205              		.thumb_func
 1206              		.type	_usb_ep0in, %function
 1207              	_usb_ep0in:
 1208              	.LFB69:
 1209              		.loc 1 575 0
 1210              		.cfi_startproc
 1211              		@ args = 0, pretend = 0, frame = 0
 1212              		@ frame_needed = 0, uses_anonymous_args = 0
 1213              	.LVL47:
 1214              		.loc 1 579 0
 1215 0000 90F83030 		ldrb	r3, [r0, #48]	@ zero_extendqisi2
 1216              		.loc 1 575 0
 1217 0004 70B5     		push	{r4, r5, r6, lr}
 1218              	.LCFI11:
 1219              		.cfi_def_cfa_offset 16
 1220              		.loc 1 579 0
 1221 0006 012B     		cmp	r3, #1
 1222              		.loc 1 575 0
 1223 0008 0446     		mov	r4, r0
 1224              		.cfi_offset 14, -4
 1225              		.cfi_offset 6, -8
 1226              		.cfi_offset 5, -12
 1227              		.cfi_offset 4, -16
 1228              		.loc 1 579 0
 1229 000a 19D0     		beq	.L119
 1230 000c 042B     		cmp	r3, #4
 1231 000e 10D0     		beq	.L126
 1232              		.loc 1 609 0
 1233 0010 0021     		movs	r1, #0
ARM GAS  /tmp/cc7pvxVj.s 			page 23


 1234              	.LVL48:
 1235 0012 FFF7FEFF 		bl	usb_lld_stall_in
 1236              	.LVL49:
 1237              		.loc 1 610 0
 1238 0016 0021     		movs	r1, #0
 1239 0018 2046     		mov	r0, r4
 1240 001a FFF7FEFF 		bl	usb_lld_stall_out
 1241              		.loc 1 611 0
 1242 001e 6168     		ldr	r1, [r4, #4]
 1243 0020 0B68     		ldr	r3, [r1, #0]
 1244 0022 13B1     		cbz	r3, .L124
 1245              		.loc 1 611 0 is_stmt 0 discriminator 1
 1246 0024 2046     		mov	r0, r4
 1247 0026 0521     		movs	r1, #5
 1248 0028 9847     		blx	r3
 1249              	.L124:
 1250              		.loc 1 612 0 is_stmt 1
 1251 002a 0522     		movs	r2, #5
 1252 002c 84F83020 		strb	r2, [r4, #48]
 1253 0030 70BD     		pop	{r4, r5, r6, pc}
 1254              	.LVL50:
 1255              	.L126:
 1256              		.loc 1 599 0
 1257 0032 C36B     		ldr	r3, [r0, #60]
 1258 0034 03B1     		cbz	r3, .L122
 1259              		.loc 1 600 0
 1260 0036 9847     		blx	r3
 1261              	.LVL51:
 1262              	.L122:
 1263              		.loc 1 601 0
 1264 0038 0023     		movs	r3, #0
 1265 003a 84F83030 		strb	r3, [r4, #48]
 1266              		.loc 1 602 0
 1267 003e 70BD     		pop	{r4, r5, r6, pc}
 1268              	.LVL52:
 1269              	.L119:
 1270              		.loc 1 585 0
 1271 0040 836B     		ldr	r3, [r0, #56]
 1272              		.loc 1 581 0
 1273 0042 B0F84620 		ldrh	r2, [r0, #70]
 1274              		.loc 1 585 0
 1275 0046 9A42     		cmp	r2, r3
 1276 0048 06D9     		bls	.L121
 1277              		.loc 1 586 0 discriminator 1
 1278 004a 0269     		ldr	r2, [r0, #16]
 1279 004c 118A     		ldrh	r1, [r2, #16]
 1280              	.LVL53:
 1281 004e B3FBF1F5 		udiv	r5, r3, r1
 1282 0052 01FB1535 		mls	r5, r1, r5, r3
 1283              		.loc 1 585 0 discriminator 1
 1284 0056 75B1     		cbz	r5, .L127
 1285              	.L121:
 1286              		.loc 1 594 0
 1287 0058 0021     		movs	r1, #0
 1288              		.loc 1 593 0
 1289 005a 0220     		movs	r0, #2
 1290              		.loc 1 594 0
ARM GAS  /tmp/cc7pvxVj.s 			page 24


 1291 005c 0A46     		mov	r2, r1
 1292 005e 0B46     		mov	r3, r1
 1293              		.loc 1 593 0
 1294 0060 84F83000 		strb	r0, [r4, #48]
 1295              		.loc 1 594 0
 1296 0064 2046     		mov	r0, r4
 1297 0066 FFF7FEFF 		bl	usb_lld_prepare_receive
 1298              	.LVL54:
 1299              		.loc 1 595 0
 1300 006a 2046     		mov	r0, r4
 1301 006c 0021     		movs	r1, #0
 1302              		.loc 1 613 0
 1303 006e BDE87040 		pop	{r4, r5, r6, lr}
 1304              		.loc 1 595 0
 1305 0072 FFF7FEBF 		b	usb_lld_start_out
 1306              	.LVL55:
 1307              	.L127:
 1308              		.loc 1 587 0
 1309 0076 2946     		mov	r1, r5
 1310 0078 2A46     		mov	r2, r5
 1311 007a 2B46     		mov	r3, r5
 1312 007c FFF7FEFF 		bl	usb_lld_prepare_transmit
 1313              	.LVL56:
 1314              		.loc 1 588 0
 1315 0080 2046     		mov	r0, r4
 1316 0082 2946     		mov	r1, r5
 1317              		.loc 1 613 0
 1318 0084 BDE87040 		pop	{r4, r5, r6, lr}
 1319              		.loc 1 588 0
 1320 0088 FFF7FEBF 		b	usb_lld_start_in
 1321              		.cfi_endproc
 1322              	.LFE69:
 1323              		.size	_usb_ep0in, .-_usb_ep0in
 1324 008c AFF30080 		.section	.text._usb_ep0out,"ax",%progbits
 1325              		.align	2
 1326              		.p2align 4,,15
 1327              		.global	_usb_ep0out
 1328              		.thumb
 1329              		.thumb_func
 1330              		.type	_usb_ep0out, %function
 1331              	_usb_ep0out:
 1332              	.LFB70:
 1333              		.loc 1 625 0
 1334              		.cfi_startproc
 1335              		@ args = 0, pretend = 0, frame = 0
 1336              		@ frame_needed = 0, uses_anonymous_args = 0
 1337              	.LVL57:
 1338              		.loc 1 628 0
 1339 0000 90F83030 		ldrb	r3, [r0, #48]	@ zero_extendqisi2
 1340              		.loc 1 625 0
 1341 0004 70B5     		push	{r4, r5, r6, lr}
 1342              	.LCFI12:
 1343              		.cfi_def_cfa_offset 16
 1344              		.loc 1 628 0
 1345 0006 022B     		cmp	r3, #2
 1346              		.loc 1 625 0
 1347 0008 0446     		mov	r4, r0
ARM GAS  /tmp/cc7pvxVj.s 			page 25


 1348              		.cfi_offset 14, -4
 1349              		.cfi_offset 6, -8
 1350              		.cfi_offset 5, -12
 1351              		.cfi_offset 4, -16
 1352              		.loc 1 628 0
 1353 000a 21D0     		beq	.L130
 1354 000c 032B     		cmp	r3, #3
 1355 000e 11D0     		beq	.L135
 1356              	.LVL58:
 1357              	.L129:
 1358              		.loc 1 650 0
 1359 0010 0021     		movs	r1, #0
 1360 0012 2046     		mov	r0, r4
 1361              	.LVL59:
 1362 0014 FFF7FEFF 		bl	usb_lld_stall_in
 1363              		.loc 1 651 0
 1364 0018 2046     		mov	r0, r4
 1365 001a 0021     		movs	r1, #0
 1366 001c FFF7FEFF 		bl	usb_lld_stall_out
 1367              		.loc 1 652 0
 1368 0020 6368     		ldr	r3, [r4, #4]
 1369 0022 1B68     		ldr	r3, [r3, #0]
 1370 0024 13B1     		cbz	r3, .L134
 1371              		.loc 1 652 0 is_stmt 0 discriminator 1
 1372 0026 2046     		mov	r0, r4
 1373 0028 0521     		movs	r1, #5
 1374 002a 9847     		blx	r3
 1375              	.L134:
 1376              		.loc 1 653 0 is_stmt 1
 1377 002c 0521     		movs	r1, #5
 1378 002e 84F83010 		strb	r1, [r4, #48]
 1379 0032 70BD     		pop	{r4, r5, r6, pc}
 1380              	.LVL60:
 1381              	.L135:
 1382              		.loc 1 632 0
 1383 0034 0021     		movs	r1, #0
 1384              	.LVL61:
 1385              		.loc 1 631 0
 1386 0036 0425     		movs	r5, #4
 1387              		.loc 1 632 0
 1388 0038 0A46     		mov	r2, r1
 1389 003a 0B46     		mov	r3, r1
 1390              		.loc 1 631 0
 1391 003c 80F83050 		strb	r5, [r0, #48]
 1392              		.loc 1 632 0
 1393 0040 FFF7FEFF 		bl	usb_lld_prepare_transmit
 1394              		.loc 1 633 0
 1395 0044 2046     		mov	r0, r4
 1396 0046 0021     		movs	r1, #0
 1397              		.loc 1 654 0
 1398 0048 BDE87040 		pop	{r4, r5, r6, lr}
 1399              		.loc 1 633 0
 1400 004c FFF7FEBF 		b	usb_lld_start_in
 1401              	.LVL62:
 1402              	.L130:
 1403              		.loc 1 638 0
 1404 0050 0269     		ldr	r2, [r0, #16]
ARM GAS  /tmp/cc7pvxVj.s 			page 26


 1405 0052 9169     		ldr	r1, [r2, #24]
 1406              	.LVL63:
 1407 0054 CB68     		ldr	r3, [r1, #12]
 1408 0056 002B     		cmp	r3, #0
 1409 0058 DAD1     		bne	.L129
 1410              		.loc 1 640 0
 1411 005a C36B     		ldr	r3, [r0, #60]
 1412 005c 03B1     		cbz	r3, .L132
 1413              		.loc 1 641 0
 1414 005e 9847     		blx	r3
 1415              	.L132:
 1416              		.loc 1 642 0
 1417 0060 0020     		movs	r0, #0
 1418 0062 84F83000 		strb	r0, [r4, #48]
 1419              		.loc 1 643 0
 1420 0066 70BD     		pop	{r4, r5, r6, pc}
 1421              		.cfi_endproc
 1422              	.LFE70:
 1423              		.size	_usb_ep0out, .-_usb_ep0out
 1424 0068 AFF30080 		.section	.rodata.zero_status,"a",%progbits
 1424      AFF30080 
 1425              		.align	2
 1426              		.set	.LANCHOR0,. + 0
 1427              		.type	zero_status, %object
 1428              		.size	zero_status, 2
 1429              	zero_status:
 1430 0000 0000     		.space	2
 1431 0002 0000     		.section	.rodata.active_status,"a",%progbits
 1432              		.align	2
 1433              		.set	.LANCHOR2,. + 0
 1434              		.type	active_status, %object
 1435              		.size	active_status, 2
 1436              	active_status:
 1437 0000 0000     		.space	2
 1438 0002 0000     		.section	.rodata.str1.4,"aMS",%progbits,1
 1439              		.align	2
 1440              	.LC0:
 1441 0000 22757362 		.ascii	"\"usbStart\"()\000"
 1441      53746172 
 1441      74222829 
 1441      00
 1442 000d 000000   		.space	3
 1443              	.LC1:
 1444 0010 75736253 		.ascii	"usbStart(), #1\000"
 1444      74617274 
 1444      28292C20 
 1444      233100
 1445 001f 00       		.space	1
 1446              	.LC2:
 1447 0020 22757362 		.ascii	"\"usbStop\"()\000"
 1447      53746F70 
 1447      22282900 
 1448              	.LC3:
 1449 002c 75736253 		.ascii	"usbStop(), #1\000"
 1449      746F7028 
 1449      292C2023 
 1449      3100
ARM GAS  /tmp/cc7pvxVj.s 			page 27


 1450 003a 0000     		.space	2
 1451              	.LC4:
 1452 003c 22757362 		.ascii	"\"usbInitEndpointI\"()\000"
 1452      496E6974 
 1452      456E6470 
 1452      6F696E74 
 1452      49222829 
 1453 0051 000000   		.space	3
 1454              	.LC5:
 1455 0054 75736245 		.ascii	"usbEnableEndpointI(), #1\000"
 1455      6E61626C 
 1455      65456E64 
 1455      706F696E 
 1455      74492829 
 1456 006d 000000   		.space	3
 1457              	.LC6:
 1458 0070 75736245 		.ascii	"usbEnableEndpointI(), #2\000"
 1458      6E61626C 
 1458      65456E64 
 1458      706F696E 
 1458      74492829 
 1459 0089 000000   		.space	3
 1460              	.LC7:
 1461 008c 22757362 		.ascii	"\"usbDisableEndpointsI\"()\000"
 1461      44697361 
 1461      626C6545 
 1461      6E64706F 
 1461      696E7473 
 1462 00a5 000000   		.space	3
 1463              	.LC8:
 1464 00a8 75736244 		.ascii	"usbDisableEndpointsI(), #1\000"
 1464      69736162 
 1464      6C65456E 
 1464      64706F69 
 1464      6E747349 
 1465 00c3 00       		.space	1
 1466              	.LC9:
 1467 00c4 22757362 		.ascii	"\"usbStartReceiveI\"()\000"
 1467      53746172 
 1467      74526563 
 1467      65697665 
 1467      49222829 
 1468 00d9 000000   		.space	3
 1469              	.LC10:
 1470 00dc 22757362 		.ascii	"\"usbStartTransmitI\"()\000"
 1470      53746172 
 1470      74547261 
 1470      6E736D69 
 1470      74492228 
 1471 00f2 0000     		.space	2
 1472              	.LC11:
 1473 00f4 22757362 		.ascii	"\"usbStallReceiveI\"()\000"
 1473      5374616C 
 1473      6C526563 
 1473      65697665 
 1473      49222829 
 1474 0109 000000   		.space	3
ARM GAS  /tmp/cc7pvxVj.s 			page 28


 1475              	.LC12:
 1476 010c 22757362 		.ascii	"\"usbStallTransmitI\"()\000"
 1476      5374616C 
 1476      6C547261 
 1476      6E736D69 
 1476      74492228 
 1477 0122 0000     		.section	.rodata.halted_status,"a",%progbits
 1478              		.align	2
 1479              		.set	.LANCHOR1,. + 0
 1480              		.type	halted_status, %object
 1481              		.size	halted_status, 2
 1482              	halted_status:
 1483 0000 01       		.byte	1
 1484 0001 00       		.byte	0
 1485 0002 0000     		.text
 1486              	.Letext0:
 1487              		.section	.debug_loc,"",%progbits
 1488              	.Ldebug_loc0:
 1489              	.LLST0:
 1490 0000 00000000 		.4byte	.LFB55
 1491 0004 02000000 		.4byte	.LCFI0
 1492 0008 0200     		.2byte	0x2
 1493 000a 7D       		.byte	0x7d
 1494 000b 00       		.sleb128 0
 1495 000c 02000000 		.4byte	.LCFI0
 1496 0010 22000000 		.4byte	.LFE55
 1497 0014 0200     		.2byte	0x2
 1498 0016 7D       		.byte	0x7d
 1499 0017 08       		.sleb128 8
 1500 0018 00000000 		.4byte	0x0
 1501 001c 00000000 		.4byte	0x0
 1502              	.LLST1:
 1503 0020 00000000 		.4byte	.LVL0
 1504 0024 0F000000 		.4byte	.LVL1-1
 1505 0028 0100     		.2byte	0x1
 1506 002a 50       		.byte	0x50
 1507 002b 0F000000 		.4byte	.LVL1-1
 1508 002f 22000000 		.4byte	.LFE55
 1509 0033 0100     		.2byte	0x1
 1510 0035 54       		.byte	0x54
 1511 0036 00000000 		.4byte	0x0
 1512 003a 00000000 		.4byte	0x0
 1513              	.LLST2:
 1514 003e 00000000 		.4byte	.LFB59
 1515 0042 02000000 		.4byte	.LCFI1
 1516 0046 0200     		.2byte	0x2
 1517 0048 7D       		.byte	0x7d
 1518 0049 00       		.sleb128 0
 1519 004a 02000000 		.4byte	.LCFI1
 1520 004e 5C000000 		.4byte	.LFE59
 1521 0052 0200     		.2byte	0x2
 1522 0054 7D       		.byte	0x7d
 1523 0055 10       		.sleb128 16
 1524 0056 00000000 		.4byte	0x0
 1525 005a 00000000 		.4byte	0x0
 1526              	.LLST3:
 1527 005e 00000000 		.4byte	.LVL3
ARM GAS  /tmp/cc7pvxVj.s 			page 29


 1528 0062 0A000000 		.4byte	.LVL4
 1529 0066 0100     		.2byte	0x1
 1530 0068 50       		.byte	0x50
 1531 0069 0A000000 		.4byte	.LVL4
 1532 006d 5C000000 		.4byte	.LFE59
 1533 0071 0100     		.2byte	0x1
 1534 0073 54       		.byte	0x54
 1535 0074 00000000 		.4byte	0x0
 1536 0078 00000000 		.4byte	0x0
 1537              	.LLST4:
 1538 007c 00000000 		.4byte	.LVL3
 1539 0080 0A000000 		.4byte	.LVL4
 1540 0084 0100     		.2byte	0x1
 1541 0086 51       		.byte	0x51
 1542 0087 0A000000 		.4byte	.LVL4
 1543 008b 5C000000 		.4byte	.LFE59
 1544 008f 0100     		.2byte	0x1
 1545 0091 55       		.byte	0x55
 1546 0092 00000000 		.4byte	0x0
 1547 0096 00000000 		.4byte	0x0
 1548              	.LLST5:
 1549 009a 38000000 		.4byte	.LVL5
 1550 009e 4A000000 		.4byte	.LVL6
 1551 00a2 0200     		.2byte	0x2
 1552 00a4 38       		.byte	0x38
 1553 00a5 9F       		.byte	0x9f
 1554 00a6 00000000 		.4byte	0x0
 1555 00aa 00000000 		.4byte	0x0
 1556              	.LLST6:
 1557 00ae 00000000 		.4byte	.LFB60
 1558 00b2 02000000 		.4byte	.LCFI2
 1559 00b6 0200     		.2byte	0x2
 1560 00b8 7D       		.byte	0x7d
 1561 00b9 00       		.sleb128 0
 1562 00ba 02000000 		.4byte	.LCFI2
 1563 00be 44000000 		.4byte	.LFE60
 1564 00c2 0200     		.2byte	0x2
 1565 00c4 7D       		.byte	0x7d
 1566 00c5 08       		.sleb128 8
 1567 00c6 00000000 		.4byte	0x0
 1568 00ca 00000000 		.4byte	0x0
 1569              	.LLST7:
 1570 00ce 00000000 		.4byte	.LVL7
 1571 00d2 06000000 		.4byte	.LVL8
 1572 00d6 0100     		.2byte	0x1
 1573 00d8 50       		.byte	0x50
 1574 00d9 06000000 		.4byte	.LVL8
 1575 00dd 44000000 		.4byte	.LFE60
 1576 00e1 0100     		.2byte	0x1
 1577 00e3 54       		.byte	0x54
 1578 00e4 00000000 		.4byte	0x0
 1579 00e8 00000000 		.4byte	0x0
 1580              	.LLST8:
 1581 00ec 00000000 		.4byte	.LFB61
 1582 00f0 04000000 		.4byte	.LCFI3
 1583 00f4 0200     		.2byte	0x2
 1584 00f6 7D       		.byte	0x7d
ARM GAS  /tmp/cc7pvxVj.s 			page 30


 1585 00f7 00       		.sleb128 0
 1586 00f8 04000000 		.4byte	.LCFI3
 1587 00fc 7C000000 		.4byte	.LFE61
 1588 0100 0200     		.2byte	0x2
 1589 0102 7D       		.byte	0x7d
 1590 0103 18       		.sleb128 24
 1591 0104 00000000 		.4byte	0x0
 1592 0108 00000000 		.4byte	0x0
 1593              	.LLST9:
 1594 010c 00000000 		.4byte	.LVL9
 1595 0110 0D000000 		.4byte	.LVL10-1
 1596 0114 0100     		.2byte	0x1
 1597 0116 50       		.byte	0x50
 1598 0117 0D000000 		.4byte	.LVL10-1
 1599 011b 7C000000 		.4byte	.LFE61
 1600 011f 0100     		.2byte	0x1
 1601 0121 54       		.byte	0x54
 1602 0122 00000000 		.4byte	0x0
 1603 0126 00000000 		.4byte	0x0
 1604              	.LLST10:
 1605 012a 00000000 		.4byte	.LVL9
 1606 012e 0D000000 		.4byte	.LVL10-1
 1607 0132 0100     		.2byte	0x1
 1608 0134 51       		.byte	0x51
 1609 0135 00000000 		.4byte	0x0
 1610 0139 00000000 		.4byte	0x0
 1611              	.LLST11:
 1612 013d 00000000 		.4byte	.LVL9
 1613 0141 0D000000 		.4byte	.LVL10-1
 1614 0145 0100     		.2byte	0x1
 1615 0147 52       		.byte	0x52
 1616 0148 0D000000 		.4byte	.LVL10-1
 1617 014c 7C000000 		.4byte	.LFE61
 1618 0150 0100     		.2byte	0x1
 1619 0152 56       		.byte	0x56
 1620 0153 00000000 		.4byte	0x0
 1621 0157 00000000 		.4byte	0x0
 1622              	.LLST12:
 1623 015b 00000000 		.4byte	.LFB62
 1624 015f 02000000 		.4byte	.LCFI4
 1625 0163 0200     		.2byte	0x2
 1626 0165 7D       		.byte	0x7d
 1627 0166 00       		.sleb128 0
 1628 0167 02000000 		.4byte	.LCFI4
 1629 016b 54000000 		.4byte	.LFE62
 1630 016f 0200     		.2byte	0x2
 1631 0171 7D       		.byte	0x7d
 1632 0172 08       		.sleb128 8
 1633 0173 00000000 		.4byte	0x0
 1634 0177 00000000 		.4byte	0x0
 1635              	.LLST13:
 1636 017b 00000000 		.4byte	.LVL11
 1637 017f 07000000 		.4byte	.LVL12-1
 1638 0183 0100     		.2byte	0x1
 1639 0185 50       		.byte	0x50
 1640 0186 07000000 		.4byte	.LVL12-1
 1641 018a 54000000 		.4byte	.LFE62
ARM GAS  /tmp/cc7pvxVj.s 			page 31


 1642 018e 0100     		.2byte	0x1
 1643 0190 54       		.byte	0x54
 1644 0191 00000000 		.4byte	0x0
 1645 0195 00000000 		.4byte	0x0
 1646              	.LLST14:
 1647 0199 3C000000 		.4byte	.LVL13
 1648 019d 44000000 		.4byte	.LVL14
 1649 01a1 0200     		.2byte	0x2
 1650 01a3 38       		.byte	0x38
 1651 01a4 9F       		.byte	0x9f
 1652 01a5 00000000 		.4byte	0x0
 1653 01a9 00000000 		.4byte	0x0
 1654              	.LLST15:
 1655 01ad 00000000 		.4byte	.LFB63
 1656 01b1 02000000 		.4byte	.LCFI5
 1657 01b5 0200     		.2byte	0x2
 1658 01b7 7D       		.byte	0x7d
 1659 01b8 00       		.sleb128 0
 1660 01b9 02000000 		.4byte	.LCFI5
 1661 01bd 40000000 		.4byte	.LFE63
 1662 01c1 0200     		.2byte	0x2
 1663 01c3 7D       		.byte	0x7d
 1664 01c4 10       		.sleb128 16
 1665 01c5 00000000 		.4byte	0x0
 1666 01c9 00000000 		.4byte	0x0
 1667              	.LLST16:
 1668 01cd 00000000 		.4byte	.LVL15
 1669 01d1 09000000 		.4byte	.LVL16-1
 1670 01d5 0100     		.2byte	0x1
 1671 01d7 50       		.byte	0x50
 1672 01d8 09000000 		.4byte	.LVL16-1
 1673 01dc 40000000 		.4byte	.LFE63
 1674 01e0 0100     		.2byte	0x1
 1675 01e2 54       		.byte	0x54
 1676 01e3 00000000 		.4byte	0x0
 1677 01e7 00000000 		.4byte	0x0
 1678              	.LLST17:
 1679 01eb 00000000 		.4byte	.LVL15
 1680 01ef 09000000 		.4byte	.LVL16-1
 1681 01f3 0100     		.2byte	0x1
 1682 01f5 51       		.byte	0x51
 1683 01f6 00000000 		.4byte	0x0
 1684 01fa 00000000 		.4byte	0x0
 1685              	.LLST18:
 1686 01fe 00000000 		.4byte	.LFB64
 1687 0202 02000000 		.4byte	.LCFI6
 1688 0206 0200     		.2byte	0x2
 1689 0208 7D       		.byte	0x7d
 1690 0209 00       		.sleb128 0
 1691 020a 02000000 		.4byte	.LCFI6
 1692 020e 40000000 		.4byte	.LFE64
 1693 0212 0200     		.2byte	0x2
 1694 0214 7D       		.byte	0x7d
 1695 0215 10       		.sleb128 16
 1696 0216 00000000 		.4byte	0x0
 1697 021a 00000000 		.4byte	0x0
 1698              	.LLST19:
ARM GAS  /tmp/cc7pvxVj.s 			page 32


 1699 021e 00000000 		.4byte	.LVL17
 1700 0222 09000000 		.4byte	.LVL18-1
 1701 0226 0100     		.2byte	0x1
 1702 0228 50       		.byte	0x50
 1703 0229 09000000 		.4byte	.LVL18-1
 1704 022d 40000000 		.4byte	.LFE64
 1705 0231 0100     		.2byte	0x1
 1706 0233 54       		.byte	0x54
 1707 0234 00000000 		.4byte	0x0
 1708 0238 00000000 		.4byte	0x0
 1709              	.LLST20:
 1710 023c 00000000 		.4byte	.LVL17
 1711 0240 09000000 		.4byte	.LVL18-1
 1712 0244 0100     		.2byte	0x1
 1713 0246 51       		.byte	0x51
 1714 0247 00000000 		.4byte	0x0
 1715 024b 00000000 		.4byte	0x0
 1716              	.LLST21:
 1717 024f 00000000 		.4byte	.LFB65
 1718 0253 02000000 		.4byte	.LCFI7
 1719 0257 0200     		.2byte	0x2
 1720 0259 7D       		.byte	0x7d
 1721 025a 00       		.sleb128 0
 1722 025b 02000000 		.4byte	.LCFI7
 1723 025f 34000000 		.4byte	.LFE65
 1724 0263 0200     		.2byte	0x2
 1725 0265 7D       		.byte	0x7d
 1726 0266 10       		.sleb128 16
 1727 0267 00000000 		.4byte	0x0
 1728 026b 00000000 		.4byte	0x0
 1729              	.LLST22:
 1730 026f 00000000 		.4byte	.LVL19
 1731 0273 09000000 		.4byte	.LVL20-1
 1732 0277 0100     		.2byte	0x1
 1733 0279 50       		.byte	0x50
 1734 027a 09000000 		.4byte	.LVL20-1
 1735 027e 34000000 		.4byte	.LFE65
 1736 0282 0100     		.2byte	0x1
 1737 0284 54       		.byte	0x54
 1738 0285 00000000 		.4byte	0x0
 1739 0289 00000000 		.4byte	0x0
 1740              	.LLST23:
 1741 028d 00000000 		.4byte	.LVL19
 1742 0291 09000000 		.4byte	.LVL20-1
 1743 0295 0100     		.2byte	0x1
 1744 0297 51       		.byte	0x51
 1745 0298 00000000 		.4byte	0x0
 1746 029c 00000000 		.4byte	0x0
 1747              	.LLST24:
 1748 02a0 00000000 		.4byte	.LFB66
 1749 02a4 02000000 		.4byte	.LCFI8
 1750 02a8 0200     		.2byte	0x2
 1751 02aa 7D       		.byte	0x7d
 1752 02ab 00       		.sleb128 0
 1753 02ac 02000000 		.4byte	.LCFI8
 1754 02b0 34000000 		.4byte	.LFE66
 1755 02b4 0200     		.2byte	0x2
ARM GAS  /tmp/cc7pvxVj.s 			page 33


 1756 02b6 7D       		.byte	0x7d
 1757 02b7 10       		.sleb128 16
 1758 02b8 00000000 		.4byte	0x0
 1759 02bc 00000000 		.4byte	0x0
 1760              	.LLST25:
 1761 02c0 00000000 		.4byte	.LVL21
 1762 02c4 09000000 		.4byte	.LVL22-1
 1763 02c8 0100     		.2byte	0x1
 1764 02ca 50       		.byte	0x50
 1765 02cb 09000000 		.4byte	.LVL22-1
 1766 02cf 34000000 		.4byte	.LFE66
 1767 02d3 0100     		.2byte	0x1
 1768 02d5 54       		.byte	0x54
 1769 02d6 00000000 		.4byte	0x0
 1770 02da 00000000 		.4byte	0x0
 1771              	.LLST26:
 1772 02de 00000000 		.4byte	.LVL21
 1773 02e2 09000000 		.4byte	.LVL22-1
 1774 02e6 0100     		.2byte	0x1
 1775 02e8 51       		.byte	0x51
 1776 02e9 00000000 		.4byte	0x0
 1777 02ed 00000000 		.4byte	0x0
 1778              	.LLST27:
 1779 02f1 00000000 		.4byte	.LFB67
 1780 02f5 02000000 		.4byte	.LCFI9
 1781 02f9 0200     		.2byte	0x2
 1782 02fb 7D       		.byte	0x7d
 1783 02fc 00       		.sleb128 0
 1784 02fd 02000000 		.4byte	.LCFI9
 1785 0301 32000000 		.4byte	.LFE67
 1786 0305 0200     		.2byte	0x2
 1787 0307 7D       		.byte	0x7d
 1788 0308 04       		.sleb128 4
 1789 0309 00000000 		.4byte	0x0
 1790 030d 00000000 		.4byte	0x0
 1791              	.LLST28:
 1792 0311 18000000 		.4byte	.LVL24
 1793 0315 1A000000 		.4byte	.LVL25
 1794 0319 0200     		.2byte	0x2
 1795 031b 30       		.byte	0x30
 1796 031c 9F       		.byte	0x9f
 1797 031d 1A000000 		.4byte	.LVL25
 1798 0321 1C000000 		.4byte	.LVL26
 1799 0325 0200     		.2byte	0x2
 1800 0327 31       		.byte	0x31
 1801 0328 9F       		.byte	0x9f
 1802 0329 1C000000 		.4byte	.LVL26
 1803 032d 1E000000 		.4byte	.LVL27
 1804 0331 0200     		.2byte	0x2
 1805 0333 32       		.byte	0x32
 1806 0334 9F       		.byte	0x9f
 1807 0335 1E000000 		.4byte	.LVL27
 1808 0339 20000000 		.4byte	.LVL28
 1809 033d 0200     		.2byte	0x2
 1810 033f 33       		.byte	0x33
 1811 0340 9F       		.byte	0x9f
 1812 0341 20000000 		.4byte	.LVL28
ARM GAS  /tmp/cc7pvxVj.s 			page 34


 1813 0345 22000000 		.4byte	.LVL29
 1814 0349 0200     		.2byte	0x2
 1815 034b 34       		.byte	0x34
 1816 034c 9F       		.byte	0x9f
 1817 034d 22000000 		.4byte	.LVL29
 1818 0351 24000000 		.4byte	.LVL30
 1819 0355 0200     		.2byte	0x2
 1820 0357 35       		.byte	0x35
 1821 0358 9F       		.byte	0x9f
 1822 0359 24000000 		.4byte	.LVL30
 1823 035d 26000000 		.4byte	.LVL31
 1824 0361 0200     		.2byte	0x2
 1825 0363 36       		.byte	0x36
 1826 0364 9F       		.byte	0x9f
 1827 0365 26000000 		.4byte	.LVL31
 1828 0369 28000000 		.4byte	.LVL32
 1829 036d 0200     		.2byte	0x2
 1830 036f 37       		.byte	0x37
 1831 0370 9F       		.byte	0x9f
 1832 0371 28000000 		.4byte	.LVL32
 1833 0375 32000000 		.4byte	.LFE67
 1834 0379 0200     		.2byte	0x2
 1835 037b 38       		.byte	0x38
 1836 037c 9F       		.byte	0x9f
 1837 037d 00000000 		.4byte	0x0
 1838 0381 00000000 		.4byte	0x0
 1839              	.LLST29:
 1840 0385 00000000 		.4byte	.LFB68
 1841 0389 06000000 		.4byte	.LCFI10
 1842 038d 0200     		.2byte	0x2
 1843 038f 7D       		.byte	0x7d
 1844 0390 00       		.sleb128 0
 1845 0391 06000000 		.4byte	.LCFI10
 1846 0395 E8020000 		.4byte	.LFE68
 1847 0399 0200     		.2byte	0x2
 1848 039b 7D       		.byte	0x7d
 1849 039c 18       		.sleb128 24
 1850 039d 00000000 		.4byte	0x0
 1851 03a1 00000000 		.4byte	0x0
 1852              	.LLST30:
 1853 03a5 00000000 		.4byte	.LVL33
 1854 03a9 13000000 		.4byte	.LVL34-1
 1855 03ad 0100     		.2byte	0x1
 1856 03af 50       		.byte	0x50
 1857 03b0 13000000 		.4byte	.LVL34-1
 1858 03b4 E8020000 		.4byte	.LFE68
 1859 03b8 0100     		.2byte	0x1
 1860 03ba 54       		.byte	0x54
 1861 03bb 00000000 		.4byte	0x0
 1862 03bf 00000000 		.4byte	0x0
 1863              	.LLST31:
 1864 03c3 00000000 		.4byte	.LVL33
 1865 03c7 13000000 		.4byte	.LVL34-1
 1866 03cb 0100     		.2byte	0x1
 1867 03cd 51       		.byte	0x51
 1868 03ce 00000000 		.4byte	0x0
 1869 03d2 00000000 		.4byte	0x0
ARM GAS  /tmp/cc7pvxVj.s 			page 35


 1870              	.LLST32:
 1871 03d6 2C000000 		.4byte	.LVL35
 1872 03da 40000000 		.4byte	.LVL36
 1873 03de 0100     		.2byte	0x1
 1874 03e0 50       		.byte	0x50
 1875 03e1 14010000 		.4byte	.LVL38
 1876 03e5 1E010000 		.4byte	.LVL39
 1877 03e9 0100     		.2byte	0x1
 1878 03eb 50       		.byte	0x50
 1879 03ec 32010000 		.4byte	.LVL40
 1880 03f0 3E010000 		.4byte	.LVL41
 1881 03f4 0100     		.2byte	0x1
 1882 03f6 50       		.byte	0x50
 1883 03f7 52010000 		.4byte	.LVL42
 1884 03fb 5A010000 		.4byte	.LVL43
 1885 03ff 0100     		.2byte	0x1
 1886 0401 50       		.byte	0x50
 1887 0402 00000000 		.4byte	0x0
 1888 0406 00000000 		.4byte	0x0
 1889              	.LLST33:
 1890 040a 8E000000 		.4byte	.LVL37
 1891 040e 14010000 		.4byte	.LVL38
 1892 0412 0100     		.2byte	0x1
 1893 0414 54       		.byte	0x54
 1894 0415 70010000 		.4byte	.LVL44
 1895 0419 E8020000 		.4byte	.LFE68
 1896 041d 0100     		.2byte	0x1
 1897 041f 54       		.byte	0x54
 1898 0420 00000000 		.4byte	0x0
 1899 0424 00000000 		.4byte	0x0
 1900              	.LLST34:
 1901 0428 5C020000 		.4byte	.LVL45
 1902 042c 72020000 		.4byte	.LVL46
 1903 0430 0100     		.2byte	0x1
 1904 0432 50       		.byte	0x50
 1905 0433 00000000 		.4byte	0x0
 1906 0437 00000000 		.4byte	0x0
 1907              	.LLST35:
 1908 043b 00000000 		.4byte	.LFB69
 1909 043f 06000000 		.4byte	.LCFI11
 1910 0443 0200     		.2byte	0x2
 1911 0445 7D       		.byte	0x7d
 1912 0446 00       		.sleb128 0
 1913 0447 06000000 		.4byte	.LCFI11
 1914 044b 8C000000 		.4byte	.LFE69
 1915 044f 0200     		.2byte	0x2
 1916 0451 7D       		.byte	0x7d
 1917 0452 10       		.sleb128 16
 1918 0453 00000000 		.4byte	0x0
 1919 0457 00000000 		.4byte	0x0
 1920              	.LLST36:
 1921 045b 00000000 		.4byte	.LVL47
 1922 045f 15000000 		.4byte	.LVL49-1
 1923 0463 0100     		.2byte	0x1
 1924 0465 50       		.byte	0x50
 1925 0466 15000000 		.4byte	.LVL49-1
 1926 046a 8C000000 		.4byte	.LFE69
ARM GAS  /tmp/cc7pvxVj.s 			page 36


 1927 046e 0100     		.2byte	0x1
 1928 0470 54       		.byte	0x54
 1929 0471 00000000 		.4byte	0x0
 1930 0475 00000000 		.4byte	0x0
 1931              	.LLST37:
 1932 0479 00000000 		.4byte	.LVL47
 1933 047d 12000000 		.4byte	.LVL48
 1934 0481 0100     		.2byte	0x1
 1935 0483 51       		.byte	0x51
 1936 0484 32000000 		.4byte	.LVL50
 1937 0488 37000000 		.4byte	.LVL51-1
 1938 048c 0100     		.2byte	0x1
 1939 048e 51       		.byte	0x51
 1940 048f 40000000 		.4byte	.LVL52
 1941 0493 4E000000 		.4byte	.LVL53
 1942 0497 0100     		.2byte	0x1
 1943 0499 51       		.byte	0x51
 1944 049a 00000000 		.4byte	0x0
 1945 049e 00000000 		.4byte	0x0
 1946              	.LLST38:
 1947 04a2 40000000 		.4byte	.LVL52
 1948 04a6 69000000 		.4byte	.LVL54-1
 1949 04aa 0300     		.2byte	0x3
 1950 04ac 74       		.byte	0x74
 1951 04ad C600     		.sleb128 70
 1952 04af 76000000 		.4byte	.LVL55
 1953 04b3 7F000000 		.4byte	.LVL56-1
 1954 04b7 0300     		.2byte	0x3
 1955 04b9 74       		.byte	0x74
 1956 04ba C600     		.sleb128 70
 1957 04bc 00000000 		.4byte	0x0
 1958 04c0 00000000 		.4byte	0x0
 1959              	.LLST39:
 1960 04c4 00000000 		.4byte	.LFB70
 1961 04c8 06000000 		.4byte	.LCFI12
 1962 04cc 0200     		.2byte	0x2
 1963 04ce 7D       		.byte	0x7d
 1964 04cf 00       		.sleb128 0
 1965 04d0 06000000 		.4byte	.LCFI12
 1966 04d4 68000000 		.4byte	.LFE70
 1967 04d8 0200     		.2byte	0x2
 1968 04da 7D       		.byte	0x7d
 1969 04db 10       		.sleb128 16
 1970 04dc 00000000 		.4byte	0x0
 1971 04e0 00000000 		.4byte	0x0
 1972              	.LLST40:
 1973 04e4 00000000 		.4byte	.LVL57
 1974 04e8 14000000 		.4byte	.LVL59
 1975 04ec 0100     		.2byte	0x1
 1976 04ee 50       		.byte	0x50
 1977 04ef 14000000 		.4byte	.LVL59
 1978 04f3 68000000 		.4byte	.LFE70
 1979 04f7 0100     		.2byte	0x1
 1980 04f9 54       		.byte	0x54
 1981 04fa 00000000 		.4byte	0x0
 1982 04fe 00000000 		.4byte	0x0
 1983              	.LLST41:
ARM GAS  /tmp/cc7pvxVj.s 			page 37


 1984 0502 00000000 		.4byte	.LVL57
 1985 0506 10000000 		.4byte	.LVL58
 1986 050a 0100     		.2byte	0x1
 1987 050c 51       		.byte	0x51
 1988 050d 34000000 		.4byte	.LVL60
 1989 0511 36000000 		.4byte	.LVL61
 1990 0515 0100     		.2byte	0x1
 1991 0517 51       		.byte	0x51
 1992 0518 50000000 		.4byte	.LVL62
 1993 051c 54000000 		.4byte	.LVL63
 1994 0520 0100     		.2byte	0x1
 1995 0522 51       		.byte	0x51
 1996 0523 00000000 		.4byte	0x0
 1997 0527 00000000 		.4byte	0x0
 1998              		.file 2 "/home/z80/programs/code-sourcery/2011.03-42/bin/../lib/gcc/arm-none-eabi/4.5.2/include/st
 1999              		.file 3 "/home/z80/programs/code-sourcery/2011.03-42/bin/../lib/gcc/arm-none-eabi/4.5.2/../../../.
 2000              		.file 4 "../chibios_2.4.x/os/ports/GCC/ARMCMx/chtypes.h"
 2001              		.file 5 "../chibios_2.4.x/os/hal/include/usb.h"
 2002              		.file 6 "../chibios_2.4.x/os/hal/platforms/STM32/USBv1/usb_lld.h"
 2003              		.file 7 "../chibios_2.4.x/os/ports/common/ARMCMx/CMSIS/include/core_cm3.h"
 2004              		.section	.debug_info
 2005 0000 38090000 		.4byte	0x938
 2006 0004 0200     		.2byte	0x2
 2007 0006 00000000 		.4byte	.Ldebug_abbrev0
 2008 000a 04       		.byte	0x4
 2009 000b 01       		.uleb128 0x1
 2010 000c 24050000 		.4byte	.LASF105
 2011 0010 01       		.byte	0x1
 2012 0011 BE000000 		.4byte	.LASF106
 2013 0015 DF020000 		.4byte	.LASF107
 2014 0019 00000000 		.4byte	0x0
 2015 001d 00000000 		.4byte	0x0
 2016 0021 30000000 		.4byte	.Ldebug_ranges0+0x30
 2017 0025 00000000 		.4byte	.Ldebug_line0
 2018 0029 02       		.uleb128 0x2
 2019 002a 01       		.byte	0x1
 2020 002b 06       		.byte	0x6
 2021 002c 89020000 		.4byte	.LASF0
 2022 0030 02       		.uleb128 0x2
 2023 0031 01       		.byte	0x1
 2024 0032 08       		.byte	0x8
 2025 0033 58020000 		.4byte	.LASF1
 2026 0037 02       		.uleb128 0x2
 2027 0038 02       		.byte	0x2
 2028 0039 05       		.byte	0x5
 2029 003a 3E000000 		.4byte	.LASF2
 2030 003e 02       		.uleb128 0x2
 2031 003f 02       		.byte	0x2
 2032 0040 07       		.byte	0x7
 2033 0041 7A030000 		.4byte	.LASF3
 2034 0045 03       		.uleb128 0x3
 2035 0046 04       		.byte	0x4
 2036 0047 05       		.byte	0x5
 2037 0048 696E7400 		.ascii	"int\000"
 2038 004c 02       		.uleb128 0x2
 2039 004d 04       		.byte	0x4
 2040 004e 07       		.byte	0x7
ARM GAS  /tmp/cc7pvxVj.s 			page 38


 2041 004f E5040000 		.4byte	.LASF4
 2042 0053 02       		.uleb128 0x2
 2043 0054 08       		.byte	0x8
 2044 0055 05       		.byte	0x5
 2045 0056 98010000 		.4byte	.LASF5
 2046 005a 02       		.uleb128 0x2
 2047 005b 08       		.byte	0x8
 2048 005c 07       		.byte	0x7
 2049 005d A6010000 		.4byte	.LASF6
 2050 0061 02       		.uleb128 0x2
 2051 0062 04       		.byte	0x4
 2052 0063 05       		.byte	0x5
 2053 0064 D0010000 		.4byte	.LASF7
 2054 0068 04       		.uleb128 0x4
 2055 0069 04       		.byte	0x4
 2056 006a 02       		.uleb128 0x2
 2057 006b 04       		.byte	0x4
 2058 006c 07       		.byte	0x7
 2059 006d F1030000 		.4byte	.LASF8
 2060 0071 02       		.uleb128 0x2
 2061 0072 01       		.byte	0x1
 2062 0073 08       		.byte	0x8
 2063 0074 44030000 		.4byte	.LASF9
 2064 0078 05       		.uleb128 0x5
 2065 0079 48000000 		.4byte	.LASF10
 2066 007d 02       		.byte	0x2
 2067 007e D3       		.byte	0xd3
 2068 007f 4C000000 		.4byte	0x4c
 2069 0083 05       		.uleb128 0x5
 2070 0084 7D040000 		.4byte	.LASF11
 2071 0088 03       		.byte	0x3
 2072 0089 2A       		.byte	0x2a
 2073 008a 30000000 		.4byte	0x30
 2074 008e 05       		.uleb128 0x5
 2075 008f 49030000 		.4byte	.LASF12
 2076 0093 03       		.byte	0x3
 2077 0094 36       		.byte	0x36
 2078 0095 3E000000 		.4byte	0x3e
 2079 0099 05       		.uleb128 0x5
 2080 009a 64030000 		.4byte	.LASF13
 2081 009e 03       		.byte	0x3
 2082 009f 4F       		.byte	0x4f
 2083 00a0 61000000 		.4byte	0x61
 2084 00a4 05       		.uleb128 0x5
 2085 00a5 9D020000 		.4byte	.LASF14
 2086 00a9 03       		.byte	0x3
 2087 00aa 50       		.byte	0x50
 2088 00ab 6A000000 		.4byte	0x6a
 2089 00af 05       		.uleb128 0x5
 2090 00b0 82010000 		.4byte	.LASF15
 2091 00b4 04       		.byte	0x4
 2092 00b5 2E       		.byte	0x2e
 2093 00b6 99000000 		.4byte	0x99
 2094 00ba 06       		.uleb128 0x6
 2095 00bb 04       		.byte	0x4
 2096 00bc 83000000 		.4byte	0x83
 2097 00c0 06       		.uleb128 0x6
ARM GAS  /tmp/cc7pvxVj.s 			page 39


 2098 00c1 04       		.byte	0x4
 2099 00c2 C6000000 		.4byte	0xc6
 2100 00c6 07       		.uleb128 0x7
 2101 00c7 83000000 		.4byte	0x83
 2102 00cb 08       		.uleb128 0x8
 2103 00cc 99000000 		.4byte	0x99
 2104 00d0 05       		.uleb128 0x5
 2105 00d1 50050000 		.4byte	.LASF16
 2106 00d5 05       		.byte	0x5
 2107 00d6 D2       		.byte	0xd2
 2108 00d7 DB000000 		.4byte	0xdb
 2109 00db 09       		.uleb128 0x9
 2110 00dc 50050000 		.4byte	.LASF16
 2111 00e0 50       		.byte	0x50
 2112 00e1 06       		.byte	0x6
 2113 00e2 F2       		.byte	0xf2
 2114 00e3 C6010000 		.4byte	0x1c6
 2115 00e7 0A       		.uleb128 0xa
 2116 00e8 1A000000 		.4byte	.LASF17
 2117 00ec 06       		.byte	0x6
 2118 00ed F6       		.byte	0xf6
 2119 00ee F8010000 		.4byte	0x1f8
 2120 00f2 02       		.byte	0x2
 2121 00f3 23       		.byte	0x23
 2122 00f4 00       		.uleb128 0x0
 2123 00f5 0A       		.uleb128 0xa
 2124 00f6 06010000 		.4byte	.LASF18
 2125 00fa 06       		.byte	0x6
 2126 00fb FA       		.byte	0xfa
 2127 00fc F1040000 		.4byte	0x4f1
 2128 0100 02       		.byte	0x2
 2129 0101 23       		.byte	0x23
 2130 0102 04       		.uleb128 0x4
 2131 0103 0A       		.uleb128 0xa
 2132 0104 17030000 		.4byte	.LASF19
 2133 0108 06       		.byte	0x6
 2134 0109 FF       		.byte	0xff
 2135 010a 68000000 		.4byte	0x68
 2136 010e 02       		.byte	0x2
 2137 010f 23       		.byte	0x23
 2138 0110 08       		.uleb128 0x8
 2139 0111 0B       		.uleb128 0xb
 2140 0112 FB040000 		.4byte	.LASF20
 2141 0116 06       		.byte	0x6
 2142 0117 0301     		.2byte	0x103
 2143 0119 8E000000 		.4byte	0x8e
 2144 011d 02       		.byte	0x2
 2145 011e 23       		.byte	0x23
 2146 011f 0C       		.uleb128 0xc
 2147 0120 0B       		.uleb128 0xb
 2148 0121 45020000 		.4byte	.LASF21
 2149 0125 06       		.byte	0x6
 2150 0126 0701     		.2byte	0x107
 2151 0128 8E000000 		.4byte	0x8e
 2152 012c 02       		.byte	0x2
 2153 012d 23       		.byte	0x23
 2154 012e 0E       		.uleb128 0xe
ARM GAS  /tmp/cc7pvxVj.s 			page 40


 2155 012f 0C       		.uleb128 0xc
 2156 0130 65706300 		.ascii	"epc\000"
 2157 0134 06       		.byte	0x6
 2158 0135 0B01     		.2byte	0x10b
 2159 0137 FC040000 		.4byte	0x4fc
 2160 013b 02       		.byte	0x2
 2161 013c 23       		.byte	0x23
 2162 013d 10       		.uleb128 0x10
 2163 013e 0B       		.uleb128 0xb
 2164 013f 09020000 		.4byte	.LASF22
 2165 0143 06       		.byte	0x6
 2166 0144 0F01     		.2byte	0x10f
 2167 0146 4B020000 		.4byte	0x24b
 2168 014a 02       		.byte	0x2
 2169 014b 23       		.byte	0x23
 2170 014c 30       		.uleb128 0x30
 2171 014d 0B       		.uleb128 0xb
 2172 014e AB030000 		.4byte	.LASF23
 2173 0152 06       		.byte	0x6
 2174 0153 1301     		.2byte	0x113
 2175 0155 BA000000 		.4byte	0xba
 2176 0159 02       		.byte	0x2
 2177 015a 23       		.byte	0x23
 2178 015b 34       		.uleb128 0x34
 2179 015c 0B       		.uleb128 0xb
 2180 015d 8B000000 		.4byte	.LASF24
 2181 0161 06       		.byte	0x6
 2182 0162 1701     		.2byte	0x117
 2183 0164 78000000 		.4byte	0x78
 2184 0168 02       		.byte	0x2
 2185 0169 23       		.byte	0x23
 2186 016a 38       		.uleb128 0x38
 2187 016b 0B       		.uleb128 0xb
 2188 016c 80020000 		.4byte	.LASF25
 2189 0170 06       		.byte	0x6
 2190 0171 1B01     		.2byte	0x11b
 2191 0173 C3020000 		.4byte	0x2c3
 2192 0177 02       		.byte	0x2
 2193 0178 23       		.byte	0x23
 2194 0179 3C       		.uleb128 0x3c
 2195 017a 0B       		.uleb128 0xb
 2196 017b 89010000 		.4byte	.LASF26
 2197 017f 06       		.byte	0x6
 2198 0180 1F01     		.2byte	0x11f
 2199 0182 17050000 		.4byte	0x517
 2200 0186 02       		.byte	0x2
 2201 0187 23       		.byte	0x23
 2202 0188 40       		.uleb128 0x40
 2203 0189 0B       		.uleb128 0xb
 2204 018a 2D030000 		.4byte	.LASF27
 2205 018e 06       		.byte	0x6
 2206 018f 2301     		.2byte	0x123
 2207 0191 8E000000 		.4byte	0x8e
 2208 0195 02       		.byte	0x2
 2209 0196 23       		.byte	0x23
 2210 0197 48       		.uleb128 0x48
 2211 0198 0B       		.uleb128 0xb
ARM GAS  /tmp/cc7pvxVj.s 			page 41


 2212 0199 95020000 		.4byte	.LASF28
 2213 019d 06       		.byte	0x6
 2214 019e 2701     		.2byte	0x127
 2215 01a0 83000000 		.4byte	0x83
 2216 01a4 02       		.byte	0x2
 2217 01a5 23       		.byte	0x23
 2218 01a6 4A       		.uleb128 0x4a
 2219 01a7 0B       		.uleb128 0xb
 2220 01a8 A6020000 		.4byte	.LASF29
 2221 01ac 06       		.byte	0x6
 2222 01ad 2B01     		.2byte	0x12b
 2223 01af 83000000 		.4byte	0x83
 2224 01b3 02       		.byte	0x2
 2225 01b4 23       		.byte	0x23
 2226 01b5 4B       		.uleb128 0x4b
 2227 01b6 0B       		.uleb128 0xb
 2228 01b7 2D000000 		.4byte	.LASF30
 2229 01bb 06       		.byte	0x6
 2230 01bc 3301     		.2byte	0x133
 2231 01be A4000000 		.4byte	0xa4
 2232 01c2 02       		.byte	0x2
 2233 01c3 23       		.byte	0x23
 2234 01c4 4C       		.uleb128 0x4c
 2235 01c5 00       		.byte	0x0
 2236 01c6 05       		.uleb128 0x5
 2237 01c7 4F000000 		.4byte	.LASF31
 2238 01cb 05       		.byte	0x5
 2239 01cc D7       		.byte	0xd7
 2240 01cd 83000000 		.4byte	0x83
 2241 01d1 0D       		.uleb128 0xd
 2242 01d2 01       		.byte	0x1
 2243 01d3 05       		.byte	0x5
 2244 01d4 DC       		.byte	0xdc
 2245 01d5 F8010000 		.4byte	0x1f8
 2246 01d9 0E       		.uleb128 0xe
 2247 01da C4020000 		.4byte	.LASF32
 2248 01de 00       		.sleb128 0
 2249 01df 0E       		.uleb128 0xe
 2250 01e0 4F020000 		.4byte	.LASF33
 2251 01e4 01       		.sleb128 1
 2252 01e5 0E       		.uleb128 0xe
 2253 01e6 08040000 		.4byte	.LASF34
 2254 01ea 02       		.sleb128 2
 2255 01eb 0E       		.uleb128 0xe
 2256 01ec 20000000 		.4byte	.LASF35
 2257 01f0 03       		.sleb128 3
 2258 01f1 0E       		.uleb128 0xe
 2259 01f2 A0030000 		.4byte	.LASF36
 2260 01f6 04       		.sleb128 4
 2261 01f7 00       		.byte	0x0
 2262 01f8 05       		.uleb128 0x5
 2263 01f9 72040000 		.4byte	.LASF37
 2264 01fd 05       		.byte	0x5
 2265 01fe E2       		.byte	0xe2
 2266 01ff D1010000 		.4byte	0x1d1
 2267 0203 0D       		.uleb128 0xd
 2268 0204 01       		.byte	0x1
ARM GAS  /tmp/cc7pvxVj.s 			page 42


 2269 0205 05       		.byte	0x5
 2270 0206 E7       		.byte	0xe7
 2271 0207 1E020000 		.4byte	0x21e
 2272 020b 0E       		.uleb128 0xe
 2273 020c 1E020000 		.4byte	.LASF38
 2274 0210 00       		.sleb128 0
 2275 0211 0E       		.uleb128 0xe
 2276 0212 98000000 		.4byte	.LASF39
 2277 0216 01       		.sleb128 1
 2278 0217 0E       		.uleb128 0xe
 2279 0218 1E010000 		.4byte	.LASF40
 2280 021c 02       		.sleb128 2
 2281 021d 00       		.byte	0x0
 2282 021e 0D       		.uleb128 0xd
 2283 021f 01       		.byte	0x1
 2284 0220 05       		.byte	0x5
 2285 0221 F0       		.byte	0xf0
 2286 0222 4B020000 		.4byte	0x24b
 2287 0226 0E       		.uleb128 0xe
 2288 0227 8E040000 		.4byte	.LASF41
 2289 022b 00       		.sleb128 0
 2290 022c 0E       		.uleb128 0xe
 2291 022d D9010000 		.4byte	.LASF42
 2292 0231 01       		.sleb128 1
 2293 0232 0E       		.uleb128 0xe
 2294 0233 31020000 		.4byte	.LASF43
 2295 0237 02       		.sleb128 2
 2296 0238 0E       		.uleb128 0xe
 2297 0239 65010000 		.4byte	.LASF44
 2298 023d 03       		.sleb128 3
 2299 023e 0E       		.uleb128 0xe
 2300 023f 57000000 		.4byte	.LASF45
 2301 0243 04       		.sleb128 4
 2302 0244 0E       		.uleb128 0xe
 2303 0245 EC000000 		.4byte	.LASF46
 2304 0249 05       		.sleb128 5
 2305 024a 00       		.byte	0x0
 2306 024b 05       		.uleb128 0x5
 2307 024c B9030000 		.4byte	.LASF47
 2308 0250 05       		.byte	0x5
 2309 0251 F7       		.byte	0xf7
 2310 0252 1E020000 		.4byte	0x21e
 2311 0256 0D       		.uleb128 0xd
 2312 0257 01       		.byte	0x1
 2313 0258 05       		.byte	0x5
 2314 0259 FC       		.byte	0xfc
 2315 025a 83020000 		.4byte	0x283
 2316 025e 0E       		.uleb128 0xe
 2317 025f 1D030000 		.4byte	.LASF48
 2318 0263 00       		.sleb128 0
 2319 0264 0E       		.uleb128 0xe
 2320 0265 F7010000 		.4byte	.LASF49
 2321 0269 01       		.sleb128 1
 2322 026a 0E       		.uleb128 0xe
 2323 026b 2F010000 		.4byte	.LASF50
 2324 026f 02       		.sleb128 2
 2325 0270 0E       		.uleb128 0xe
ARM GAS  /tmp/cc7pvxVj.s 			page 43


 2326 0271 C6040000 		.4byte	.LASF51
 2327 0275 03       		.sleb128 3
 2328 0276 0E       		.uleb128 0xe
 2329 0277 45040000 		.4byte	.LASF52
 2330 027b 04       		.sleb128 4
 2331 027c 0E       		.uleb128 0xe
 2332 027d 3E050000 		.4byte	.LASF53
 2333 0281 05       		.sleb128 5
 2334 0282 00       		.byte	0x0
 2335 0283 0F       		.uleb128 0xf
 2336 0284 BD010000 		.4byte	.LASF54
 2337 0288 05       		.byte	0x5
 2338 0289 0301     		.2byte	0x103
 2339 028b 56020000 		.4byte	0x256
 2340 028f 10       		.uleb128 0x10
 2341 0290 08       		.byte	0x8
 2342 0291 05       		.byte	0x5
 2343 0292 0801     		.2byte	0x108
 2344 0294 B7020000 		.4byte	0x2b7
 2345 0298 0B       		.uleb128 0xb
 2346 0299 5D010000 		.4byte	.LASF55
 2347 029d 05       		.byte	0x5
 2348 029e 0C01     		.2byte	0x10c
 2349 02a0 78000000 		.4byte	0x78
 2350 02a4 02       		.byte	0x2
 2351 02a5 23       		.byte	0x23
 2352 02a6 00       		.uleb128 0x0
 2353 02a7 0B       		.uleb128 0xb
 2354 02a8 26040000 		.4byte	.LASF56
 2355 02ac 05       		.byte	0x5
 2356 02ad 1001     		.2byte	0x110
 2357 02af C0000000 		.4byte	0xc0
 2358 02b3 02       		.byte	0x2
 2359 02b4 23       		.byte	0x23
 2360 02b5 04       		.uleb128 0x4
 2361 02b6 00       		.byte	0x0
 2362 02b7 0F       		.uleb128 0xf
 2363 02b8 6B000000 		.4byte	.LASF57
 2364 02bc 05       		.byte	0x5
 2365 02bd 1101     		.2byte	0x111
 2366 02bf 8F020000 		.4byte	0x28f
 2367 02c3 0F       		.uleb128 0xf
 2368 02c4 D5030000 		.4byte	.LASF58
 2369 02c8 05       		.byte	0x5
 2370 02c9 1901     		.2byte	0x119
 2371 02cb CF020000 		.4byte	0x2cf
 2372 02cf 06       		.uleb128 0x6
 2373 02d0 04       		.byte	0x4
 2374 02d1 D5020000 		.4byte	0x2d5
 2375 02d5 11       		.uleb128 0x11
 2376 02d6 01       		.byte	0x1
 2377 02d7 E1020000 		.4byte	0x2e1
 2378 02db 12       		.uleb128 0x12
 2379 02dc E1020000 		.4byte	0x2e1
 2380 02e0 00       		.byte	0x0
 2381 02e1 06       		.uleb128 0x6
 2382 02e2 04       		.byte	0x4
ARM GAS  /tmp/cc7pvxVj.s 			page 44


 2383 02e3 D0000000 		.4byte	0xd0
 2384 02e7 0F       		.uleb128 0xf
 2385 02e8 B4020000 		.4byte	.LASF59
 2386 02ec 05       		.byte	0x5
 2387 02ed 2201     		.2byte	0x122
 2388 02ef F3020000 		.4byte	0x2f3
 2389 02f3 06       		.uleb128 0x6
 2390 02f4 04       		.byte	0x4
 2391 02f5 F9020000 		.4byte	0x2f9
 2392 02f9 11       		.uleb128 0x11
 2393 02fa 01       		.byte	0x1
 2394 02fb 0A030000 		.4byte	0x30a
 2395 02ff 12       		.uleb128 0x12
 2396 0300 E1020000 		.4byte	0x2e1
 2397 0304 12       		.uleb128 0x12
 2398 0305 C6010000 		.4byte	0x1c6
 2399 0309 00       		.byte	0x0
 2400 030a 0F       		.uleb128 0xf
 2401 030b 0A030000 		.4byte	.LASF60
 2402 030f 05       		.byte	0x5
 2403 0310 2B01     		.2byte	0x12b
 2404 0312 16030000 		.4byte	0x316
 2405 0316 06       		.uleb128 0x6
 2406 0317 04       		.byte	0x4
 2407 0318 1C030000 		.4byte	0x31c
 2408 031c 11       		.uleb128 0x11
 2409 031d 01       		.byte	0x1
 2410 031e 2D030000 		.4byte	0x32d
 2411 0322 12       		.uleb128 0x12
 2412 0323 E1020000 		.4byte	0x2e1
 2413 0327 12       		.uleb128 0x12
 2414 0328 83020000 		.4byte	0x283
 2415 032c 00       		.byte	0x0
 2416 032d 0F       		.uleb128 0xf
 2417 032e 30040000 		.4byte	.LASF61
 2418 0332 05       		.byte	0x5
 2419 0333 3701     		.2byte	0x137
 2420 0335 39030000 		.4byte	0x339
 2421 0339 06       		.uleb128 0x6
 2422 033a 04       		.byte	0x4
 2423 033b 3F030000 		.4byte	0x33f
 2424 033f 13       		.uleb128 0x13
 2425 0340 01       		.byte	0x1
 2426 0341 AF000000 		.4byte	0xaf
 2427 0345 4F030000 		.4byte	0x34f
 2428 0349 12       		.uleb128 0x12
 2429 034a E1020000 		.4byte	0x2e1
 2430 034e 00       		.byte	0x0
 2431 034f 0F       		.uleb128 0xf
 2432 0350 8D030000 		.4byte	.LASF62
 2433 0354 05       		.byte	0x5
 2434 0355 3C01     		.2byte	0x13c
 2435 0357 5B030000 		.4byte	0x35b
 2436 035b 06       		.uleb128 0x6
 2437 035c 04       		.byte	0x4
 2438 035d 61030000 		.4byte	0x361
 2439 0361 13       		.uleb128 0x13
ARM GAS  /tmp/cc7pvxVj.s 			page 45


 2440 0362 01       		.byte	0x1
 2441 0363 80030000 		.4byte	0x380
 2442 0367 80030000 		.4byte	0x380
 2443 036b 12       		.uleb128 0x12
 2444 036c E1020000 		.4byte	0x2e1
 2445 0370 12       		.uleb128 0x12
 2446 0371 83000000 		.4byte	0x83
 2447 0375 12       		.uleb128 0x12
 2448 0376 83000000 		.4byte	0x83
 2449 037a 12       		.uleb128 0x12
 2450 037b 8E000000 		.4byte	0x8e
 2451 037f 00       		.byte	0x0
 2452 0380 06       		.uleb128 0x6
 2453 0381 04       		.byte	0x4
 2454 0382 86030000 		.4byte	0x386
 2455 0386 07       		.uleb128 0x7
 2456 0387 B7020000 		.4byte	0x2b7
 2457 038b 14       		.uleb128 0x14
 2458 038c 0C       		.byte	0xc
 2459 038d 06       		.byte	0x6
 2460 038e 72       		.byte	0x72
 2461 038f BE030000 		.4byte	0x3be
 2462 0393 0A       		.uleb128 0xa
 2463 0394 34030000 		.4byte	.LASF63
 2464 0398 06       		.byte	0x6
 2465 0399 76       		.byte	0x76
 2466 039a C0000000 		.4byte	0xc0
 2467 039e 02       		.byte	0x2
 2468 039f 23       		.byte	0x23
 2469 03a0 00       		.uleb128 0x0
 2470 03a1 0A       		.uleb128 0xa
 2471 03a2 E3030000 		.4byte	.LASF64
 2472 03a6 06       		.byte	0x6
 2473 03a7 7A       		.byte	0x7a
 2474 03a8 78000000 		.4byte	0x78
 2475 03ac 02       		.byte	0x2
 2476 03ad 23       		.byte	0x23
 2477 03ae 04       		.uleb128 0x4
 2478 03af 0A       		.uleb128 0xa
 2479 03b0 B3030000 		.4byte	.LASF65
 2480 03b4 06       		.byte	0x6
 2481 03b5 7E       		.byte	0x7e
 2482 03b6 78000000 		.4byte	0x78
 2483 03ba 02       		.byte	0x2
 2484 03bb 23       		.byte	0x23
 2485 03bc 08       		.uleb128 0x8
 2486 03bd 00       		.byte	0x0
 2487 03be 05       		.uleb128 0x5
 2488 03bf 66020000 		.4byte	.LASF66
 2489 03c3 06       		.byte	0x6
 2490 03c4 7F       		.byte	0x7f
 2491 03c5 8B030000 		.4byte	0x38b
 2492 03c9 14       		.uleb128 0x14
 2493 03ca 10       		.byte	0x10
 2494 03cb 06       		.byte	0x6
 2495 03cc 84       		.byte	0x84
 2496 03cd 0A040000 		.4byte	0x40a
ARM GAS  /tmp/cc7pvxVj.s 			page 46


 2497 03d1 0A       		.uleb128 0xa
 2498 03d2 79020000 		.4byte	.LASF67
 2499 03d6 06       		.byte	0x6
 2500 03d7 88       		.byte	0x88
 2501 03d8 8E000000 		.4byte	0x8e
 2502 03dc 02       		.byte	0x2
 2503 03dd 23       		.byte	0x23
 2504 03de 00       		.uleb128 0x0
 2505 03df 0A       		.uleb128 0xa
 2506 03e0 C0040000 		.4byte	.LASF68
 2507 03e4 06       		.byte	0x6
 2508 03e5 8C       		.byte	0x8c
 2509 03e6 BA000000 		.4byte	0xba
 2510 03ea 02       		.byte	0x2
 2511 03eb 23       		.byte	0x23
 2512 03ec 04       		.uleb128 0x4
 2513 03ed 0A       		.uleb128 0xa
 2514 03ee EA030000 		.4byte	.LASF69
 2515 03f2 06       		.byte	0x6
 2516 03f3 90       		.byte	0x90
 2517 03f4 78000000 		.4byte	0x78
 2518 03f8 02       		.byte	0x2
 2519 03f9 23       		.byte	0x23
 2520 03fa 08       		.uleb128 0x8
 2521 03fb 0A       		.uleb128 0xa
 2522 03fc E0000000 		.4byte	.LASF70
 2523 0400 06       		.byte	0x6
 2524 0401 94       		.byte	0x94
 2525 0402 78000000 		.4byte	0x78
 2526 0406 02       		.byte	0x2
 2527 0407 23       		.byte	0x23
 2528 0408 0C       		.uleb128 0xc
 2529 0409 00       		.byte	0x0
 2530 040a 05       		.uleb128 0x5
 2531 040b 12040000 		.4byte	.LASF71
 2532 040f 06       		.byte	0x6
 2533 0410 95       		.byte	0x95
 2534 0411 C9030000 		.4byte	0x3c9
 2535 0415 14       		.uleb128 0x14
 2536 0416 1C       		.byte	0x1c
 2537 0417 06       		.byte	0x6
 2538 0418 9B       		.byte	0x9b
 2539 0419 8E040000 		.4byte	0x48e
 2540 041d 0A       		.uleb128 0xa
 2541 041e C8010000 		.4byte	.LASF72
 2542 0422 06       		.byte	0x6
 2543 0423 9F       		.byte	0x9f
 2544 0424 A4000000 		.4byte	0xa4
 2545 0428 02       		.byte	0x2
 2546 0429 23       		.byte	0x23
 2547 042a 00       		.uleb128 0x0
 2548 042b 0A       		.uleb128 0xa
 2549 042c 85040000 		.4byte	.LASF73
 2550 0430 06       		.byte	0x6
 2551 0431 AA       		.byte	0xaa
 2552 0432 E7020000 		.4byte	0x2e7
 2553 0436 02       		.byte	0x2
ARM GAS  /tmp/cc7pvxVj.s 			page 47


 2554 0437 23       		.byte	0x23
 2555 0438 04       		.uleb128 0x4
 2556 0439 0A       		.uleb128 0xa
 2557 043a E6000000 		.4byte	.LASF74
 2558 043e 06       		.byte	0x6
 2559 043f B0       		.byte	0xb0
 2560 0440 E7020000 		.4byte	0x2e7
 2561 0444 02       		.byte	0x2
 2562 0445 23       		.byte	0x23
 2563 0446 08       		.uleb128 0x8
 2564 0447 0A       		.uleb128 0xa
 2565 0448 08050000 		.4byte	.LASF75
 2566 044c 06       		.byte	0x6
 2567 044d B6       		.byte	0xb6
 2568 044e E7020000 		.4byte	0x2e7
 2569 0452 02       		.byte	0x2
 2570 0453 23       		.byte	0x23
 2571 0454 0C       		.uleb128 0xc
 2572 0455 0A       		.uleb128 0xa
 2573 0456 B3000000 		.4byte	.LASF76
 2574 045a 06       		.byte	0x6
 2575 045b BC       		.byte	0xbc
 2576 045c 8E000000 		.4byte	0x8e
 2577 0460 02       		.byte	0x2
 2578 0461 23       		.byte	0x23
 2579 0462 10       		.uleb128 0x10
 2580 0463 0A       		.uleb128 0xa
 2581 0464 EB010000 		.4byte	.LASF77
 2582 0468 06       		.byte	0x6
 2583 0469 C2       		.byte	0xc2
 2584 046a 8E000000 		.4byte	0x8e
 2585 046e 02       		.byte	0x2
 2586 046f 23       		.byte	0x23
 2587 0470 12       		.uleb128 0x12
 2588 0471 0A       		.uleb128 0xa
 2589 0472 8F010000 		.4byte	.LASF78
 2590 0476 06       		.byte	0x6
 2591 0477 C9       		.byte	0xc9
 2592 0478 8E040000 		.4byte	0x48e
 2593 047c 02       		.byte	0x2
 2594 047d 23       		.byte	0x23
 2595 047e 14       		.uleb128 0x14
 2596 047f 0A       		.uleb128 0xa
 2597 0480 3A030000 		.4byte	.LASF79
 2598 0484 06       		.byte	0x6
 2599 0485 D0       		.byte	0xd0
 2600 0486 94040000 		.4byte	0x494
 2601 048a 02       		.byte	0x2
 2602 048b 23       		.byte	0x23
 2603 048c 18       		.uleb128 0x18
 2604 048d 00       		.byte	0x0
 2605 048e 06       		.uleb128 0x6
 2606 048f 04       		.byte	0x4
 2607 0490 BE030000 		.4byte	0x3be
 2608 0494 06       		.uleb128 0x6
 2609 0495 04       		.byte	0x4
 2610 0496 0A040000 		.4byte	0x40a
ARM GAS  /tmp/cc7pvxVj.s 			page 48


 2611 049a 05       		.uleb128 0x5
 2612 049b 70010000 		.4byte	.LASF80
 2613 049f 06       		.byte	0x6
 2614 04a0 D2       		.byte	0xd2
 2615 04a1 15040000 		.4byte	0x415
 2616 04a5 14       		.uleb128 0x14
 2617 04a6 10       		.byte	0x10
 2618 04a7 06       		.byte	0x6
 2619 04a8 D7       		.byte	0xd7
 2620 04a9 E6040000 		.4byte	0x4e6
 2621 04ad 0A       		.uleb128 0xa
 2622 04ae AA000000 		.4byte	.LASF81
 2623 04b2 06       		.byte	0x6
 2624 04b3 DC       		.byte	0xdc
 2625 04b4 0A030000 		.4byte	0x30a
 2626 04b8 02       		.byte	0x2
 2627 04b9 23       		.byte	0x23
 2628 04ba 00       		.uleb128 0x0
 2629 04bb 0A       		.uleb128 0xa
 2630 04bc 52030000 		.4byte	.LASF82
 2631 04c0 06       		.byte	0x6
 2632 04c1 E1       		.byte	0xe1
 2633 04c2 4F030000 		.4byte	0x34f
 2634 04c6 02       		.byte	0x2
 2635 04c7 23       		.byte	0x23
 2636 04c8 04       		.uleb128 0x4
 2637 04c9 0A       		.uleb128 0xa
 2638 04ca 4C010000 		.4byte	.LASF83
 2639 04ce 06       		.byte	0x6
 2640 04cf E7       		.byte	0xe7
 2641 04d0 2D030000 		.4byte	0x32d
 2642 04d4 02       		.byte	0x2
 2643 04d5 23       		.byte	0x23
 2644 04d6 08       		.uleb128 0x8
 2645 04d7 0A       		.uleb128 0xa
 2646 04d8 E4010000 		.4byte	.LASF84
 2647 04dc 06       		.byte	0x6
 2648 04dd EB       		.byte	0xeb
 2649 04de C3020000 		.4byte	0x2c3
 2650 04e2 02       		.byte	0x2
 2651 04e3 23       		.byte	0x23
 2652 04e4 0C       		.uleb128 0xc
 2653 04e5 00       		.byte	0x0
 2654 04e6 05       		.uleb128 0x5
 2655 04e7 34000000 		.4byte	.LASF85
 2656 04eb 06       		.byte	0x6
 2657 04ec ED       		.byte	0xed
 2658 04ed A5040000 		.4byte	0x4a5
 2659 04f1 06       		.uleb128 0x6
 2660 04f2 04       		.byte	0x4
 2661 04f3 F7040000 		.4byte	0x4f7
 2662 04f7 07       		.uleb128 0x7
 2663 04f8 E6040000 		.4byte	0x4e6
 2664 04fc 15       		.uleb128 0x15
 2665 04fd 0C050000 		.4byte	0x50c
 2666 0501 0C050000 		.4byte	0x50c
 2667 0505 16       		.uleb128 0x16
ARM GAS  /tmp/cc7pvxVj.s 			page 49


 2668 0506 4C000000 		.4byte	0x4c
 2669 050a 07       		.byte	0x7
 2670 050b 00       		.byte	0x0
 2671 050c 06       		.uleb128 0x6
 2672 050d 04       		.byte	0x4
 2673 050e 12050000 		.4byte	0x512
 2674 0512 07       		.uleb128 0x7
 2675 0513 9A040000 		.4byte	0x49a
 2676 0517 15       		.uleb128 0x15
 2677 0518 83000000 		.4byte	0x83
 2678 051c 27050000 		.4byte	0x527
 2679 0520 16       		.uleb128 0x16
 2680 0521 4C000000 		.4byte	0x4c
 2681 0525 07       		.byte	0x7
 2682 0526 00       		.byte	0x0
 2683 0527 17       		.uleb128 0x17
 2684 0528 12020000 		.4byte	.LASF108
 2685 052c 01       		.byte	0x1
 2686 052d 45       		.byte	0x45
 2687 052e 01       		.byte	0x1
 2688 052f 00000000 		.4byte	.LFB55
 2689 0533 22000000 		.4byte	.LFE55
 2690 0537 00000000 		.4byte	.LLST0
 2691 053b 4F050000 		.4byte	0x54f
 2692 053f 18       		.uleb128 0x18
 2693 0540 40040000 		.4byte	.LASF86
 2694 0544 01       		.byte	0x1
 2695 0545 45       		.byte	0x45
 2696 0546 E1020000 		.4byte	0x2e1
 2697 054a 20000000 		.4byte	.LLST1
 2698 054e 00       		.byte	0x0
 2699 054f 19       		.uleb128 0x19
 2700 0550 01       		.byte	0x1
 2701 0551 90000000 		.4byte	.LASF109
 2702 0555 01       		.byte	0x1
 2703 0556 EB       		.byte	0xeb
 2704 0557 01       		.byte	0x1
 2705 0558 00000000 		.4byte	.LFB57
 2706 055c 04000000 		.4byte	.LFE57
 2707 0560 02       		.byte	0x2
 2708 0561 7D       		.byte	0x7d
 2709 0562 00       		.sleb128 0
 2710 0563 1A       		.uleb128 0x1a
 2711 0564 01       		.byte	0x1
 2712 0565 30050000 		.4byte	.LASF87
 2713 0569 01       		.byte	0x1
 2714 056a F7       		.byte	0xf7
 2715 056b 01       		.byte	0x1
 2716 056c 00000000 		.4byte	.LFB58
 2717 0570 10000000 		.4byte	.LFE58
 2718 0574 02       		.byte	0x2
 2719 0575 7D       		.byte	0x7d
 2720 0576 00       		.sleb128 0
 2721 0577 89050000 		.4byte	0x589
 2722 057b 1B       		.uleb128 0x1b
 2723 057c 40040000 		.4byte	.LASF86
 2724 0580 01       		.byte	0x1
ARM GAS  /tmp/cc7pvxVj.s 			page 50


 2725 0581 F7       		.byte	0xf7
 2726 0582 E1020000 		.4byte	0x2e1
 2727 0586 01       		.byte	0x1
 2728 0587 50       		.byte	0x50
 2729 0588 00       		.byte	0x0
 2730 0589 1C       		.uleb128 0x1c
 2731 058a 01       		.byte	0x1
 2732 058b F2040000 		.4byte	.LASF88
 2733 058f 01       		.byte	0x1
 2734 0590 0801     		.2byte	0x108
 2735 0592 01       		.byte	0x1
 2736 0593 00000000 		.4byte	.LFB59
 2737 0597 5C000000 		.4byte	.LFE59
 2738 059b 3E000000 		.4byte	.LLST2
 2739 059f D2050000 		.4byte	0x5d2
 2740 05a3 1D       		.uleb128 0x1d
 2741 05a4 40040000 		.4byte	.LASF86
 2742 05a8 01       		.byte	0x1
 2743 05a9 0801     		.2byte	0x108
 2744 05ab E1020000 		.4byte	0x2e1
 2745 05af 5E000000 		.4byte	.LLST3
 2746 05b3 1D       		.uleb128 0x1d
 2747 05b4 06010000 		.4byte	.LASF18
 2748 05b8 01       		.byte	0x1
 2749 05b9 0801     		.2byte	0x108
 2750 05bb F1040000 		.4byte	0x4f1
 2751 05bf 7C000000 		.4byte	.LLST4
 2752 05c3 1E       		.uleb128 0x1e
 2753 05c4 6900     		.ascii	"i\000"
 2754 05c6 01       		.byte	0x1
 2755 05c7 0901     		.2byte	0x109
 2756 05c9 4C000000 		.4byte	0x4c
 2757 05cd 9A000000 		.4byte	.LLST5
 2758 05d1 00       		.byte	0x0
 2759 05d2 1C       		.uleb128 0x1c
 2760 05d3 01       		.byte	0x1
 2761 05d4 44010000 		.4byte	.LASF89
 2762 05d8 01       		.byte	0x1
 2763 05d9 1F01     		.2byte	0x11f
 2764 05db 01       		.byte	0x1
 2765 05dc 00000000 		.4byte	.LFB60
 2766 05e0 44000000 		.4byte	.LFE60
 2767 05e4 AE000000 		.4byte	.LLST6
 2768 05e8 FD050000 		.4byte	0x5fd
 2769 05ec 1D       		.uleb128 0x1d
 2770 05ed 40040000 		.4byte	.LASF86
 2771 05f1 01       		.byte	0x1
 2772 05f2 1F01     		.2byte	0x11f
 2773 05f4 E1020000 		.4byte	0x2e1
 2774 05f8 CE000000 		.4byte	.LLST7
 2775 05fc 00       		.byte	0x0
 2776 05fd 1C       		.uleb128 0x1c
 2777 05fe 01       		.byte	0x1
 2778 05ff 56040000 		.4byte	.LASF90
 2779 0603 01       		.byte	0x1
 2780 0604 3801     		.2byte	0x138
 2781 0606 01       		.byte	0x1
ARM GAS  /tmp/cc7pvxVj.s 			page 51


 2782 0607 00000000 		.4byte	.LFB61
 2783 060b 7C000000 		.4byte	.LFE61
 2784 060f EC000000 		.4byte	.LLST8
 2785 0613 47060000 		.4byte	0x647
 2786 0617 1D       		.uleb128 0x1d
 2787 0618 40040000 		.4byte	.LASF86
 2788 061c 01       		.byte	0x1
 2789 061d 3801     		.2byte	0x138
 2790 061f E1020000 		.4byte	0x2e1
 2791 0623 0C010000 		.4byte	.LLST9
 2792 0627 1F       		.uleb128 0x1f
 2793 0628 657000   		.ascii	"ep\000"
 2794 062b 01       		.byte	0x1
 2795 062c 3801     		.2byte	0x138
 2796 062e C6010000 		.4byte	0x1c6
 2797 0632 2A010000 		.4byte	.LLST10
 2798 0636 1D       		.uleb128 0x1d
 2799 0637 03040000 		.4byte	.LASF91
 2800 063b 01       		.byte	0x1
 2801 063c 3901     		.2byte	0x139
 2802 063e 0C050000 		.4byte	0x50c
 2803 0642 3D010000 		.4byte	.LLST11
 2804 0646 00       		.byte	0x0
 2805 0647 1C       		.uleb128 0x1c
 2806 0648 01       		.byte	0x1
 2807 0649 0F050000 		.4byte	.LASF92
 2808 064d 01       		.byte	0x1
 2809 064e 5801     		.2byte	0x158
 2810 0650 01       		.byte	0x1
 2811 0651 00000000 		.4byte	.LFB62
 2812 0655 54000000 		.4byte	.LFE62
 2813 0659 5B010000 		.4byte	.LLST12
 2814 065d 80060000 		.4byte	0x680
 2815 0661 1D       		.uleb128 0x1d
 2816 0662 40040000 		.4byte	.LASF86
 2817 0666 01       		.byte	0x1
 2818 0667 5801     		.2byte	0x158
 2819 0669 E1020000 		.4byte	0x2e1
 2820 066d 7B010000 		.4byte	.LLST13
 2821 0671 1E       		.uleb128 0x1e
 2822 0672 6900     		.ascii	"i\000"
 2823 0674 01       		.byte	0x1
 2824 0675 5901     		.2byte	0x159
 2825 0677 4C000000 		.4byte	0x4c
 2826 067b 99010000 		.4byte	.LLST14
 2827 067f 00       		.byte	0x0
 2828 0680 20       		.uleb128 0x20
 2829 0681 01       		.byte	0x1
 2830 0682 AF040000 		.4byte	.LASF93
 2831 0686 01       		.byte	0x1
 2832 0687 7601     		.2byte	0x176
 2833 0689 01       		.byte	0x1
 2834 068a AF000000 		.4byte	0xaf
 2835 068e 00000000 		.4byte	.LFB63
 2836 0692 40000000 		.4byte	.LFE63
 2837 0696 AD010000 		.4byte	.LLST15
 2838 069a BE060000 		.4byte	0x6be
ARM GAS  /tmp/cc7pvxVj.s 			page 52


 2839 069e 1D       		.uleb128 0x1d
 2840 069f 40040000 		.4byte	.LASF86
 2841 06a3 01       		.byte	0x1
 2842 06a4 7601     		.2byte	0x176
 2843 06a6 E1020000 		.4byte	0x2e1
 2844 06aa CD010000 		.4byte	.LLST16
 2845 06ae 1F       		.uleb128 0x1f
 2846 06af 657000   		.ascii	"ep\000"
 2847 06b2 01       		.byte	0x1
 2848 06b3 7601     		.2byte	0x176
 2849 06b5 C6010000 		.4byte	0x1c6
 2850 06b9 EB010000 		.4byte	.LLST17
 2851 06bd 00       		.byte	0x0
 2852 06be 20       		.uleb128 0x20
 2853 06bf 01       		.byte	0x1
 2854 06c0 79000000 		.4byte	.LASF94
 2855 06c4 01       		.byte	0x1
 2856 06c5 9001     		.2byte	0x190
 2857 06c7 01       		.byte	0x1
 2858 06c8 AF000000 		.4byte	0xaf
 2859 06cc 00000000 		.4byte	.LFB64
 2860 06d0 40000000 		.4byte	.LFE64
 2861 06d4 FE010000 		.4byte	.LLST18
 2862 06d8 FC060000 		.4byte	0x6fc
 2863 06dc 1D       		.uleb128 0x1d
 2864 06dd 40040000 		.4byte	.LASF86
 2865 06e1 01       		.byte	0x1
 2866 06e2 9001     		.2byte	0x190
 2867 06e4 E1020000 		.4byte	0x2e1
 2868 06e8 1E020000 		.4byte	.LLST19
 2869 06ec 1F       		.uleb128 0x1f
 2870 06ed 657000   		.ascii	"ep\000"
 2871 06f0 01       		.byte	0x1
 2872 06f1 9001     		.2byte	0x190
 2873 06f3 C6010000 		.4byte	0x1c6
 2874 06f7 3C020000 		.4byte	.LLST20
 2875 06fb 00       		.byte	0x0
 2876 06fc 20       		.uleb128 0x20
 2877 06fd 01       		.byte	0x1
 2878 06fe 0D010000 		.4byte	.LASF95
 2879 0702 01       		.byte	0x1
 2880 0703 A801     		.2byte	0x1a8
 2881 0705 01       		.byte	0x1
 2882 0706 AF000000 		.4byte	0xaf
 2883 070a 00000000 		.4byte	.LFB65
 2884 070e 34000000 		.4byte	.LFE65
 2885 0712 4F020000 		.4byte	.LLST21
 2886 0716 3A070000 		.4byte	0x73a
 2887 071a 1D       		.uleb128 0x1d
 2888 071b 40040000 		.4byte	.LASF86
 2889 071f 01       		.byte	0x1
 2890 0720 A801     		.2byte	0x1a8
 2891 0722 E1020000 		.4byte	0x2e1
 2892 0726 6F020000 		.4byte	.LLST22
 2893 072a 1F       		.uleb128 0x1f
 2894 072b 657000   		.ascii	"ep\000"
 2895 072e 01       		.byte	0x1
ARM GAS  /tmp/cc7pvxVj.s 			page 53


 2896 072f A801     		.2byte	0x1a8
 2897 0731 C6010000 		.4byte	0x1c6
 2898 0735 8D020000 		.4byte	.LLST23
 2899 0739 00       		.byte	0x0
 2900 073a 20       		.uleb128 0x20
 2901 073b 01       		.byte	0x1
 2902 073c 5A050000 		.4byte	.LASF96
 2903 0740 01       		.byte	0x1
 2904 0741 BF01     		.2byte	0x1bf
 2905 0743 01       		.byte	0x1
 2906 0744 AF000000 		.4byte	0xaf
 2907 0748 00000000 		.4byte	.LFB66
 2908 074c 34000000 		.4byte	.LFE66
 2909 0750 A0020000 		.4byte	.LLST24
 2910 0754 78070000 		.4byte	0x778
 2911 0758 1D       		.uleb128 0x1d
 2912 0759 40040000 		.4byte	.LASF86
 2913 075d 01       		.byte	0x1
 2914 075e BF01     		.2byte	0x1bf
 2915 0760 E1020000 		.4byte	0x2e1
 2916 0764 C0020000 		.4byte	.LLST25
 2917 0768 1F       		.uleb128 0x1f
 2918 0769 657000   		.ascii	"ep\000"
 2919 076c 01       		.byte	0x1
 2920 076d BF01     		.2byte	0x1bf
 2921 076f C6010000 		.4byte	0x1c6
 2922 0773 DE020000 		.4byte	.LLST26
 2923 0777 00       		.byte	0x0
 2924 0778 1C       		.uleb128 0x1c
 2925 0779 01       		.byte	0x1
 2926 077a A4040000 		.4byte	.LASF97
 2927 077e 01       		.byte	0x1
 2928 077f D401     		.2byte	0x1d4
 2929 0781 01       		.byte	0x1
 2930 0782 00000000 		.4byte	.LFB67
 2931 0786 32000000 		.4byte	.LFE67
 2932 078a F1020000 		.4byte	.LLST27
 2933 078e AF070000 		.4byte	0x7af
 2934 0792 21       		.uleb128 0x21
 2935 0793 40040000 		.4byte	.LASF86
 2936 0797 01       		.byte	0x1
 2937 0798 D401     		.2byte	0x1d4
 2938 079a E1020000 		.4byte	0x2e1
 2939 079e 01       		.byte	0x1
 2940 079f 50       		.byte	0x50
 2941 07a0 1E       		.uleb128 0x1e
 2942 07a1 6900     		.ascii	"i\000"
 2943 07a3 01       		.byte	0x1
 2944 07a4 D501     		.2byte	0x1d5
 2945 07a6 4C000000 		.4byte	0x4c
 2946 07aa 11030000 		.4byte	.LLST28
 2947 07ae 00       		.byte	0x0
 2948 07af 22       		.uleb128 0x22
 2949 07b0 CF020000 		.4byte	.LASF110
 2950 07b4 01       		.byte	0x1
 2951 07b5 59       		.byte	0x59
 2952 07b6 01       		.byte	0x1
ARM GAS  /tmp/cc7pvxVj.s 			page 54


 2953 07b7 AF000000 		.4byte	0xaf
 2954 07bb 01       		.byte	0x1
 2955 07bc D6070000 		.4byte	0x7d6
 2956 07c0 23       		.uleb128 0x23
 2957 07c1 40040000 		.4byte	.LASF86
 2958 07c5 01       		.byte	0x1
 2959 07c6 59       		.byte	0x59
 2960 07c7 E1020000 		.4byte	0x2e1
 2961 07cb 24       		.uleb128 0x24
 2962 07cc 647000   		.ascii	"dp\000"
 2963 07cf 01       		.byte	0x1
 2964 07d0 5A       		.byte	0x5a
 2965 07d1 80030000 		.4byte	0x380
 2966 07d5 00       		.byte	0x0
 2967 07d6 1C       		.uleb128 0x1c
 2968 07d7 01       		.byte	0x1
 2969 07d8 0C000000 		.4byte	.LASF98
 2970 07dc 01       		.byte	0x1
 2971 07dd F301     		.2byte	0x1f3
 2972 07df 01       		.byte	0x1
 2973 07e0 00000000 		.4byte	.LFB68
 2974 07e4 E8020000 		.4byte	.LFE68
 2975 07e8 85030000 		.4byte	.LLST29
 2976 07ec 49080000 		.4byte	0x849
 2977 07f0 1D       		.uleb128 0x1d
 2978 07f1 40040000 		.4byte	.LASF86
 2979 07f5 01       		.byte	0x1
 2980 07f6 F301     		.2byte	0x1f3
 2981 07f8 E1020000 		.4byte	0x2e1
 2982 07fc A5030000 		.4byte	.LLST30
 2983 0800 1F       		.uleb128 0x1f
 2984 0801 657000   		.ascii	"ep\000"
 2985 0804 01       		.byte	0x1
 2986 0805 F301     		.2byte	0x1f3
 2987 0807 C6010000 		.4byte	0x1c6
 2988 080b C3030000 		.4byte	.LLST31
 2989 080f 1E       		.uleb128 0x1e
 2990 0810 6D617800 		.ascii	"max\000"
 2991 0814 01       		.byte	0x1
 2992 0815 F401     		.2byte	0x1f4
 2993 0817 78000000 		.4byte	0x78
 2994 081b D6030000 		.4byte	.LLST32
 2995 081f 25       		.uleb128 0x25
 2996 0820 AF070000 		.4byte	0x7af
 2997 0824 8E000000 		.4byte	.LBB4
 2998 0828 00000000 		.4byte	.Ldebug_ranges0+0x0
 2999 082c 01       		.byte	0x1
 3000 082d 0002     		.2byte	0x200
 3001 082f 26       		.uleb128 0x26
 3002 0830 C0070000 		.4byte	0x7c0
 3003 0834 0A040000 		.4byte	.LLST33
 3004 0838 27       		.uleb128 0x27
 3005 0839 18000000 		.4byte	.Ldebug_ranges0+0x18
 3006 083d 28       		.uleb128 0x28
 3007 083e CB070000 		.4byte	0x7cb
 3008 0842 28040000 		.4byte	.LLST34
 3009 0846 00       		.byte	0x0
ARM GAS  /tmp/cc7pvxVj.s 			page 55


 3010 0847 00       		.byte	0x0
 3011 0848 00       		.byte	0x0
 3012 0849 1C       		.uleb128 0x1c
 3013 084a 01       		.byte	0x1
 3014 084b 67040000 		.4byte	.LASF99
 3015 084f 01       		.byte	0x1
 3016 0850 3F02     		.2byte	0x23f
 3017 0852 01       		.byte	0x1
 3018 0853 00000000 		.4byte	.LFB69
 3019 0857 8C000000 		.4byte	.LFE69
 3020 085b 3B040000 		.4byte	.LLST35
 3021 085f 93080000 		.4byte	0x893
 3022 0863 1D       		.uleb128 0x1d
 3023 0864 40040000 		.4byte	.LASF86
 3024 0868 01       		.byte	0x1
 3025 0869 3F02     		.2byte	0x23f
 3026 086b E1020000 		.4byte	0x2e1
 3027 086f 5B040000 		.4byte	.LLST36
 3028 0873 1F       		.uleb128 0x1f
 3029 0874 657000   		.ascii	"ep\000"
 3030 0877 01       		.byte	0x1
 3031 0878 3F02     		.2byte	0x23f
 3032 087a C6010000 		.4byte	0x1c6
 3033 087e 79040000 		.4byte	.LLST37
 3034 0882 1E       		.uleb128 0x1e
 3035 0883 6D617800 		.ascii	"max\000"
 3036 0887 01       		.byte	0x1
 3037 0888 4002     		.2byte	0x240
 3038 088a 78000000 		.4byte	0x78
 3039 088e A2040000 		.4byte	.LLST38
 3040 0892 00       		.byte	0x0
 3041 0893 1C       		.uleb128 0x1c
 3042 0894 01       		.byte	0x1
 3043 0895 FA000000 		.4byte	.LASF100
 3044 0899 01       		.byte	0x1
 3045 089a 7102     		.2byte	0x271
 3046 089c 01       		.byte	0x1
 3047 089d 00000000 		.4byte	.LFB70
 3048 08a1 68000000 		.4byte	.LFE70
 3049 08a5 C4040000 		.4byte	.LLST39
 3050 08a9 CD080000 		.4byte	0x8cd
 3051 08ad 1D       		.uleb128 0x1d
 3052 08ae 40040000 		.4byte	.LASF86
 3053 08b2 01       		.byte	0x1
 3054 08b3 7102     		.2byte	0x271
 3055 08b5 E1020000 		.4byte	0x2e1
 3056 08b9 E4040000 		.4byte	.LLST40
 3057 08bd 1F       		.uleb128 0x1f
 3058 08be 657000   		.ascii	"ep\000"
 3059 08c1 01       		.byte	0x1
 3060 08c2 7102     		.2byte	0x271
 3061 08c4 C6010000 		.4byte	0x1c6
 3062 08c8 02050000 		.4byte	.LLST41
 3063 08cc 00       		.byte	0x0
 3064 08cd 29       		.uleb128 0x29
 3065 08ce D8040000 		.4byte	.LASF104
 3066 08d2 07       		.byte	0x7
ARM GAS  /tmp/cc7pvxVj.s 			page 56


 3067 08d3 9404     		.2byte	0x494
 3068 08d5 CB000000 		.4byte	0xcb
 3069 08d9 01       		.byte	0x1
 3070 08da 01       		.byte	0x1
 3071 08db 15       		.uleb128 0x15
 3072 08dc 83000000 		.4byte	0x83
 3073 08e0 EB080000 		.4byte	0x8eb
 3074 08e4 16       		.uleb128 0x16
 3075 08e5 4C000000 		.4byte	0x4c
 3076 08e9 01       		.byte	0x1
 3077 08ea 00       		.byte	0x0
 3078 08eb 2A       		.uleb128 0x2a
 3079 08ec 00000000 		.4byte	.LASF101
 3080 08f0 01       		.byte	0x1
 3081 08f1 38       		.byte	0x38
 3082 08f2 FC080000 		.4byte	0x8fc
 3083 08f6 05       		.byte	0x5
 3084 08f7 03       		.byte	0x3
 3085 08f8 00000000 		.4byte	zero_status
 3086 08fc 07       		.uleb128 0x7
 3087 08fd DB080000 		.4byte	0x8db
 3088 0901 2A       		.uleb128 0x2a
 3089 0902 6C030000 		.4byte	.LASF102
 3090 0906 01       		.byte	0x1
 3091 0907 39       		.byte	0x39
 3092 0908 12090000 		.4byte	0x912
 3093 090c 05       		.byte	0x5
 3094 090d 03       		.byte	0x3
 3095 090e 00000000 		.4byte	active_status
 3096 0912 07       		.uleb128 0x7
 3097 0913 DB080000 		.4byte	0x8db
 3098 0917 2A       		.uleb128 0x2a
 3099 0918 C7030000 		.4byte	.LASF103
 3100 091c 01       		.byte	0x1
 3101 091d 3A       		.byte	0x3a
 3102 091e 28090000 		.4byte	0x928
 3103 0922 05       		.byte	0x5
 3104 0923 03       		.byte	0x3
 3105 0924 00000000 		.4byte	halted_status
 3106 0928 07       		.uleb128 0x7
 3107 0929 DB080000 		.4byte	0x8db
 3108 092d 29       		.uleb128 0x29
 3109 092e D8040000 		.4byte	.LASF104
 3110 0932 07       		.byte	0x7
 3111 0933 9404     		.2byte	0x494
 3112 0935 CB000000 		.4byte	0xcb
 3113 0939 01       		.byte	0x1
 3114 093a 01       		.byte	0x1
 3115 093b 00       		.byte	0x0
 3116              		.section	.debug_abbrev
 3117 0000 01       		.uleb128 0x1
 3118 0001 11       		.uleb128 0x11
 3119 0002 01       		.byte	0x1
 3120 0003 25       		.uleb128 0x25
 3121 0004 0E       		.uleb128 0xe
 3122 0005 13       		.uleb128 0x13
 3123 0006 0B       		.uleb128 0xb
ARM GAS  /tmp/cc7pvxVj.s 			page 57


 3124 0007 03       		.uleb128 0x3
 3125 0008 0E       		.uleb128 0xe
 3126 0009 1B       		.uleb128 0x1b
 3127 000a 0E       		.uleb128 0xe
 3128 000b 11       		.uleb128 0x11
 3129 000c 01       		.uleb128 0x1
 3130 000d 52       		.uleb128 0x52
 3131 000e 01       		.uleb128 0x1
 3132 000f 55       		.uleb128 0x55
 3133 0010 06       		.uleb128 0x6
 3134 0011 10       		.uleb128 0x10
 3135 0012 06       		.uleb128 0x6
 3136 0013 00       		.byte	0x0
 3137 0014 00       		.byte	0x0
 3138 0015 02       		.uleb128 0x2
 3139 0016 24       		.uleb128 0x24
 3140 0017 00       		.byte	0x0
 3141 0018 0B       		.uleb128 0xb
 3142 0019 0B       		.uleb128 0xb
 3143 001a 3E       		.uleb128 0x3e
 3144 001b 0B       		.uleb128 0xb
 3145 001c 03       		.uleb128 0x3
 3146 001d 0E       		.uleb128 0xe
 3147 001e 00       		.byte	0x0
 3148 001f 00       		.byte	0x0
 3149 0020 03       		.uleb128 0x3
 3150 0021 24       		.uleb128 0x24
 3151 0022 00       		.byte	0x0
 3152 0023 0B       		.uleb128 0xb
 3153 0024 0B       		.uleb128 0xb
 3154 0025 3E       		.uleb128 0x3e
 3155 0026 0B       		.uleb128 0xb
 3156 0027 03       		.uleb128 0x3
 3157 0028 08       		.uleb128 0x8
 3158 0029 00       		.byte	0x0
 3159 002a 00       		.byte	0x0
 3160 002b 04       		.uleb128 0x4
 3161 002c 0F       		.uleb128 0xf
 3162 002d 00       		.byte	0x0
 3163 002e 0B       		.uleb128 0xb
 3164 002f 0B       		.uleb128 0xb
 3165 0030 00       		.byte	0x0
 3166 0031 00       		.byte	0x0
 3167 0032 05       		.uleb128 0x5
 3168 0033 16       		.uleb128 0x16
 3169 0034 00       		.byte	0x0
 3170 0035 03       		.uleb128 0x3
 3171 0036 0E       		.uleb128 0xe
 3172 0037 3A       		.uleb128 0x3a
 3173 0038 0B       		.uleb128 0xb
 3174 0039 3B       		.uleb128 0x3b
 3175 003a 0B       		.uleb128 0xb
 3176 003b 49       		.uleb128 0x49
 3177 003c 13       		.uleb128 0x13
 3178 003d 00       		.byte	0x0
 3179 003e 00       		.byte	0x0
 3180 003f 06       		.uleb128 0x6
ARM GAS  /tmp/cc7pvxVj.s 			page 58


 3181 0040 0F       		.uleb128 0xf
 3182 0041 00       		.byte	0x0
 3183 0042 0B       		.uleb128 0xb
 3184 0043 0B       		.uleb128 0xb
 3185 0044 49       		.uleb128 0x49
 3186 0045 13       		.uleb128 0x13
 3187 0046 00       		.byte	0x0
 3188 0047 00       		.byte	0x0
 3189 0048 07       		.uleb128 0x7
 3190 0049 26       		.uleb128 0x26
 3191 004a 00       		.byte	0x0
 3192 004b 49       		.uleb128 0x49
 3193 004c 13       		.uleb128 0x13
 3194 004d 00       		.byte	0x0
 3195 004e 00       		.byte	0x0
 3196 004f 08       		.uleb128 0x8
 3197 0050 35       		.uleb128 0x35
 3198 0051 00       		.byte	0x0
 3199 0052 49       		.uleb128 0x49
 3200 0053 13       		.uleb128 0x13
 3201 0054 00       		.byte	0x0
 3202 0055 00       		.byte	0x0
 3203 0056 09       		.uleb128 0x9
 3204 0057 13       		.uleb128 0x13
 3205 0058 01       		.byte	0x1
 3206 0059 03       		.uleb128 0x3
 3207 005a 0E       		.uleb128 0xe
 3208 005b 0B       		.uleb128 0xb
 3209 005c 0B       		.uleb128 0xb
 3210 005d 3A       		.uleb128 0x3a
 3211 005e 0B       		.uleb128 0xb
 3212 005f 3B       		.uleb128 0x3b
 3213 0060 0B       		.uleb128 0xb
 3214 0061 01       		.uleb128 0x1
 3215 0062 13       		.uleb128 0x13
 3216 0063 00       		.byte	0x0
 3217 0064 00       		.byte	0x0
 3218 0065 0A       		.uleb128 0xa
 3219 0066 0D       		.uleb128 0xd
 3220 0067 00       		.byte	0x0
 3221 0068 03       		.uleb128 0x3
 3222 0069 0E       		.uleb128 0xe
 3223 006a 3A       		.uleb128 0x3a
 3224 006b 0B       		.uleb128 0xb
 3225 006c 3B       		.uleb128 0x3b
 3226 006d 0B       		.uleb128 0xb
 3227 006e 49       		.uleb128 0x49
 3228 006f 13       		.uleb128 0x13
 3229 0070 38       		.uleb128 0x38
 3230 0071 0A       		.uleb128 0xa
 3231 0072 00       		.byte	0x0
 3232 0073 00       		.byte	0x0
 3233 0074 0B       		.uleb128 0xb
 3234 0075 0D       		.uleb128 0xd
 3235 0076 00       		.byte	0x0
 3236 0077 03       		.uleb128 0x3
 3237 0078 0E       		.uleb128 0xe
ARM GAS  /tmp/cc7pvxVj.s 			page 59


 3238 0079 3A       		.uleb128 0x3a
 3239 007a 0B       		.uleb128 0xb
 3240 007b 3B       		.uleb128 0x3b
 3241 007c 05       		.uleb128 0x5
 3242 007d 49       		.uleb128 0x49
 3243 007e 13       		.uleb128 0x13
 3244 007f 38       		.uleb128 0x38
 3245 0080 0A       		.uleb128 0xa
 3246 0081 00       		.byte	0x0
 3247 0082 00       		.byte	0x0
 3248 0083 0C       		.uleb128 0xc
 3249 0084 0D       		.uleb128 0xd
 3250 0085 00       		.byte	0x0
 3251 0086 03       		.uleb128 0x3
 3252 0087 08       		.uleb128 0x8
 3253 0088 3A       		.uleb128 0x3a
 3254 0089 0B       		.uleb128 0xb
 3255 008a 3B       		.uleb128 0x3b
 3256 008b 05       		.uleb128 0x5
 3257 008c 49       		.uleb128 0x49
 3258 008d 13       		.uleb128 0x13
 3259 008e 38       		.uleb128 0x38
 3260 008f 0A       		.uleb128 0xa
 3261 0090 00       		.byte	0x0
 3262 0091 00       		.byte	0x0
 3263 0092 0D       		.uleb128 0xd
 3264 0093 04       		.uleb128 0x4
 3265 0094 01       		.byte	0x1
 3266 0095 0B       		.uleb128 0xb
 3267 0096 0B       		.uleb128 0xb
 3268 0097 3A       		.uleb128 0x3a
 3269 0098 0B       		.uleb128 0xb
 3270 0099 3B       		.uleb128 0x3b
 3271 009a 0B       		.uleb128 0xb
 3272 009b 01       		.uleb128 0x1
 3273 009c 13       		.uleb128 0x13
 3274 009d 00       		.byte	0x0
 3275 009e 00       		.byte	0x0
 3276 009f 0E       		.uleb128 0xe
 3277 00a0 28       		.uleb128 0x28
 3278 00a1 00       		.byte	0x0
 3279 00a2 03       		.uleb128 0x3
 3280 00a3 0E       		.uleb128 0xe
 3281 00a4 1C       		.uleb128 0x1c
 3282 00a5 0D       		.uleb128 0xd
 3283 00a6 00       		.byte	0x0
 3284 00a7 00       		.byte	0x0
 3285 00a8 0F       		.uleb128 0xf
 3286 00a9 16       		.uleb128 0x16
 3287 00aa 00       		.byte	0x0
 3288 00ab 03       		.uleb128 0x3
 3289 00ac 0E       		.uleb128 0xe
 3290 00ad 3A       		.uleb128 0x3a
 3291 00ae 0B       		.uleb128 0xb
 3292 00af 3B       		.uleb128 0x3b
 3293 00b0 05       		.uleb128 0x5
 3294 00b1 49       		.uleb128 0x49
ARM GAS  /tmp/cc7pvxVj.s 			page 60


 3295 00b2 13       		.uleb128 0x13
 3296 00b3 00       		.byte	0x0
 3297 00b4 00       		.byte	0x0
 3298 00b5 10       		.uleb128 0x10
 3299 00b6 13       		.uleb128 0x13
 3300 00b7 01       		.byte	0x1
 3301 00b8 0B       		.uleb128 0xb
 3302 00b9 0B       		.uleb128 0xb
 3303 00ba 3A       		.uleb128 0x3a
 3304 00bb 0B       		.uleb128 0xb
 3305 00bc 3B       		.uleb128 0x3b
 3306 00bd 05       		.uleb128 0x5
 3307 00be 01       		.uleb128 0x1
 3308 00bf 13       		.uleb128 0x13
 3309 00c0 00       		.byte	0x0
 3310 00c1 00       		.byte	0x0
 3311 00c2 11       		.uleb128 0x11
 3312 00c3 15       		.uleb128 0x15
 3313 00c4 01       		.byte	0x1
 3314 00c5 27       		.uleb128 0x27
 3315 00c6 0C       		.uleb128 0xc
 3316 00c7 01       		.uleb128 0x1
 3317 00c8 13       		.uleb128 0x13
 3318 00c9 00       		.byte	0x0
 3319 00ca 00       		.byte	0x0
 3320 00cb 12       		.uleb128 0x12
 3321 00cc 05       		.uleb128 0x5
 3322 00cd 00       		.byte	0x0
 3323 00ce 49       		.uleb128 0x49
 3324 00cf 13       		.uleb128 0x13
 3325 00d0 00       		.byte	0x0
 3326 00d1 00       		.byte	0x0
 3327 00d2 13       		.uleb128 0x13
 3328 00d3 15       		.uleb128 0x15
 3329 00d4 01       		.byte	0x1
 3330 00d5 27       		.uleb128 0x27
 3331 00d6 0C       		.uleb128 0xc
 3332 00d7 49       		.uleb128 0x49
 3333 00d8 13       		.uleb128 0x13
 3334 00d9 01       		.uleb128 0x1
 3335 00da 13       		.uleb128 0x13
 3336 00db 00       		.byte	0x0
 3337 00dc 00       		.byte	0x0
 3338 00dd 14       		.uleb128 0x14
 3339 00de 13       		.uleb128 0x13
 3340 00df 01       		.byte	0x1
 3341 00e0 0B       		.uleb128 0xb
 3342 00e1 0B       		.uleb128 0xb
 3343 00e2 3A       		.uleb128 0x3a
 3344 00e3 0B       		.uleb128 0xb
 3345 00e4 3B       		.uleb128 0x3b
 3346 00e5 0B       		.uleb128 0xb
 3347 00e6 01       		.uleb128 0x1
 3348 00e7 13       		.uleb128 0x13
 3349 00e8 00       		.byte	0x0
 3350 00e9 00       		.byte	0x0
 3351 00ea 15       		.uleb128 0x15
ARM GAS  /tmp/cc7pvxVj.s 			page 61


 3352 00eb 01       		.uleb128 0x1
 3353 00ec 01       		.byte	0x1
 3354 00ed 49       		.uleb128 0x49
 3355 00ee 13       		.uleb128 0x13
 3356 00ef 01       		.uleb128 0x1
 3357 00f0 13       		.uleb128 0x13
 3358 00f1 00       		.byte	0x0
 3359 00f2 00       		.byte	0x0
 3360 00f3 16       		.uleb128 0x16
 3361 00f4 21       		.uleb128 0x21
 3362 00f5 00       		.byte	0x0
 3363 00f6 49       		.uleb128 0x49
 3364 00f7 13       		.uleb128 0x13
 3365 00f8 2F       		.uleb128 0x2f
 3366 00f9 0B       		.uleb128 0xb
 3367 00fa 00       		.byte	0x0
 3368 00fb 00       		.byte	0x0
 3369 00fc 17       		.uleb128 0x17
 3370 00fd 2E       		.uleb128 0x2e
 3371 00fe 01       		.byte	0x1
 3372 00ff 03       		.uleb128 0x3
 3373 0100 0E       		.uleb128 0xe
 3374 0101 3A       		.uleb128 0x3a
 3375 0102 0B       		.uleb128 0xb
 3376 0103 3B       		.uleb128 0x3b
 3377 0104 0B       		.uleb128 0xb
 3378 0105 27       		.uleb128 0x27
 3379 0106 0C       		.uleb128 0xc
 3380 0107 11       		.uleb128 0x11
 3381 0108 01       		.uleb128 0x1
 3382 0109 12       		.uleb128 0x12
 3383 010a 01       		.uleb128 0x1
 3384 010b 40       		.uleb128 0x40
 3385 010c 06       		.uleb128 0x6
 3386 010d 01       		.uleb128 0x1
 3387 010e 13       		.uleb128 0x13
 3388 010f 00       		.byte	0x0
 3389 0110 00       		.byte	0x0
 3390 0111 18       		.uleb128 0x18
 3391 0112 05       		.uleb128 0x5
 3392 0113 00       		.byte	0x0
 3393 0114 03       		.uleb128 0x3
 3394 0115 0E       		.uleb128 0xe
 3395 0116 3A       		.uleb128 0x3a
 3396 0117 0B       		.uleb128 0xb
 3397 0118 3B       		.uleb128 0x3b
 3398 0119 0B       		.uleb128 0xb
 3399 011a 49       		.uleb128 0x49
 3400 011b 13       		.uleb128 0x13
 3401 011c 02       		.uleb128 0x2
 3402 011d 06       		.uleb128 0x6
 3403 011e 00       		.byte	0x0
 3404 011f 00       		.byte	0x0
 3405 0120 19       		.uleb128 0x19
 3406 0121 2E       		.uleb128 0x2e
 3407 0122 00       		.byte	0x0
 3408 0123 3F       		.uleb128 0x3f
ARM GAS  /tmp/cc7pvxVj.s 			page 62


 3409 0124 0C       		.uleb128 0xc
 3410 0125 03       		.uleb128 0x3
 3411 0126 0E       		.uleb128 0xe
 3412 0127 3A       		.uleb128 0x3a
 3413 0128 0B       		.uleb128 0xb
 3414 0129 3B       		.uleb128 0x3b
 3415 012a 0B       		.uleb128 0xb
 3416 012b 27       		.uleb128 0x27
 3417 012c 0C       		.uleb128 0xc
 3418 012d 11       		.uleb128 0x11
 3419 012e 01       		.uleb128 0x1
 3420 012f 12       		.uleb128 0x12
 3421 0130 01       		.uleb128 0x1
 3422 0131 40       		.uleb128 0x40
 3423 0132 0A       		.uleb128 0xa
 3424 0133 00       		.byte	0x0
 3425 0134 00       		.byte	0x0
 3426 0135 1A       		.uleb128 0x1a
 3427 0136 2E       		.uleb128 0x2e
 3428 0137 01       		.byte	0x1
 3429 0138 3F       		.uleb128 0x3f
 3430 0139 0C       		.uleb128 0xc
 3431 013a 03       		.uleb128 0x3
 3432 013b 0E       		.uleb128 0xe
 3433 013c 3A       		.uleb128 0x3a
 3434 013d 0B       		.uleb128 0xb
 3435 013e 3B       		.uleb128 0x3b
 3436 013f 0B       		.uleb128 0xb
 3437 0140 27       		.uleb128 0x27
 3438 0141 0C       		.uleb128 0xc
 3439 0142 11       		.uleb128 0x11
 3440 0143 01       		.uleb128 0x1
 3441 0144 12       		.uleb128 0x12
 3442 0145 01       		.uleb128 0x1
 3443 0146 40       		.uleb128 0x40
 3444 0147 0A       		.uleb128 0xa
 3445 0148 01       		.uleb128 0x1
 3446 0149 13       		.uleb128 0x13
 3447 014a 00       		.byte	0x0
 3448 014b 00       		.byte	0x0
 3449 014c 1B       		.uleb128 0x1b
 3450 014d 05       		.uleb128 0x5
 3451 014e 00       		.byte	0x0
 3452 014f 03       		.uleb128 0x3
 3453 0150 0E       		.uleb128 0xe
 3454 0151 3A       		.uleb128 0x3a
 3455 0152 0B       		.uleb128 0xb
 3456 0153 3B       		.uleb128 0x3b
 3457 0154 0B       		.uleb128 0xb
 3458 0155 49       		.uleb128 0x49
 3459 0156 13       		.uleb128 0x13
 3460 0157 02       		.uleb128 0x2
 3461 0158 0A       		.uleb128 0xa
 3462 0159 00       		.byte	0x0
 3463 015a 00       		.byte	0x0
 3464 015b 1C       		.uleb128 0x1c
 3465 015c 2E       		.uleb128 0x2e
ARM GAS  /tmp/cc7pvxVj.s 			page 63


 3466 015d 01       		.byte	0x1
 3467 015e 3F       		.uleb128 0x3f
 3468 015f 0C       		.uleb128 0xc
 3469 0160 03       		.uleb128 0x3
 3470 0161 0E       		.uleb128 0xe
 3471 0162 3A       		.uleb128 0x3a
 3472 0163 0B       		.uleb128 0xb
 3473 0164 3B       		.uleb128 0x3b
 3474 0165 05       		.uleb128 0x5
 3475 0166 27       		.uleb128 0x27
 3476 0167 0C       		.uleb128 0xc
 3477 0168 11       		.uleb128 0x11
 3478 0169 01       		.uleb128 0x1
 3479 016a 12       		.uleb128 0x12
 3480 016b 01       		.uleb128 0x1
 3481 016c 40       		.uleb128 0x40
 3482 016d 06       		.uleb128 0x6
 3483 016e 01       		.uleb128 0x1
 3484 016f 13       		.uleb128 0x13
 3485 0170 00       		.byte	0x0
 3486 0171 00       		.byte	0x0
 3487 0172 1D       		.uleb128 0x1d
 3488 0173 05       		.uleb128 0x5
 3489 0174 00       		.byte	0x0
 3490 0175 03       		.uleb128 0x3
 3491 0176 0E       		.uleb128 0xe
 3492 0177 3A       		.uleb128 0x3a
 3493 0178 0B       		.uleb128 0xb
 3494 0179 3B       		.uleb128 0x3b
 3495 017a 05       		.uleb128 0x5
 3496 017b 49       		.uleb128 0x49
 3497 017c 13       		.uleb128 0x13
 3498 017d 02       		.uleb128 0x2
 3499 017e 06       		.uleb128 0x6
 3500 017f 00       		.byte	0x0
 3501 0180 00       		.byte	0x0
 3502 0181 1E       		.uleb128 0x1e
 3503 0182 34       		.uleb128 0x34
 3504 0183 00       		.byte	0x0
 3505 0184 03       		.uleb128 0x3
 3506 0185 08       		.uleb128 0x8
 3507 0186 3A       		.uleb128 0x3a
 3508 0187 0B       		.uleb128 0xb
 3509 0188 3B       		.uleb128 0x3b
 3510 0189 05       		.uleb128 0x5
 3511 018a 49       		.uleb128 0x49
 3512 018b 13       		.uleb128 0x13
 3513 018c 02       		.uleb128 0x2
 3514 018d 06       		.uleb128 0x6
 3515 018e 00       		.byte	0x0
 3516 018f 00       		.byte	0x0
 3517 0190 1F       		.uleb128 0x1f
 3518 0191 05       		.uleb128 0x5
 3519 0192 00       		.byte	0x0
 3520 0193 03       		.uleb128 0x3
 3521 0194 08       		.uleb128 0x8
 3522 0195 3A       		.uleb128 0x3a
ARM GAS  /tmp/cc7pvxVj.s 			page 64


 3523 0196 0B       		.uleb128 0xb
 3524 0197 3B       		.uleb128 0x3b
 3525 0198 05       		.uleb128 0x5
 3526 0199 49       		.uleb128 0x49
 3527 019a 13       		.uleb128 0x13
 3528 019b 02       		.uleb128 0x2
 3529 019c 06       		.uleb128 0x6
 3530 019d 00       		.byte	0x0
 3531 019e 00       		.byte	0x0
 3532 019f 20       		.uleb128 0x20
 3533 01a0 2E       		.uleb128 0x2e
 3534 01a1 01       		.byte	0x1
 3535 01a2 3F       		.uleb128 0x3f
 3536 01a3 0C       		.uleb128 0xc
 3537 01a4 03       		.uleb128 0x3
 3538 01a5 0E       		.uleb128 0xe
 3539 01a6 3A       		.uleb128 0x3a
 3540 01a7 0B       		.uleb128 0xb
 3541 01a8 3B       		.uleb128 0x3b
 3542 01a9 05       		.uleb128 0x5
 3543 01aa 27       		.uleb128 0x27
 3544 01ab 0C       		.uleb128 0xc
 3545 01ac 49       		.uleb128 0x49
 3546 01ad 13       		.uleb128 0x13
 3547 01ae 11       		.uleb128 0x11
 3548 01af 01       		.uleb128 0x1
 3549 01b0 12       		.uleb128 0x12
 3550 01b1 01       		.uleb128 0x1
 3551 01b2 40       		.uleb128 0x40
 3552 01b3 06       		.uleb128 0x6
 3553 01b4 01       		.uleb128 0x1
 3554 01b5 13       		.uleb128 0x13
 3555 01b6 00       		.byte	0x0
 3556 01b7 00       		.byte	0x0
 3557 01b8 21       		.uleb128 0x21
 3558 01b9 05       		.uleb128 0x5
 3559 01ba 00       		.byte	0x0
 3560 01bb 03       		.uleb128 0x3
 3561 01bc 0E       		.uleb128 0xe
 3562 01bd 3A       		.uleb128 0x3a
 3563 01be 0B       		.uleb128 0xb
 3564 01bf 3B       		.uleb128 0x3b
 3565 01c0 05       		.uleb128 0x5
 3566 01c1 49       		.uleb128 0x49
 3567 01c2 13       		.uleb128 0x13
 3568 01c3 02       		.uleb128 0x2
 3569 01c4 0A       		.uleb128 0xa
 3570 01c5 00       		.byte	0x0
 3571 01c6 00       		.byte	0x0
 3572 01c7 22       		.uleb128 0x22
 3573 01c8 2E       		.uleb128 0x2e
 3574 01c9 01       		.byte	0x1
 3575 01ca 03       		.uleb128 0x3
 3576 01cb 0E       		.uleb128 0xe
 3577 01cc 3A       		.uleb128 0x3a
 3578 01cd 0B       		.uleb128 0xb
 3579 01ce 3B       		.uleb128 0x3b
ARM GAS  /tmp/cc7pvxVj.s 			page 65


 3580 01cf 0B       		.uleb128 0xb
 3581 01d0 27       		.uleb128 0x27
 3582 01d1 0C       		.uleb128 0xc
 3583 01d2 49       		.uleb128 0x49
 3584 01d3 13       		.uleb128 0x13
 3585 01d4 20       		.uleb128 0x20
 3586 01d5 0B       		.uleb128 0xb
 3587 01d6 01       		.uleb128 0x1
 3588 01d7 13       		.uleb128 0x13
 3589 01d8 00       		.byte	0x0
 3590 01d9 00       		.byte	0x0
 3591 01da 23       		.uleb128 0x23
 3592 01db 05       		.uleb128 0x5
 3593 01dc 00       		.byte	0x0
 3594 01dd 03       		.uleb128 0x3
 3595 01de 0E       		.uleb128 0xe
 3596 01df 3A       		.uleb128 0x3a
 3597 01e0 0B       		.uleb128 0xb
 3598 01e1 3B       		.uleb128 0x3b
 3599 01e2 0B       		.uleb128 0xb
 3600 01e3 49       		.uleb128 0x49
 3601 01e4 13       		.uleb128 0x13
 3602 01e5 00       		.byte	0x0
 3603 01e6 00       		.byte	0x0
 3604 01e7 24       		.uleb128 0x24
 3605 01e8 34       		.uleb128 0x34
 3606 01e9 00       		.byte	0x0
 3607 01ea 03       		.uleb128 0x3
 3608 01eb 08       		.uleb128 0x8
 3609 01ec 3A       		.uleb128 0x3a
 3610 01ed 0B       		.uleb128 0xb
 3611 01ee 3B       		.uleb128 0x3b
 3612 01ef 0B       		.uleb128 0xb
 3613 01f0 49       		.uleb128 0x49
 3614 01f1 13       		.uleb128 0x13
 3615 01f2 00       		.byte	0x0
 3616 01f3 00       		.byte	0x0
 3617 01f4 25       		.uleb128 0x25
 3618 01f5 1D       		.uleb128 0x1d
 3619 01f6 01       		.byte	0x1
 3620 01f7 31       		.uleb128 0x31
 3621 01f8 13       		.uleb128 0x13
 3622 01f9 52       		.uleb128 0x52
 3623 01fa 01       		.uleb128 0x1
 3624 01fb 55       		.uleb128 0x55
 3625 01fc 06       		.uleb128 0x6
 3626 01fd 58       		.uleb128 0x58
 3627 01fe 0B       		.uleb128 0xb
 3628 01ff 59       		.uleb128 0x59
 3629 0200 05       		.uleb128 0x5
 3630 0201 00       		.byte	0x0
 3631 0202 00       		.byte	0x0
 3632 0203 26       		.uleb128 0x26
 3633 0204 05       		.uleb128 0x5
 3634 0205 00       		.byte	0x0
 3635 0206 31       		.uleb128 0x31
 3636 0207 13       		.uleb128 0x13
ARM GAS  /tmp/cc7pvxVj.s 			page 66


 3637 0208 02       		.uleb128 0x2
 3638 0209 06       		.uleb128 0x6
 3639 020a 00       		.byte	0x0
 3640 020b 00       		.byte	0x0
 3641 020c 27       		.uleb128 0x27
 3642 020d 0B       		.uleb128 0xb
 3643 020e 01       		.byte	0x1
 3644 020f 55       		.uleb128 0x55
 3645 0210 06       		.uleb128 0x6
 3646 0211 00       		.byte	0x0
 3647 0212 00       		.byte	0x0
 3648 0213 28       		.uleb128 0x28
 3649 0214 34       		.uleb128 0x34
 3650 0215 00       		.byte	0x0
 3651 0216 31       		.uleb128 0x31
 3652 0217 13       		.uleb128 0x13
 3653 0218 02       		.uleb128 0x2
 3654 0219 06       		.uleb128 0x6
 3655 021a 00       		.byte	0x0
 3656 021b 00       		.byte	0x0
 3657 021c 29       		.uleb128 0x29
 3658 021d 34       		.uleb128 0x34
 3659 021e 00       		.byte	0x0
 3660 021f 03       		.uleb128 0x3
 3661 0220 0E       		.uleb128 0xe
 3662 0221 3A       		.uleb128 0x3a
 3663 0222 0B       		.uleb128 0xb
 3664 0223 3B       		.uleb128 0x3b
 3665 0224 05       		.uleb128 0x5
 3666 0225 49       		.uleb128 0x49
 3667 0226 13       		.uleb128 0x13
 3668 0227 3F       		.uleb128 0x3f
 3669 0228 0C       		.uleb128 0xc
 3670 0229 3C       		.uleb128 0x3c
 3671 022a 0C       		.uleb128 0xc
 3672 022b 00       		.byte	0x0
 3673 022c 00       		.byte	0x0
 3674 022d 2A       		.uleb128 0x2a
 3675 022e 34       		.uleb128 0x34
 3676 022f 00       		.byte	0x0
 3677 0230 03       		.uleb128 0x3
 3678 0231 0E       		.uleb128 0xe
 3679 0232 3A       		.uleb128 0x3a
 3680 0233 0B       		.uleb128 0xb
 3681 0234 3B       		.uleb128 0x3b
 3682 0235 0B       		.uleb128 0xb
 3683 0236 49       		.uleb128 0x49
 3684 0237 13       		.uleb128 0x13
 3685 0238 02       		.uleb128 0x2
 3686 0239 0A       		.uleb128 0xa
 3687 023a 00       		.byte	0x0
 3688 023b 00       		.byte	0x0
 3689 023c 00       		.byte	0x0
 3690              		.section	.debug_pubnames,"",%progbits
 3691 0000 09010000 		.4byte	0x109
 3692 0004 0200     		.2byte	0x2
 3693 0006 00000000 		.4byte	.Ldebug_info0
ARM GAS  /tmp/cc7pvxVj.s 			page 67


 3694 000a 3C090000 		.4byte	0x93c
 3695 000e 4F050000 		.4byte	0x54f
 3696 0012 75736249 		.ascii	"usbInit\000"
 3696      6E697400 
 3697 001a 63050000 		.4byte	0x563
 3698 001e 7573624F 		.ascii	"usbObjectInit\000"
 3698      626A6563 
 3698      74496E69 
 3698      7400
 3699 002c 89050000 		.4byte	0x589
 3700 0030 75736253 		.ascii	"usbStart\000"
 3700      74617274 
 3700      00
 3701 0039 D2050000 		.4byte	0x5d2
 3702 003d 75736253 		.ascii	"usbStop\000"
 3702      746F7000 
 3703 0045 FD050000 		.4byte	0x5fd
 3704 0049 75736249 		.ascii	"usbInitEndpointI\000"
 3704      6E697445 
 3704      6E64706F 
 3704      696E7449 
 3704      00
 3705 005a 47060000 		.4byte	0x647
 3706 005e 75736244 		.ascii	"usbDisableEndpointsI\000"
 3706      69736162 
 3706      6C65456E 
 3706      64706F69 
 3706      6E747349 
 3707 0073 80060000 		.4byte	0x680
 3708 0077 75736253 		.ascii	"usbStartReceiveI\000"
 3708      74617274 
 3708      52656365 
 3708      69766549 
 3708      00
 3709 0088 BE060000 		.4byte	0x6be
 3710 008c 75736253 		.ascii	"usbStartTransmitI\000"
 3710      74617274 
 3710      5472616E 
 3710      736D6974 
 3710      4900
 3711 009e FC060000 		.4byte	0x6fc
 3712 00a2 75736253 		.ascii	"usbStallReceiveI\000"
 3712      74616C6C 
 3712      52656365 
 3712      69766549 
 3712      00
 3713 00b3 3A070000 		.4byte	0x73a
 3714 00b7 75736253 		.ascii	"usbStallTransmitI\000"
 3714      74616C6C 
 3714      5472616E 
 3714      736D6974 
 3714      4900
 3715 00c9 78070000 		.4byte	0x778
 3716 00cd 5F757362 		.ascii	"_usb_reset\000"
 3716      5F726573 
 3716      657400
 3717 00d8 D6070000 		.4byte	0x7d6
ARM GAS  /tmp/cc7pvxVj.s 			page 68


 3718 00dc 5F757362 		.ascii	"_usb_ep0setup\000"
 3718      5F657030 
 3718      73657475 
 3718      7000
 3719 00ea 49080000 		.4byte	0x849
 3720 00ee 5F757362 		.ascii	"_usb_ep0in\000"
 3720      5F657030 
 3720      696E00
 3721 00f9 93080000 		.4byte	0x893
 3722 00fd 5F757362 		.ascii	"_usb_ep0out\000"
 3722      5F657030 
 3722      6F757400 
 3723 0109 00000000 		.4byte	0x0
 3724              		.section	.debug_pubtypes,"",%progbits
 3725 0000 75010000 		.4byte	0x175
 3726 0004 0200     		.2byte	0x2
 3727 0006 00000000 		.4byte	.Ldebug_info0
 3728 000a 3C090000 		.4byte	0x93c
 3729 000e 78000000 		.4byte	0x78
 3730 0012 73697A65 		.ascii	"size_t\000"
 3730      5F7400
 3731 0019 83000000 		.4byte	0x83
 3732 001d 75696E74 		.ascii	"uint8_t\000"
 3732      385F7400 
 3733 0025 8E000000 		.4byte	0x8e
 3734 0029 75696E74 		.ascii	"uint16_t\000"
 3734      31365F74 
 3734      00
 3735 0032 99000000 		.4byte	0x99
 3736 0036 696E7433 		.ascii	"int32_t\000"
 3736      325F7400 
 3737 003e A4000000 		.4byte	0xa4
 3738 0042 75696E74 		.ascii	"uint32_t\000"
 3738      33325F74 
 3738      00
 3739 004b AF000000 		.4byte	0xaf
 3740 004f 626F6F6C 		.ascii	"bool_t\000"
 3740      5F7400
 3741 0056 D0000000 		.4byte	0xd0
 3742 005a 55534244 		.ascii	"USBDriver\000"
 3742      72697665 
 3742      7200
 3743 0064 C6010000 		.4byte	0x1c6
 3744 0068 75736265 		.ascii	"usbep_t\000"
 3744      705F7400 
 3745 0070 F8010000 		.4byte	0x1f8
 3746 0074 75736273 		.ascii	"usbstate_t\000"
 3746      74617465 
 3746      5F7400
 3747 007f 4B020000 		.4byte	0x24b
 3748 0083 75736265 		.ascii	"usbep0state_t\000"
 3748      70307374 
 3748      6174655F 
 3748      7400
 3749 0091 83020000 		.4byte	0x283
 3750 0095 75736265 		.ascii	"usbevent_t\000"
 3750      76656E74 
ARM GAS  /tmp/cc7pvxVj.s 			page 69


 3750      5F7400
 3751 00a0 B7020000 		.4byte	0x2b7
 3752 00a4 55534244 		.ascii	"USBDescriptor\000"
 3752      65736372 
 3752      6970746F 
 3752      7200
 3753 00b2 C3020000 		.4byte	0x2c3
 3754 00b6 75736263 		.ascii	"usbcallback_t\000"
 3754      616C6C62 
 3754      61636B5F 
 3754      7400
 3755 00c4 E7020000 		.4byte	0x2e7
 3756 00c8 75736265 		.ascii	"usbepcallback_t\000"
 3756      7063616C 
 3756      6C626163 
 3756      6B5F7400 
 3757 00d8 0A030000 		.4byte	0x30a
 3758 00dc 75736265 		.ascii	"usbeventcb_t\000"
 3758      76656E74 
 3758      63625F74 
 3758      00
 3759 00e9 2D030000 		.4byte	0x32d
 3760 00ed 75736272 		.ascii	"usbreqhandler_t\000"
 3760      65716861 
 3760      6E646C65 
 3760      725F7400 
 3761 00fd 4F030000 		.4byte	0x34f
 3762 0101 75736267 		.ascii	"usbgetdescriptor_t\000"
 3762      65746465 
 3762      73637269 
 3762      70746F72 
 3762      5F7400
 3763 0114 BE030000 		.4byte	0x3be
 3764 0118 55534249 		.ascii	"USBInEndpointState\000"
 3764      6E456E64 
 3764      706F696E 
 3764      74537461 
 3764      746500
 3765 012b 0A040000 		.4byte	0x40a
 3766 012f 5553424F 		.ascii	"USBOutEndpointState\000"
 3766      7574456E 
 3766      64706F69 
 3766      6E745374 
 3766      61746500 
 3767 0143 9A040000 		.4byte	0x49a
 3768 0147 55534245 		.ascii	"USBEndpointConfig\000"
 3768      6E64706F 
 3768      696E7443 
 3768      6F6E6669 
 3768      6700
 3769 0159 E6040000 		.4byte	0x4e6
 3770 015d 55534243 		.ascii	"USBConfig\000"
 3770      6F6E6669 
 3770      6700
 3771 0167 DB000000 		.4byte	0xdb
 3772 016b 55534244 		.ascii	"USBDriver\000"
 3772      72697665 
ARM GAS  /tmp/cc7pvxVj.s 			page 70


 3772      7200
 3773 0175 00000000 		.4byte	0x0
 3774              		.section	.debug_aranges,"",%progbits
 3775 0000 8C000000 		.4byte	0x8c
 3776 0004 0200     		.2byte	0x2
 3777 0006 00000000 		.4byte	.Ldebug_info0
 3778 000a 04       		.byte	0x4
 3779 000b 00       		.byte	0x0
 3780 000c 0000     		.2byte	0x0
 3781 000e 0000     		.2byte	0x0
 3782 0010 00000000 		.4byte	.LFB55
 3783 0014 22000000 		.4byte	.LFE55-.LFB55
 3784 0018 00000000 		.4byte	.LFB57
 3785 001c 04000000 		.4byte	.LFE57-.LFB57
 3786 0020 00000000 		.4byte	.LFB58
 3787 0024 10000000 		.4byte	.LFE58-.LFB58
 3788 0028 00000000 		.4byte	.LFB59
 3789 002c 5C000000 		.4byte	.LFE59-.LFB59
 3790 0030 00000000 		.4byte	.LFB60
 3791 0034 44000000 		.4byte	.LFE60-.LFB60
 3792 0038 00000000 		.4byte	.LFB61
 3793 003c 7C000000 		.4byte	.LFE61-.LFB61
 3794 0040 00000000 		.4byte	.LFB62
 3795 0044 54000000 		.4byte	.LFE62-.LFB62
 3796 0048 00000000 		.4byte	.LFB63
 3797 004c 40000000 		.4byte	.LFE63-.LFB63
 3798 0050 00000000 		.4byte	.LFB64
 3799 0054 40000000 		.4byte	.LFE64-.LFB64
 3800 0058 00000000 		.4byte	.LFB65
 3801 005c 34000000 		.4byte	.LFE65-.LFB65
 3802 0060 00000000 		.4byte	.LFB66
 3803 0064 34000000 		.4byte	.LFE66-.LFB66
 3804 0068 00000000 		.4byte	.LFB67
 3805 006c 32000000 		.4byte	.LFE67-.LFB67
 3806 0070 00000000 		.4byte	.LFB68
 3807 0074 E8020000 		.4byte	.LFE68-.LFB68
 3808 0078 00000000 		.4byte	.LFB69
 3809 007c 8C000000 		.4byte	.LFE69-.LFB69
 3810 0080 00000000 		.4byte	.LFB70
 3811 0084 68000000 		.4byte	.LFE70-.LFB70
 3812 0088 00000000 		.4byte	0x0
 3813 008c 00000000 		.4byte	0x0
 3814              		.section	.debug_ranges,"",%progbits
 3815              	.Ldebug_ranges0:
 3816 0000 8E000000 		.4byte	.LBB4
 3817 0004 14010000 		.4byte	.LBE4
 3818 0008 70010000 		.4byte	.LBB7
 3819 000c E8020000 		.4byte	.LBE7
 3820 0010 00000000 		.4byte	0x0
 3821 0014 00000000 		.4byte	0x0
 3822 0018 8E000000 		.4byte	.LBB5
 3823 001c 14010000 		.4byte	.LBE5
 3824 0020 70010000 		.4byte	.LBB6
 3825 0024 E8020000 		.4byte	.LBE6
 3826 0028 00000000 		.4byte	0x0
 3827 002c 00000000 		.4byte	0x0
 3828 0030 00000000 		.4byte	.LFB55
ARM GAS  /tmp/cc7pvxVj.s 			page 71


 3829 0034 22000000 		.4byte	.LFE55
 3830 0038 00000000 		.4byte	.LFB57
 3831 003c 04000000 		.4byte	.LFE57
 3832 0040 00000000 		.4byte	.LFB58
 3833 0044 10000000 		.4byte	.LFE58
 3834 0048 00000000 		.4byte	.LFB59
 3835 004c 5C000000 		.4byte	.LFE59
 3836 0050 00000000 		.4byte	.LFB60
 3837 0054 44000000 		.4byte	.LFE60
 3838 0058 00000000 		.4byte	.LFB61
 3839 005c 7C000000 		.4byte	.LFE61
 3840 0060 00000000 		.4byte	.LFB62
 3841 0064 54000000 		.4byte	.LFE62
 3842 0068 00000000 		.4byte	.LFB63
 3843 006c 40000000 		.4byte	.LFE63
 3844 0070 00000000 		.4byte	.LFB64
 3845 0074 40000000 		.4byte	.LFE64
 3846 0078 00000000 		.4byte	.LFB65
 3847 007c 34000000 		.4byte	.LFE65
 3848 0080 00000000 		.4byte	.LFB66
 3849 0084 34000000 		.4byte	.LFE66
 3850 0088 00000000 		.4byte	.LFB67
 3851 008c 32000000 		.4byte	.LFE67
 3852 0090 00000000 		.4byte	.LFB68
 3853 0094 E8020000 		.4byte	.LFE68
 3854 0098 00000000 		.4byte	.LFB69
 3855 009c 8C000000 		.4byte	.LFE69
 3856 00a0 00000000 		.4byte	.LFB70
 3857 00a4 68000000 		.4byte	.LFE70
 3858 00a8 00000000 		.4byte	0x0
 3859 00ac 00000000 		.4byte	0x0
 3860              		.section	.debug_str,"MS",%progbits,1
 3861              	.LASF101:
 3862 0000 7A65726F 		.ascii	"zero_status\000"
 3862      5F737461 
 3862      74757300 
 3863              	.LASF98:
 3864 000c 5F757362 		.ascii	"_usb_ep0setup\000"
 3864      5F657030 
 3864      73657475 
 3864      7000
 3865              	.LASF17:
 3866 001a 73746174 		.ascii	"state\000"
 3866      6500
 3867              	.LASF35:
 3868 0020 5553425F 		.ascii	"USB_SELECTED\000"
 3868      53454C45 
 3868      43544544 
 3868      00
 3869              	.LASF30:
 3870 002d 706D6E65 		.ascii	"pmnext\000"
 3870      787400
 3871              	.LASF85:
 3872 0034 55534243 		.ascii	"USBConfig\000"
 3872      6F6E6669 
 3872      6700
 3873              	.LASF2:
ARM GAS  /tmp/cc7pvxVj.s 			page 72


 3874 003e 73686F72 		.ascii	"short int\000"
 3874      7420696E 
 3874      7400
 3875              	.LASF10:
 3876 0048 73697A65 		.ascii	"size_t\000"
 3876      5F7400
 3877              	.LASF31:
 3878 004f 75736265 		.ascii	"usbep_t\000"
 3878      705F7400 
 3879              	.LASF45:
 3880 0057 5553425F 		.ascii	"USB_EP0_SENDING_STS\000"
 3880      4550305F 
 3880      53454E44 
 3880      494E475F 
 3880      53545300 
 3881              	.LASF57:
 3882 006b 55534244 		.ascii	"USBDescriptor\000"
 3882      65736372 
 3882      6970746F 
 3882      7200
 3883              	.LASF94:
 3884 0079 75736253 		.ascii	"usbStartTransmitI\000"
 3884      74617274 
 3884      5472616E 
 3884      736D6974 
 3884      4900
 3885              	.LASF24:
 3886 008b 6570306E 		.ascii	"ep0n\000"
 3886      00
 3887              	.LASF109:
 3888 0090 75736249 		.ascii	"usbInit\000"
 3888      6E697400 
 3889              	.LASF39:
 3890 0098 45505F53 		.ascii	"EP_STATUS_STALLED\000"
 3890      54415455 
 3890      535F5354 
 3890      414C4C45 
 3890      4400
 3891              	.LASF81:
 3892 00aa 6576656E 		.ascii	"event_cb\000"
 3892      745F6362 
 3892      00
 3893              	.LASF76:
 3894 00b3 696E5F6D 		.ascii	"in_maxsize\000"
 3894      61787369 
 3894      7A6500
 3895              	.LASF106:
 3896 00be 2E2E2F63 		.ascii	"../chibios_2.4.x/os/hal/src/usb.c\000"
 3896      68696269 
 3896      6F735F32 
 3896      2E342E78 
 3896      2F6F732F 
 3897              	.LASF70:
 3898 00e0 7278636E 		.ascii	"rxcnt\000"
 3898      7400
 3899              	.LASF74:
 3900 00e6 696E5F63 		.ascii	"in_cb\000"
ARM GAS  /tmp/cc7pvxVj.s 			page 73


 3900      6200
 3901              	.LASF46:
 3902 00ec 5553425F 		.ascii	"USB_EP0_ERROR\000"
 3902      4550305F 
 3902      4552524F 
 3902      5200
 3903              	.LASF100:
 3904 00fa 5F757362 		.ascii	"_usb_ep0out\000"
 3904      5F657030 
 3904      6F757400 
 3905              	.LASF18:
 3906 0106 636F6E66 		.ascii	"config\000"
 3906      696700
 3907              	.LASF95:
 3908 010d 75736253 		.ascii	"usbStallReceiveI\000"
 3908      74616C6C 
 3908      52656365 
 3908      69766549 
 3908      00
 3909              	.LASF40:
 3910 011e 45505F53 		.ascii	"EP_STATUS_ACTIVE\000"
 3910      54415455 
 3910      535F4143 
 3910      54495645 
 3910      00
 3911              	.LASF50:
 3912 012f 5553425F 		.ascii	"USB_EVENT_CONFIGURED\000"
 3912      4556454E 
 3912      545F434F 
 3912      4E464947 
 3912      55524544 
 3913              	.LASF89:
 3914 0144 75736253 		.ascii	"usbStop\000"
 3914      746F7000 
 3915              	.LASF83:
 3916 014c 72657175 		.ascii	"requests_hook_cb\000"
 3916      65737473 
 3916      5F686F6F 
 3916      6B5F6362 
 3916      00
 3917              	.LASF55:
 3918 015d 75645F73 		.ascii	"ud_size\000"
 3918      697A6500 
 3919              	.LASF44:
 3920 0165 5553425F 		.ascii	"USB_EP0_RX\000"
 3920      4550305F 
 3920      525800
 3921              	.LASF80:
 3922 0170 55534245 		.ascii	"USBEndpointConfig\000"
 3922      6E64706F 
 3922      696E7443 
 3922      6F6E6669 
 3922      6700
 3923              	.LASF15:
 3924 0182 626F6F6C 		.ascii	"bool_t\000"
 3924      5F7400
 3925              	.LASF26:
ARM GAS  /tmp/cc7pvxVj.s 			page 74


 3926 0189 73657475 		.ascii	"setup\000"
 3926      7000
 3927              	.LASF78:
 3928 018f 696E5F73 		.ascii	"in_state\000"
 3928      74617465 
 3928      00
 3929              	.LASF5:
 3930 0198 6C6F6E67 		.ascii	"long long int\000"
 3930      206C6F6E 
 3930      6720696E 
 3930      7400
 3931              	.LASF6:
 3932 01a6 6C6F6E67 		.ascii	"long long unsigned int\000"
 3932      206C6F6E 
 3932      6720756E 
 3932      7369676E 
 3932      65642069 
 3933              	.LASF54:
 3934 01bd 75736265 		.ascii	"usbevent_t\000"
 3934      76656E74 
 3934      5F7400
 3935              	.LASF72:
 3936 01c8 65705F6D 		.ascii	"ep_mode\000"
 3936      6F646500 
 3937              	.LASF7:
 3938 01d0 6C6F6E67 		.ascii	"long int\000"
 3938      20696E74 
 3938      00
 3939              	.LASF42:
 3940 01d9 5553425F 		.ascii	"USB_EP0_TX\000"
 3940      4550305F 
 3940      545800
 3941              	.LASF84:
 3942 01e4 736F665F 		.ascii	"sof_cb\000"
 3942      636200
 3943              	.LASF77:
 3944 01eb 6F75745F 		.ascii	"out_maxsize\000"
 3944      6D617873 
 3944      697A6500 
 3945              	.LASF49:
 3946 01f7 5553425F 		.ascii	"USB_EVENT_ADDRESS\000"
 3946      4556454E 
 3946      545F4144 
 3946      44524553 
 3946      5300
 3947              	.LASF22:
 3948 0209 65703073 		.ascii	"ep0state\000"
 3948      74617465 
 3948      00
 3949              	.LASF108:
 3950 0212 7365745F 		.ascii	"set_address\000"
 3950      61646472 
 3950      65737300 
 3951              	.LASF38:
 3952 021e 45505F53 		.ascii	"EP_STATUS_DISABLED\000"
 3952      54415455 
 3952      535F4449 
ARM GAS  /tmp/cc7pvxVj.s 			page 75


 3952      5341424C 
 3952      454400
 3953              	.LASF43:
 3954 0231 5553425F 		.ascii	"USB_EP0_WAITING_STS\000"
 3954      4550305F 
 3954      57414954 
 3954      494E475F 
 3954      53545300 
 3955              	.LASF21:
 3956 0245 72656365 		.ascii	"receiving\000"
 3956      6976696E 
 3956      6700
 3957              	.LASF33:
 3958 024f 5553425F 		.ascii	"USB_STOP\000"
 3958      53544F50 
 3958      00
 3959              	.LASF1:
 3960 0258 756E7369 		.ascii	"unsigned char\000"
 3960      676E6564 
 3960      20636861 
 3960      7200
 3961              	.LASF66:
 3962 0266 55534249 		.ascii	"USBInEndpointState\000"
 3962      6E456E64 
 3962      706F696E 
 3962      74537461 
 3962      746500
 3963              	.LASF67:
 3964 0279 7278706B 		.ascii	"rxpkts\000"
 3964      747300
 3965              	.LASF25:
 3966 0280 65703065 		.ascii	"ep0endcb\000"
 3966      6E646362 
 3966      00
 3967              	.LASF0:
 3968 0289 7369676E 		.ascii	"signed char\000"
 3968      65642063 
 3968      68617200 
 3969              	.LASF28:
 3970 0295 61646472 		.ascii	"address\000"
 3970      65737300 
 3971              	.LASF14:
 3972 029d 75696E74 		.ascii	"uint32_t\000"
 3972      33325F74 
 3972      00
 3973              	.LASF29:
 3974 02a6 636F6E66 		.ascii	"configuration\000"
 3974      69677572 
 3974      6174696F 
 3974      6E00
 3975              	.LASF59:
 3976 02b4 75736265 		.ascii	"usbepcallback_t\000"
 3976      7063616C 
 3976      6C626163 
 3976      6B5F7400 
 3977              	.LASF32:
 3978 02c4 5553425F 		.ascii	"USB_UNINIT\000"
ARM GAS  /tmp/cc7pvxVj.s 			page 76


 3978      554E494E 
 3978      495400
 3979              	.LASF110:
 3980 02cf 64656661 		.ascii	"default_handler\000"
 3980      756C745F 
 3980      68616E64 
 3980      6C657200 
 3981              	.LASF107:
 3982 02df 2F686F6D 		.ascii	"/home/z80/projects/ipm/soft/firmware/valve\000"
 3982      652F7A38 
 3982      302F7072 
 3982      6F6A6563 
 3982      74732F69 
 3983              	.LASF60:
 3984 030a 75736265 		.ascii	"usbeventcb_t\000"
 3984      76656E74 
 3984      63625F74 
 3984      00
 3985              	.LASF19:
 3986 0317 70617261 		.ascii	"param\000"
 3986      6D00
 3987              	.LASF48:
 3988 031d 5553425F 		.ascii	"USB_EVENT_RESET\000"
 3988      4556454E 
 3988      545F5245 
 3988      53455400 
 3989              	.LASF27:
 3990 032d 73746174 		.ascii	"status\000"
 3990      757300
 3991              	.LASF63:
 3992 0334 74786275 		.ascii	"txbuf\000"
 3992      6600
 3993              	.LASF79:
 3994 033a 6F75745F 		.ascii	"out_state\000"
 3994      73746174 
 3994      6500
 3995              	.LASF9:
 3996 0344 63686172 		.ascii	"char\000"
 3996      00
 3997              	.LASF12:
 3998 0349 75696E74 		.ascii	"uint16_t\000"
 3998      31365F74 
 3998      00
 3999              	.LASF82:
 4000 0352 6765745F 		.ascii	"get_descriptor_cb\000"
 4000      64657363 
 4000      72697074 
 4000      6F725F63 
 4000      6200
 4001              	.LASF13:
 4002 0364 696E7433 		.ascii	"int32_t\000"
 4002      325F7400 
 4003              	.LASF102:
 4004 036c 61637469 		.ascii	"active_status\000"
 4004      76655F73 
 4004      74617475 
 4004      7300
ARM GAS  /tmp/cc7pvxVj.s 			page 77


 4005              	.LASF3:
 4006 037a 73686F72 		.ascii	"short unsigned int\000"
 4006      7420756E 
 4006      7369676E 
 4006      65642069 
 4006      6E7400
 4007              	.LASF62:
 4008 038d 75736267 		.ascii	"usbgetdescriptor_t\000"
 4008      65746465 
 4008      73637269 
 4008      70746F72 
 4008      5F7400
 4009              	.LASF36:
 4010 03a0 5553425F 		.ascii	"USB_ACTIVE\000"
 4010      41435449 
 4010      564500
 4011              	.LASF23:
 4012 03ab 6570306E 		.ascii	"ep0next\000"
 4012      65787400 
 4013              	.LASF65:
 4014 03b3 7478636E 		.ascii	"txcnt\000"
 4014      7400
 4015              	.LASF47:
 4016 03b9 75736265 		.ascii	"usbep0state_t\000"
 4016      70307374 
 4016      6174655F 
 4016      7400
 4017              	.LASF103:
 4018 03c7 68616C74 		.ascii	"halted_status\000"
 4018      65645F73 
 4018      74617475 
 4018      7300
 4019              	.LASF58:
 4020 03d5 75736263 		.ascii	"usbcallback_t\000"
 4020      616C6C62 
 4020      61636B5F 
 4020      7400
 4021              	.LASF64:
 4022 03e3 74787369 		.ascii	"txsize\000"
 4022      7A6500
 4023              	.LASF69:
 4024 03ea 72787369 		.ascii	"rxsize\000"
 4024      7A6500
 4025              	.LASF8:
 4026 03f1 6C6F6E67 		.ascii	"long unsigned int\000"
 4026      20756E73 
 4026      69676E65 
 4026      6420696E 
 4026      7400
 4027              	.LASF91:
 4028 0403 65706370 		.ascii	"epcp\000"
 4028      00
 4029              	.LASF34:
 4030 0408 5553425F 		.ascii	"USB_READY\000"
 4030      52454144 
 4030      5900
 4031              	.LASF71:
ARM GAS  /tmp/cc7pvxVj.s 			page 78


 4032 0412 5553424F 		.ascii	"USBOutEndpointState\000"
 4032      7574456E 
 4032      64706F69 
 4032      6E745374 
 4032      61746500 
 4033              	.LASF56:
 4034 0426 75645F73 		.ascii	"ud_string\000"
 4034      7472696E 
 4034      6700
 4035              	.LASF61:
 4036 0430 75736272 		.ascii	"usbreqhandler_t\000"
 4036      65716861 
 4036      6E646C65 
 4036      725F7400 
 4037              	.LASF86:
 4038 0440 75736270 		.ascii	"usbp\000"
 4038      00
 4039              	.LASF52:
 4040 0445 5553425F 		.ascii	"USB_EVENT_WAKEUP\000"
 4040      4556454E 
 4040      545F5741 
 4040      4B455550 
 4040      00
 4041              	.LASF90:
 4042 0456 75736249 		.ascii	"usbInitEndpointI\000"
 4042      6E697445 
 4042      6E64706F 
 4042      696E7449 
 4042      00
 4043              	.LASF99:
 4044 0467 5F757362 		.ascii	"_usb_ep0in\000"
 4044      5F657030 
 4044      696E00
 4045              	.LASF37:
 4046 0472 75736273 		.ascii	"usbstate_t\000"
 4046      74617465 
 4046      5F7400
 4047              	.LASF11:
 4048 047d 75696E74 		.ascii	"uint8_t\000"
 4048      385F7400 
 4049              	.LASF73:
 4050 0485 73657475 		.ascii	"setup_cb\000"
 4050      705F6362 
 4050      00
 4051              	.LASF41:
 4052 048e 5553425F 		.ascii	"USB_EP0_WAITING_SETUP\000"
 4052      4550305F 
 4052      57414954 
 4052      494E475F 
 4052      53455455 
 4053              	.LASF97:
 4054 04a4 5F757362 		.ascii	"_usb_reset\000"
 4054      5F726573 
 4054      657400
 4055              	.LASF93:
 4056 04af 75736253 		.ascii	"usbStartReceiveI\000"
 4056      74617274 
ARM GAS  /tmp/cc7pvxVj.s 			page 79


 4056      52656365 
 4056      69766549 
 4056      00
 4057              	.LASF68:
 4058 04c0 72786275 		.ascii	"rxbuf\000"
 4058      6600
 4059              	.LASF51:
 4060 04c6 5553425F 		.ascii	"USB_EVENT_SUSPEND\000"
 4060      4556454E 
 4060      545F5355 
 4060      5350454E 
 4060      4400
 4061              	.LASF104:
 4062 04d8 49544D5F 		.ascii	"ITM_RxBuffer\000"
 4062      52784275 
 4062      66666572 
 4062      00
 4063              	.LASF4:
 4064 04e5 756E7369 		.ascii	"unsigned int\000"
 4064      676E6564 
 4064      20696E74 
 4064      00
 4065              	.LASF88:
 4066 04f2 75736253 		.ascii	"usbStart\000"
 4066      74617274 
 4066      00
 4067              	.LASF20:
 4068 04fb 7472616E 		.ascii	"transmitting\000"
 4068      736D6974 
 4068      74696E67 
 4068      00
 4069              	.LASF75:
 4070 0508 6F75745F 		.ascii	"out_cb\000"
 4070      636200
 4071              	.LASF92:
 4072 050f 75736244 		.ascii	"usbDisableEndpointsI\000"
 4072      69736162 
 4072      6C65456E 
 4072      64706F69 
 4072      6E747349 
 4073              	.LASF105:
 4074 0524 474E5520 		.ascii	"GNU C 4.5.2\000"
 4074      4320342E 
 4074      352E3200 
 4075              	.LASF87:
 4076 0530 7573624F 		.ascii	"usbObjectInit\000"
 4076      626A6563 
 4076      74496E69 
 4076      7400
 4077              	.LASF53:
 4078 053e 5553425F 		.ascii	"USB_EVENT_STALLED\000"
 4078      4556454E 
 4078      545F5354 
 4078      414C4C45 
 4078      4400
 4079              	.LASF16:
 4080 0550 55534244 		.ascii	"USBDriver\000"
ARM GAS  /tmp/cc7pvxVj.s 			page 80


 4080      72697665 
 4080      7200
 4081              	.LASF96:
 4082 055a 75736253 		.ascii	"usbStallTransmitI\000"
 4082      74616C6C 
 4082      5472616E 
 4082      736D6974 
 4082      4900
 4083              		.ident	"GCC: (Sourcery G++ Lite 2011.03-42) 4.5.2"
ARM GAS  /tmp/cc7pvxVj.s 			page 81


DEFINED SYMBOLS
                            *ABS*:00000000 usb.c
     /tmp/cc7pvxVj.s:24     .text.set_address:00000000 $t
     /tmp/cc7pvxVj.s:29     .text.set_address:00000000 set_address
     /tmp/cc7pvxVj.s:69     .text.usbInit:00000000 $t
     /tmp/cc7pvxVj.s:75     .text.usbInit:00000000 usbInit
     /tmp/cc7pvxVj.s:89     .text.usbObjectInit:00000000 $t
     /tmp/cc7pvxVj.s:95     .text.usbObjectInit:00000000 usbObjectInit
     /tmp/cc7pvxVj.s:122    .text.usbStart:00000000 $t
     /tmp/cc7pvxVj.s:128    .text.usbStart:00000000 usbStart
     /tmp/cc7pvxVj.s:206    .text.usbStart:00000054 $d
     /tmp/cc7pvxVj.s:212    .text.usbStop:00000000 $t
     /tmp/cc7pvxVj.s:218    .text.usbStop:00000000 usbStop
     /tmp/cc7pvxVj.s:273    .text.usbStop:0000003c $d
     /tmp/cc7pvxVj.s:279    .text.usbInitEndpointI:00000000 $t
     /tmp/cc7pvxVj.s:285    .text.usbInitEndpointI:00000000 usbInitEndpointI
     /tmp/cc7pvxVj.s:367    .text.usbInitEndpointI:00000070 $d
     /tmp/cc7pvxVj.s:374    .text.usbDisableEndpointsI:00000000 $t
     /tmp/cc7pvxVj.s:380    .text.usbDisableEndpointsI:00000000 usbDisableEndpointsI
     /tmp/cc7pvxVj.s:446    .text.usbDisableEndpointsI:0000004c $d
     /tmp/cc7pvxVj.s:452    .text.usbStartReceiveI:00000000 $t
     /tmp/cc7pvxVj.s:458    .text.usbStartReceiveI:00000000 usbStartReceiveI
     /tmp/cc7pvxVj.s:513    .text.usbStartReceiveI:0000003c $d
     /tmp/cc7pvxVj.s:518    .text.usbStartTransmitI:00000000 $t
     /tmp/cc7pvxVj.s:524    .text.usbStartTransmitI:00000000 usbStartTransmitI
     /tmp/cc7pvxVj.s:579    .text.usbStartTransmitI:0000003c $d
     /tmp/cc7pvxVj.s:584    .text.usbStallReceiveI:00000000 $t
     /tmp/cc7pvxVj.s:590    .text.usbStallReceiveI:00000000 usbStallReceiveI
     /tmp/cc7pvxVj.s:638    .text.usbStallReceiveI:00000030 $d
     /tmp/cc7pvxVj.s:643    .text.usbStallTransmitI:00000000 $t
     /tmp/cc7pvxVj.s:649    .text.usbStallTransmitI:00000000 usbStallTransmitI
     /tmp/cc7pvxVj.s:697    .text.usbStallTransmitI:00000030 $d
     /tmp/cc7pvxVj.s:702    .text._usb_reset:00000000 $t
     /tmp/cc7pvxVj.s:708    .text._usb_reset:00000000 _usb_reset
     /tmp/cc7pvxVj.s:763    .text._usb_ep0setup:00000000 $t
     /tmp/cc7pvxVj.s:769    .text._usb_ep0setup:00000000 _usb_ep0setup
     /tmp/cc7pvxVj.s:1191   .text._usb_ep0setup:000002d8 $d
     /tmp/cc7pvxVj.s:1201   .text._usb_ep0in:00000000 $t
     /tmp/cc7pvxVj.s:1207   .text._usb_ep0in:00000000 _usb_ep0in
     /tmp/cc7pvxVj.s:1325   .text._usb_ep0out:00000000 $t
     /tmp/cc7pvxVj.s:1331   .text._usb_ep0out:00000000 _usb_ep0out
     /tmp/cc7pvxVj.s:1425   .rodata.zero_status:00000000 $d
     /tmp/cc7pvxVj.s:1429   .rodata.zero_status:00000000 zero_status
     /tmp/cc7pvxVj.s:1432   .rodata.active_status:00000000 $d
     /tmp/cc7pvxVj.s:1436   .rodata.active_status:00000000 active_status
     /tmp/cc7pvxVj.s:1439   .rodata.str1.4:00000000 $d
     /tmp/cc7pvxVj.s:1478   .rodata.halted_status:00000000 $d
     /tmp/cc7pvxVj.s:1482   .rodata.halted_status:00000000 halted_status
                     .debug_frame:00000010 $d
     /tmp/cc7pvxVj.s:211    .text.usbStart:0000005c $t
     /tmp/cc7pvxVj.s:278    .text.usbStop:00000044 $t
     /tmp/cc7pvxVj.s:373    .text.usbInitEndpointI:0000007c $t
     /tmp/cc7pvxVj.s:451    .text.usbDisableEndpointsI:00000054 $t
     /tmp/cc7pvxVj.s:642    .text.usbStallReceiveI:00000034 $t
     /tmp/cc7pvxVj.s:701    .text.usbStallTransmitI:00000034 $t
     /tmp/cc7pvxVj.s:1200   .text._usb_ep0setup:000002e8 $t

ARM GAS  /tmp/cc7pvxVj.s 			page 82


UNDEFINED SYMBOLS
usb_lld_set_address
usb_lld_init
_port_lock
dbg_check_lock
chDbgPanic
usb_lld_start
dbg_check_unlock
_port_unlock
usb_lld_stop
chDbgCheckClassI
usb_lld_init_endpoint
usb_lld_disable_endpoints
usb_lld_start_out
usb_lld_start_in
usb_lld_stall_out
usb_lld_stall_in
usb_lld_reset
usb_lld_read_setup
usb_lld_prepare_transmit
usb_lld_clear_out
usb_lld_prepare_receive
usb_lld_get_status_out
usb_lld_get_status_in
usb_lld_clear_in
