ARM GAS  /tmp/cc7pvxVj.s 			page 1


   1              		.syntax unified
   2              		.cpu cortex-m3
   3              		.fpu softvfp
   4              		.eabi_attribute 20, 1
   5              		.eabi_attribute 21, 1
   6              		.eabi_attribute 23, 3
   7              		.eabi_attribute 24, 1
   8              		.eabi_attribute 25, 1
   9              		.eabi_attribute 26, 1
  10              		.eabi_attribute 30, 2
  11              		.eabi_attribute 18, 4
  12              		.thumb
  13              		.file	"usb.c"
  20 0000 E4040000 		.text
  20      0200F201 
  20      00000201 
  20      FB0E0D00 
  20      01010101 
  21              	.Ltext0:
  22              		.cfi_sections	.debug_frame
  23              		.section	.text.set_address,"ax",%progbits
  24              		.align	2
  25              		.p2align 4,,15
  26              		.thumb
  27              		.thumb_func
  28              		.type	set_address, %function
  29              	set_address:
  30              	.LFB55:
  31              		.file 1 "../chibios_2.4.x/os/hal/src/usb.c"
  32              		.loc 1 69 0
  33              		.cfi_startproc
  34              		@ args = 0, pretend = 0, frame = 0
  35              		@ frame_needed = 0, uses_anonymous_args = 0
  36              	.LVL0:
  37 0000 10B5     		push	{r4, lr}
  38              	.LCFI0:
  39              		.cfi_def_cfa_offset 8
  40              		.loc 1 71 0
  41 0002 90F84210 		ldrb	r1, [r0, #66]	@ zero_extendqisi2
  42              		.loc 1 69 0
  43 0006 0446     		mov	r4, r0
  44              		.cfi_offset 14, -4
  45              		.cfi_offset 4, -8
  46              		.loc 1 71 0
  47 0008 80F84A10 		strb	r1, [r0, #74]
  48              		.loc 1 72 0
  49 000c FFF7FEFF 		bl	usb_lld_set_address
  50              	.LVL1:
  51              		.loc 1 73 0
  52 0010 6368     		ldr	r3, [r4, #4]
  53 0012 1B68     		ldr	r3, [r3, #0]
ARM GAS  /tmp/cc7pvxVj.s 			page 2


  54 0014 13B1     		cbz	r3, .L2
  55              		.loc 1 73 0 is_stmt 0 discriminator 1
  56 0016 2046     		mov	r0, r4
  57 0018 0121     		movs	r1, #1
  58 001a 9847     		blx	r3
  59              	.L2:
  60              		.loc 1 74 0 is_stmt 1
  61 001c 0320     		movs	r0, #3
  62 001e 2070     		strb	r0, [r4, #0]
  63              		.loc 1 75 0
  64 0020 10BD     		pop	{r4, pc}
  65              		.cfi_endproc
  66              	.LFE55:
  67              		.size	set_address, .-set_address
  68 0022 00BFAFF3 		.section	.text.usbInit,"ax",%progbits
  68      0080AFF3 
  68      0080AFF3 
  68      0080
  69              		.align	2
  70              		.p2align 4,,15
  71              		.global	usbInit
  72              		.thumb
  73              		.thumb_func
  74              		.type	usbInit, %function
  75              	usbInit:
  76              	.LFB57:
  77              		.loc 1 235 0
  78              		.cfi_startproc
  79              		@ args = 0, pretend = 0, frame = 0
  80              		@ frame_needed = 0, uses_anonymous_args = 0
  81              		@ link register save eliminated.
  82              		.loc 1 238 0
  83              		.loc 1 237 0
  84 0000 FFF7FEBF 		b	usb_lld_init
  85              		.cfi_endproc
  86              	.LFE57:
  87              		.size	usbInit, .-usbInit
  88 0004 AFF30080 		.section	.text.usbObjectInit,"ax",%progbits
  88      AFF30080 
  88      AFF30080 
  89              		.align	2
  90              		.p2align 4,,15
  91              		.global	usbObjectInit
  92              		.thumb
  93              		.thumb_func
  94              		.type	usbObjectInit, %function
  95              	usbObjectInit:
  96              	.LFB58:
  97              		.loc 1 247 0
  98              		.cfi_startproc
  99              		@ args = 0, pretend = 0, frame = 0
 100              		@ frame_needed = 0, uses_anonymous_args = 0
 101              		@ link register save eliminated.
 102              	.LVL2:
 103              		.loc 1 250 0
 104 0000 0023     		movs	r3, #0
 105              		.loc 1 249 0
ARM GAS  /tmp/cc7pvxVj.s 			page 3


 106 0002 0122     		movs	r2, #1
 107 0004 0270     		strb	r2, [r0, #0]
 108              		.loc 1 250 0
 109 0006 4360     		str	r3, [r0, #4]
 110              		.loc 1 251 0
 111 0008 8360     		str	r3, [r0, #8]
 112              		.loc 1 252 0
 113 000a 8381     		strh	r3, [r0, #12]	@ movhi
 114              		.loc 1 253 0
 115 000c C381     		strh	r3, [r0, #14]	@ movhi
 116              		.loc 1 254 0
 117 000e 7047     		bx	lr
 118              		.cfi_endproc
 119              	.LFE58:
 120              		.size	usbObjectInit, .-usbObjectInit
 121              		.section	.text.usbStart,"ax",%progbits
 122              		.align	2
 123              		.p2align 4,,15
 124              		.global	usbStart
 125              		.thumb
 126              		.thumb_func
 127              		.type	usbStart, %function
 128              	usbStart:
 129              	.LFB59:
 130              		.loc 1 264 0
 131              		.cfi_startproc
 132              		@ args = 0, pretend = 0, frame = 0
 133              		@ frame_needed = 0, uses_anonymous_args = 0
 134              	.LVL3:
 135 0000 38B5     		push	{r3, r4, r5, lr}
 136              	.LCFI1:
 137              		.cfi_def_cfa_offset 16
 138              		.loc 1 267 0
 139 0002 0446     		mov	r4, r0
 140              		.cfi_offset 14, -4
 141              		.cfi_offset 5, -8
 142              		.cfi_offset 4, -12
 143              		.cfi_offset 3, -16
 144              		.loc 1 264 0
 145 0004 0D46     		mov	r5, r1
 146              		.loc 1 267 0
 147 0006 00B3     		cbz	r0, .L7
 148              		.loc 1 267 0 is_stmt 0 discriminator 2
 149 0008 F9B1     		cbz	r1, .L7
 150              	.LVL4:
 151              	.L8:
 152              		.loc 1 269 0 is_stmt 1
 153              	@ 269 "../chibios_2.4.x/os/hal/src/usb.c" 1
 154 000a FFF7FEFF 		bl      _port_lock
 155              	@ 0 "" 2
 156              		.thumb
 157 000e FFF7FEFF 		bl	dbg_check_lock
 158              		.loc 1 270 0
 159 0012 2178     		ldrb	r1, [r4, #0]	@ zero_extendqisi2
 160 0014 481E     		subs	r0, r1, #1
 161 0016 C3B2     		uxtb	r3, r0
 162 0018 012B     		cmp	r3, #1
ARM GAS  /tmp/cc7pvxVj.s 			page 4


 163 001a 02D9     		bls	.L9
 164              		.loc 1 270 0 is_stmt 0 discriminator 1
 165 001c 0D48     		ldr	r0, .L10
 166 001e FFF7FEFF 		bl	chDbgPanic
 167              	.L9:
 168              		.loc 1 274 0 is_stmt 1
 169 0022 0023     		movs	r3, #0
 170              		.loc 1 275 0
 171 0024 2046     		mov	r0, r4
 172              		.loc 1 274 0
 173 0026 2361     		str	r3, [r4, #16]
 174 0028 6361     		str	r3, [r4, #20]
 175 002a A361     		str	r3, [r4, #24]
 176 002c E361     		str	r3, [r4, #28]
 177 002e 2362     		str	r3, [r4, #32]
 178 0030 6362     		str	r3, [r4, #36]
 179 0032 A362     		str	r3, [r4, #40]
 180 0034 E362     		str	r3, [r4, #44]
 181              		.loc 1 272 0
 182 0036 6560     		str	r5, [r4, #4]
 183              	.LVL5:
 184              		.loc 1 275 0
 185 0038 FFF7FEFF 		bl	usb_lld_start
 186              		.loc 1 276 0
 187 003c 0222     		movs	r2, #2
 188 003e 2270     		strb	r2, [r4, #0]
 189              		.loc 1 277 0
 190 0040 FFF7FEFF 		bl	dbg_check_unlock
 191              	@ 277 "../chibios_2.4.x/os/hal/src/usb.c" 1
 192 0044 FFF7FEFF 		bl      _port_unlock
 193              	@ 0 "" 2
 194              		.loc 1 278 0
 195              		.thumb
 196 0048 38BD     		pop	{r3, r4, r5, pc}
 197              	.LVL6:
 198              	.L7:
 199              		.loc 1 267 0 discriminator 1
 200 004a 0348     		ldr	r0, .L10+4
 201 004c FFF7FEFF 		bl	chDbgPanic
 202 0050 DBE7     		b	.L8
 203              	.L11:
 204 0052 00BF     		.align	2
 205              	.L10:
 206 0054 10000000 		.word	.LC1
 207 0058 00000000 		.word	.LC0
 208              		.cfi_endproc
 209              	.LFE59:
 210              		.size	usbStart, .-usbStart
 211 005c AFF30080 		.section	.text.usbStop,"ax",%progbits
 212              		.align	2
 213              		.p2align 4,,15
 214              		.global	usbStop
 215              		.thumb
 216              		.thumb_func
 217              		.type	usbStop, %function
 218              	usbStop:
 219              	.LFB60:
ARM GAS  /tmp/cc7pvxVj.s 			page 5


 220              		.loc 1 287 0
 221              		.cfi_startproc
 222              		@ args = 0, pretend = 0, frame = 0
 223              		@ frame_needed = 0, uses_anonymous_args = 0
 224              	.LVL7:
 225 0000 10B5     		push	{r4, lr}
 226              	.LCFI2:
 227              		.cfi_def_cfa_offset 8
 228              		.loc 1 289 0
 229 0002 0446     		mov	r4, r0
 230              		.cfi_offset 14, -4
 231              		.cfi_offset 4, -8
 232 0004 A8B1     		cbz	r0, .L15
 233              	.LVL8:
 234              	.L13:
 235              		.loc 1 291 0
 236              	@ 291 "../chibios_2.4.x/os/hal/src/usb.c" 1
 237 0006 FFF7FEFF 		bl      _port_lock
 238              	@ 0 "" 2
 239              		.thumb
 240 000a FFF7FEFF 		bl	dbg_check_lock
 241              		.loc 1 292 0
 242 000e 2178     		ldrb	r1, [r4, #0]	@ zero_extendqisi2
 243 0010 481E     		subs	r0, r1, #1
 244 0012 C3B2     		uxtb	r3, r0
 245 0014 012B     		cmp	r3, #1
 246 0016 02D9     		bls	.L14
 247              		.loc 1 292 0 is_stmt 0 discriminator 1
 248 0018 0848     		ldr	r0, .L16
 249 001a FFF7FEFF 		bl	chDbgPanic
 250              	.L14:
 251              		.loc 1 294 0 is_stmt 1
 252 001e 2046     		mov	r0, r4
 253 0020 FFF7FEFF 		bl	usb_lld_stop
 254              		.loc 1 295 0
 255 0024 0122     		movs	r2, #1
 256 0026 2270     		strb	r2, [r4, #0]
 257              		.loc 1 296 0
 258 0028 FFF7FEFF 		bl	dbg_check_unlock
 259              	@ 296 "../chibios_2.4.x/os/hal/src/usb.c" 1
 260 002c FFF7FEFF 		bl      _port_unlock
 261              	@ 0 "" 2
 262              		.loc 1 297 0
 263              		.thumb
 264 0030 10BD     		pop	{r4, pc}
 265              	.L15:
 266              		.loc 1 289 0 discriminator 1
 267 0032 0348     		ldr	r0, .L16+4
 268 0034 FFF7FEFF 		bl	chDbgPanic
 269 0038 E5E7     		b	.L13
 270              	.L17:
 271 003a 00BF     		.align	2
 272              	.L16:
 273 003c 2C000000 		.word	.LC3
 274 0040 20000000 		.word	.LC2
 275              		.cfi_endproc
 276              	.LFE60:
ARM GAS  /tmp/cc7pvxVj.s 			page 6


 277              		.size	usbStop, .-usbStop
 278 0044 AFF30080 		.section	.text.usbInitEndpointI,"ax",%progbits
 278      AFF30080 
 278      AFF30080 
 279              		.align	2
 280              		.p2align 4,,15
 281              		.global	usbInitEndpointI
 282              		.thumb
 283              		.thumb_func
 284              		.type	usbInitEndpointI, %function
 285              	usbInitEndpointI:
 286              	.LFB61:
 287              		.loc 1 313 0
 288              		.cfi_startproc
 289              		@ args = 0, pretend = 0, frame = 0
 290              		@ frame_needed = 0, uses_anonymous_args = 0
 291              	.LVL9:
 292 0000 2DE9F041 		push	{r4, r5, r6, r7, r8, lr}
 293              	.LCFI3:
 294              		.cfi_def_cfa_offset 24
 295              		.loc 1 313 0
 296 0004 0446     		mov	r4, r0
 297              		.cfi_offset 14, -4
 298              		.cfi_offset 8, -8
 299              		.cfi_offset 7, -12
 300              		.cfi_offset 6, -16
 301              		.cfi_offset 5, -20
 302              		.cfi_offset 4, -24
 303 0006 0D46     		mov	r5, r1
 304 0008 1646     		mov	r6, r2
 305              		.loc 1 315 0
 306 000a FFF7FEFF 		bl	chDbgCheckClassI
 307              	.LVL10:
 308              		.loc 1 316 0
 309 000e 002C     		cmp	r4, #0
 310 0010 2AD0     		beq	.L19
 311              		.loc 1 316 0 is_stmt 0 discriminator 2
 312 0012 002E     		cmp	r6, #0
 313 0014 28D0     		beq	.L19
 314              	.L20:
 315              		.loc 1 317 0 is_stmt 1
 316 0016 2378     		ldrb	r3, [r4, #0]	@ zero_extendqisi2
 317 0018 042B     		cmp	r3, #4
 318 001a 02D0     		beq	.L21
 319              		.loc 1 317 0 is_stmt 0 discriminator 1
 320 001c 1448     		ldr	r0, .L24
 321 001e FFF7FEFF 		bl	chDbgPanic
 322              	.L21:
 323              		.loc 1 319 0 is_stmt 1
 324 0022 2F1D     		adds	r7, r5, #4
 325 0024 54F82700 		ldr	r0, [r4, r7, lsl #2]
 326 0028 10B1     		cbz	r0, .L22
 327              		.loc 1 319 0 is_stmt 0 discriminator 1
 328 002a 1248     		ldr	r0, .L24+4
 329 002c FFF7FEFF 		bl	chDbgPanic
 330              	.L22:
 331              		.loc 1 323 0 is_stmt 1
ARM GAS  /tmp/cc7pvxVj.s 			page 7


 332 0030 3168     		ldr	r1, [r6, #0]
 333 0032 11F01003 		ands	r3, r1, #16
 334 0036 0FD1     		bne	.L23
 335              		.loc 1 324 0
 336 0038 7269     		ldr	r2, [r6, #20]
 337 003a 9446     		mov	ip, r2
 338 003c 4CF8043B 		str	r3, [ip], #4
 339 0040 5360     		str	r3, [r2, #4]
 340 0042 CCF80430 		str	r3, [ip, #4]
 341              		.loc 1 325 0
 342 0046 B069     		ldr	r0, [r6, #24]
 343 0048 0146     		mov	r1, r0
 344 004a 41F8043B 		str	r3, [r1], #4
 345 004e 0A1D     		adds	r2, r1, #4
 346 0050 4360     		str	r3, [r0, #4]
 347 0052 42F8043B 		str	r3, [r2], #4
 348 0056 1360     		str	r3, [r2, #0]
 349              	.L23:
 350              		.loc 1 330 0
 351 0058 2046     		mov	r0, r4
 352 005a 2946     		mov	r1, r5
 353              		.loc 1 327 0
 354 005c 44F82760 		str	r6, [r4, r7, lsl #2]
 355              		.loc 1 331 0
 356 0060 BDE8F041 		pop	{r4, r5, r6, r7, r8, lr}
 357              		.loc 1 330 0
 358 0064 FFF7FEBF 		b	usb_lld_init_endpoint
 359              	.L19:
 360              		.loc 1 316 0 discriminator 1
 361 0068 0348     		ldr	r0, .L24+8
 362 006a FFF7FEFF 		bl	chDbgPanic
 363 006e D2E7     		b	.L20
 364              	.L25:
 365              		.align	2
 366              	.L24:
 367 0070 54000000 		.word	.LC5
 368 0074 70000000 		.word	.LC6
 369 0078 3C000000 		.word	.LC4
 370              		.cfi_endproc
 371              	.LFE61:
 372              		.size	usbInitEndpointI, .-usbInitEndpointI
 373 007c AFF30080 		.section	.text.usbDisableEndpointsI,"ax",%progbits
 374              		.align	2
 375              		.p2align 4,,15
 376              		.global	usbDisableEndpointsI
 377              		.thumb
 378              		.thumb_func
 379              		.type	usbDisableEndpointsI, %function
 380              	usbDisableEndpointsI:
 381              	.LFB62:
 382              		.loc 1 344 0
 383              		.cfi_startproc
 384              		@ args = 0, pretend = 0, frame = 0
 385              		@ frame_needed = 0, uses_anonymous_args = 0
 386              	.LVL11:
 387 0000 10B5     		push	{r4, lr}
 388              	.LCFI4:
ARM GAS  /tmp/cc7pvxVj.s 			page 8


 389              		.cfi_def_cfa_offset 8
 390              		.loc 1 344 0
 391 0002 0446     		mov	r4, r0
 392              		.cfi_offset 14, -4
 393              		.cfi_offset 4, -8
 394              		.loc 1 347 0
 395 0004 FFF7FEFF 		bl	chDbgCheckClassI
 396              	.LVL12:
 397              		.loc 1 348 0
 398 0008 E4B1     		cbz	r4, .L29
 399              	.L27:
 400              		.loc 1 349 0
 401 000a 2378     		ldrb	r3, [r4, #0]	@ zero_extendqisi2
 402 000c 032B     		cmp	r3, #3
 403 000e 02D0     		beq	.L28
 404              		.loc 1 349 0 is_stmt 0 discriminator 1
 405 0010 0E48     		ldr	r0, .L30
 406 0012 FFF7FEFF 		bl	chDbgPanic
 407              	.L28:
 408              		.loc 1 352 0 is_stmt 1
 409 0016 B4F80CE0 		ldrh	lr, [r4, #12]
 410              		.loc 1 353 0
 411 001a B4F80EC0 		ldrh	ip, [r4, #14]
 412              		.loc 1 355 0
 413 001e 0020     		movs	r0, #0
 414              		.loc 1 352 0
 415 0020 2EF00101 		bic	r1, lr, #1
 416              		.loc 1 353 0
 417 0024 2CF00102 		bic	r2, ip, #1
 418              		.loc 1 355 0
 419 0028 6061     		str	r0, [r4, #20]
 420 002a A061     		str	r0, [r4, #24]
 421 002c E061     		str	r0, [r4, #28]
 422 002e 2062     		str	r0, [r4, #32]
 423 0030 6062     		str	r0, [r4, #36]
 424 0032 A062     		str	r0, [r4, #40]
 425 0034 E062     		str	r0, [r4, #44]
 426              		.loc 1 358 0
 427 0036 2046     		mov	r0, r4
 428              		.loc 1 352 0
 429 0038 A181     		strh	r1, [r4, #12]	@ movhi
 430              		.loc 1 353 0
 431 003a E281     		strh	r2, [r4, #14]	@ movhi
 432              	.LVL13:
 433              		.loc 1 359 0
 434 003c BDE81040 		pop	{r4, lr}
 435              		.loc 1 358 0
 436 0040 FFF7FEBF 		b	usb_lld_disable_endpoints
 437              	.LVL14:
 438              	.L29:
 439              		.loc 1 348 0 discriminator 1
 440 0044 0248     		ldr	r0, .L30+4
 441 0046 FFF7FEFF 		bl	chDbgPanic
 442 004a DEE7     		b	.L27
 443              	.L31:
 444              		.align	2
 445              	.L30:
ARM GAS  /tmp/cc7pvxVj.s 			page 9


 446 004c A8000000 		.word	.LC8
 447 0050 8C000000 		.word	.LC7
 448              		.cfi_endproc
 449              	.LFE62:
 450              		.size	usbDisableEndpointsI, .-usbDisableEndpointsI
 451 0054 AFF30080 		.section	.text.usbStartReceiveI,"ax",%progbits
 451      AFF30080 
 451      AFF30080 
 452              		.align	2
 453              		.p2align 4,,15
 454              		.global	usbStartReceiveI
 455              		.thumb
 456              		.thumb_func
 457              		.type	usbStartReceiveI, %function
 458              	usbStartReceiveI:
 459              	.LFB63:
 460              		.loc 1 374 0
 461              		.cfi_startproc
 462              		@ args = 0, pretend = 0, frame = 0
 463              		@ frame_needed = 0, uses_anonymous_args = 0
 464              	.LVL15:
 465 0000 70B5     		push	{r4, r5, r6, lr}
 466              	.LCFI5:
 467              		.cfi_def_cfa_offset 16
 468              		.loc 1 374 0
 469 0002 0446     		mov	r4, r0
 470              		.cfi_offset 14, -4
 471              		.cfi_offset 6, -8
 472              		.cfi_offset 5, -12
 473              		.cfi_offset 4, -16
 474 0004 0E46     		mov	r6, r1
 475              		.loc 1 376 0
 476 0006 FFF7FEFF 		bl	chDbgCheckClassI
 477              	.LVL16:
 478              		.loc 1 377 0
 479 000a 9CB1     		cbz	r4, .L36
 480              	.L33:
 481              		.loc 1 379 0
 482 000c E389     		ldrh	r3, [r4, #14]
 483 000e 53FA06F5 		asrs	r5, r3, r6
 484 0012 15F00105 		ands	r5, r5, #1
 485 0016 01D0     		beq	.L37
 486              		.loc 1 380 0
 487 0018 0120     		movs	r0, #1
 488              		.loc 1 385 0
 489 001a 70BD     		pop	{r4, r5, r6, pc}
 490              	.L37:
 491              		.loc 1 382 0
 492 001c 0120     		movs	r0, #1
 493 001e 10FA06F2 		lsls	r2, r0, r6
 494 0022 42EA0303 		orr	r3, r2, r3
 495              		.loc 1 383 0
 496 0026 2046     		mov	r0, r4
 497              		.loc 1 382 0
 498 0028 E381     		strh	r3, [r4, #14]	@ movhi
 499              		.loc 1 383 0
 500 002a 3146     		mov	r1, r6
ARM GAS  /tmp/cc7pvxVj.s 			page 10


 501 002c FFF7FEFF 		bl	usb_lld_start_out
 502              		.loc 1 384 0
 503 0030 2846     		mov	r0, r5
 504 0032 70BD     		pop	{r4, r5, r6, pc}
 505              	.L36:
 506              		.loc 1 377 0 discriminator 1
 507 0034 0148     		ldr	r0, .L38
 508 0036 FFF7FEFF 		bl	chDbgPanic
 509 003a E7E7     		b	.L33
 510              	.L39:
 511              		.align	2
 512              	.L38:
 513 003c C4000000 		.word	.LC9
 514              		.cfi_endproc
 515              	.LFE63:
 516              		.size	usbStartReceiveI, .-usbStartReceiveI
 517              		.section	.text.usbStartTransmitI,"ax",%progbits
 518              		.align	2
 519              		.p2align 4,,15
 520              		.global	usbStartTransmitI
 521              		.thumb
 522              		.thumb_func
 523              		.type	usbStartTransmitI, %function
 524              	usbStartTransmitI:
 525              	.LFB64:
 526              		.loc 1 400 0
 527              		.cfi_startproc
 528              		@ args = 0, pretend = 0, frame = 0
 529              		@ frame_needed = 0, uses_anonymous_args = 0
 530              	.LVL17:
 531 0000 70B5     		push	{r4, r5, r6, lr}
 532              	.LCFI6:
 533              		.cfi_def_cfa_offset 16
 534              		.loc 1 400 0
 535 0002 0446     		mov	r4, r0
 536              		.cfi_offset 14, -4
 537              		.cfi_offset 6, -8
 538              		.cfi_offset 5, -12
 539              		.cfi_offset 4, -16
 540 0004 0E46     		mov	r6, r1
 541              		.loc 1 402 0
 542 0006 FFF7FEFF 		bl	chDbgCheckClassI
 543              	.LVL18:
 544              		.loc 1 403 0
 545 000a 9CB1     		cbz	r4, .L44
 546              	.L41:
 547              		.loc 1 405 0
 548 000c A389     		ldrh	r3, [r4, #12]
 549 000e 53FA06F5 		asrs	r5, r3, r6
 550 0012 15F00105 		ands	r5, r5, #1
 551 0016 01D0     		beq	.L45
 552              		.loc 1 406 0
 553 0018 0120     		movs	r0, #1
 554              		.loc 1 411 0
 555 001a 70BD     		pop	{r4, r5, r6, pc}
 556              	.L45:
 557              		.loc 1 408 0
ARM GAS  /tmp/cc7pvxVj.s 			page 11


 558 001c 0120     		movs	r0, #1
 559 001e 10FA06F2 		lsls	r2, r0, r6
 560 0022 42EA0303 		orr	r3, r2, r3
 561              		.loc 1 409 0
 562 0026 2046     		mov	r0, r4
 563              		.loc 1 408 0
 564 0028 A381     		strh	r3, [r4, #12]	@ movhi
 565              		.loc 1 409 0
 566 002a 3146     		mov	r1, r6
 567 002c FFF7FEFF 		bl	usb_lld_start_in
 568              		.loc 1 410 0
 569 0030 2846     		mov	r0, r5
 570 0032 70BD     		pop	{r4, r5, r6, pc}
 571              	.L44:
 572              		.loc 1 403 0 discriminator 1
 573 0034 0148     		ldr	r0, .L46
 574 0036 FFF7FEFF 		bl	chDbgPanic
 575 003a E7E7     		b	.L41
 576              	.L47:
 577              		.align	2
 578              	.L46:
 579 003c DC000000 		.word	.LC10
 580              		.cfi_endproc
 581              	.LFE64:
 582              		.size	usbStartTransmitI, .-usbStartTransmitI
 583              		.section	.text.usbStallReceiveI,"ax",%progbits
 584              		.align	2
 585              		.p2align 4,,15
 586              		.global	usbStallReceiveI
 587              		.thumb
 588              		.thumb_func
 589              		.type	usbStallReceiveI, %function
 590              	usbStallReceiveI:
 591              	.LFB65:
 592              		.loc 1 424 0
 593              		.cfi_startproc
 594              		@ args = 0, pretend = 0, frame = 0
 595              		@ frame_needed = 0, uses_anonymous_args = 0
 596              	.LVL19:
 597 0000 70B5     		push	{r4, r5, r6, lr}
 598              	.LCFI7:
 599              		.cfi_def_cfa_offset 16
 600              		.loc 1 424 0
 601 0002 0446     		mov	r4, r0
 602              		.cfi_offset 14, -4
 603              		.cfi_offset 6, -8
 604              		.cfi_offset 5, -12
 605              		.cfi_offset 4, -16
 606 0004 0E46     		mov	r6, r1
 607              		.loc 1 426 0
 608 0006 FFF7FEFF 		bl	chDbgCheckClassI
 609              	.LVL20:
 610              		.loc 1 427 0
 611 000a 6CB1     		cbz	r4, .L52
 612              	.L49:
 613              		.loc 1 429 0
 614 000c E089     		ldrh	r0, [r4, #14]
ARM GAS  /tmp/cc7pvxVj.s 			page 12


 615 000e 50FA06F5 		asrs	r5, r0, r6
 616 0012 15F00105 		ands	r5, r5, #1
 617 0016 01D0     		beq	.L53
 618              		.loc 1 430 0
 619 0018 0120     		movs	r0, #1
 620              		.loc 1 434 0
 621 001a 70BD     		pop	{r4, r5, r6, pc}
 622              	.L53:
 623              		.loc 1 432 0
 624 001c 2046     		mov	r0, r4
 625 001e 3146     		mov	r1, r6
 626 0020 FFF7FEFF 		bl	usb_lld_stall_out
 627              		.loc 1 433 0
 628 0024 2846     		mov	r0, r5
 629 0026 70BD     		pop	{r4, r5, r6, pc}
 630              	.L52:
 631              		.loc 1 427 0 discriminator 1
 632 0028 0148     		ldr	r0, .L54
 633 002a FFF7FEFF 		bl	chDbgPanic
 634 002e EDE7     		b	.L49
 635              	.L55:
 636              		.align	2
 637              	.L54:
 638 0030 F4000000 		.word	.LC11
 639              		.cfi_endproc
 640              	.LFE65:
 641              		.size	usbStallReceiveI, .-usbStallReceiveI
 642 0034 AFF30080 		.section	.text.usbStallTransmitI,"ax",%progbits
 642      AFF30080 
 642      AFF30080 
 643              		.align	2
 644              		.p2align 4,,15
 645              		.global	usbStallTransmitI
 646              		.thumb
 647              		.thumb_func
 648              		.type	usbStallTransmitI, %function
 649              	usbStallTransmitI:
 650              	.LFB66:
 651              		.loc 1 447 0
 652              		.cfi_startproc
 653              		@ args = 0, pretend = 0, frame = 0
 654              		@ frame_needed = 0, uses_anonymous_args = 0
 655              	.LVL21:
 656 0000 70B5     		push	{r4, r5, r6, lr}
 657              	.LCFI8:
 658              		.cfi_def_cfa_offset 16
 659              		.loc 1 447 0
 660 0002 0446     		mov	r4, r0
 661              		.cfi_offset 14, -4
 662              		.cfi_offset 6, -8
 663              		.cfi_offset 5, -12
 664              		.cfi_offset 4, -16
 665 0004 0E46     		mov	r6, r1
 666              		.loc 1 449 0
 667 0006 FFF7FEFF 		bl	chDbgCheckClassI
 668              	.LVL22:
 669              		.loc 1 450 0
ARM GAS  /tmp/cc7pvxVj.s 			page 13


 670 000a 6CB1     		cbz	r4, .L60
 671              	.L57:
 672              		.loc 1 452 0
 673 000c A089     		ldrh	r0, [r4, #12]
 674 000e 50FA06F5 		asrs	r5, r0, r6
 675 0012 15F00105 		ands	r5, r5, #1
 676 0016 01D0     		beq	.L61
 677              		.loc 1 453 0
 678 0018 0120     		movs	r0, #1
 679              		.loc 1 457 0
 680 001a 70BD     		pop	{r4, r5, r6, pc}
 681              	.L61:
 682              		.loc 1 455 0
 683 001c 2046     		mov	r0, r4
 684 001e 3146     		mov	r1, r6
 685 0020 FFF7FEFF 		bl	usb_lld_stall_in
 686              		.loc 1 456 0
 687 0024 2846     		mov	r0, r5
 688 0026 70BD     		pop	{r4, r5, r6, pc}
 689              	.L60:
 690              		.loc 1 450 0 discriminator 1
 691 0028 0148     		ldr	r0, .L62
 692 002a FFF7FEFF 		bl	chDbgPanic
 693 002e EDE7     		b	.L57
 694              	.L63:
 695              		.align	2
 696              	.L62:
 697 0030 0C010000 		.word	.LC12
 698              		.cfi_endproc
 699              	.LFE66:
 700              		.size	usbStallTransmitI, .-usbStallTransmitI
 701 0034 AFF30080 		.section	.text._usb_reset,"ax",%progbits
 701      AFF30080 
 701      AFF30080 
 702              		.align	2
 703              		.p2align 4,,15
 704              		.global	_usb_reset
 705              		.thumb
 706              		.thumb_func
 707              		.type	_usb_reset, %function
 708              	_usb_reset:
 709              	.LFB67:
 710              		.loc 1 468 0
 711              		.cfi_startproc
 712              		@ args = 0, pretend = 0, frame = 0
 713              		@ frame_needed = 0, uses_anonymous_args = 0
 714              		@ link register save eliminated.
 715              	.LVL23:
 716 0000 10B4     		push	{r4}
 717              	.LCFI9:
 718              		.cfi_def_cfa_offset 4
 719              		.loc 1 472 0
 720 0002 0022     		movs	r2, #0
 721              		.loc 1 471 0
 722 0004 0224     		movs	r4, #2
 723              		.cfi_offset 4, -4
 724 0006 0470     		strb	r4, [r0, #0]
ARM GAS  /tmp/cc7pvxVj.s 			page 14


 725              		.loc 1 472 0
 726 0008 A0F84820 		strh	r2, [r0, #72]	@ movhi
 727              		.loc 1 473 0
 728 000c 80F84A20 		strb	r2, [r0, #74]
 729              		.loc 1 474 0
 730 0010 80F84B20 		strb	r2, [r0, #75]
 731              		.loc 1 475 0
 732 0014 8281     		strh	r2, [r0, #12]	@ movhi
 733              		.loc 1 476 0
 734 0016 C281     		strh	r2, [r0, #14]	@ movhi
 735              	.LVL24:
 736              		.loc 1 480 0
 737 0018 0261     		str	r2, [r0, #16]
 738              	.LVL25:
 739 001a 4261     		str	r2, [r0, #20]
 740              	.LVL26:
 741 001c 8261     		str	r2, [r0, #24]
 742              	.LVL27:
 743 001e C261     		str	r2, [r0, #28]
 744              	.LVL28:
 745 0020 0262     		str	r2, [r0, #32]
 746              	.LVL29:
 747 0022 4262     		str	r2, [r0, #36]
 748              	.LVL30:
 749 0024 8262     		str	r2, [r0, #40]
 750              	.LVL31:
 751 0026 C262     		str	r2, [r0, #44]
 752              	.LVL32:
 753              		.loc 1 483 0
 754 0028 80F83020 		strb	r2, [r0, #48]
 755              		.loc 1 487 0
 756 002c 10BC     		pop	{r4}
 757              		.loc 1 486 0
 758 002e FFF7FEBF 		b	usb_lld_reset
 759              		.cfi_endproc
 760              	.LFE67:
 761              		.size	_usb_reset, .-_usb_reset
 762 0032 00BFAFF3 		.section	.text._usb_ep0setup,"ax",%progbits
 762      0080AFF3 
 762      0080AFF3 
 762      0080
 763              		.align	2
 764              		.p2align 4,,15
 765              		.global	_usb_ep0setup
 766              		.thumb
 767              		.thumb_func
 768              		.type	_usb_ep0setup, %function
 769              	_usb_ep0setup:
 770              	.LFB68:
 771              		.loc 1 499 0
 772              		.cfi_startproc
 773              		@ args = 0, pretend = 0, frame = 0
 774              		@ frame_needed = 0, uses_anonymous_args = 0
 775              	.LVL33:
 776              		.loc 1 502 0
 777 0000 0022     		movs	r2, #0
 778              		.loc 1 499 0
ARM GAS  /tmp/cc7pvxVj.s 			page 15


 779 0002 2DE9F041 		push	{r4, r5, r6, r7, r8, lr}
 780              	.LCFI10:
 781              		.cfi_def_cfa_offset 24
 782              		.loc 1 499 0
 783 0006 0446     		mov	r4, r0
 784              		.cfi_offset 14, -4
 785              		.cfi_offset 8, -8
 786              		.cfi_offset 7, -12
 787              		.cfi_offset 6, -16
 788              		.cfi_offset 5, -20
 789              		.cfi_offset 4, -24
 790              		.loc 1 502 0
 791 0008 80F83020 		strb	r2, [r0, #48]
 792              		.loc 1 503 0
 793 000c 00F14002 		add	r2, r0, #64
 794 0010 FFF7FEFF 		bl	usb_lld_read_setup
 795              	.LVL34:
 796              		.loc 1 507 0
 797 0014 6368     		ldr	r3, [r4, #4]
 798 0016 9B68     		ldr	r3, [r3, #8]
 799 0018 002B     		cmp	r3, #0
 800 001a 1FD0     		beq	.L66
 801              		.loc 1 508 0 discriminator 1
 802 001c 2046     		mov	r0, r4
 803 001e 9847     		blx	r3
 804              		.loc 1 507 0 discriminator 1
 805 0020 E0B1     		cbz	r0, .L66
 806              		.loc 1 520 0
 807 0022 A56B     		ldr	r5, [r4, #56]
 808 0024 94F84030 		ldrb	r3, [r4, #64]	@ zero_extendqisi2
 809              	.L103:
 810              		.loc 1 527 0
 811 0028 B4F84600 		ldrh	r0, [r4, #70]
 812              	.LVL35:
 813              		.loc 1 529 0
 814 002c A842     		cmp	r0, r5
 815              		.loc 1 530 0
 816 002e 3CBF     		itt	cc
 817 0030 A063     		strcc	r0, [r4, #56]
 818 0032 0546     		movcc	r5, r0
 819              		.loc 1 531 0
 820 0034 13F0800F 		tst	r3, #128
 821 0038 7BD1     		bne	.L106
 822              		.loc 1 549 0
 823 003a 002D     		cmp	r5, #0
 824 003c 6AD1     		bne	.L107
 825              		.loc 1 558 0
 826 003e 0420     		movs	r0, #4
 827              	.LVL36:
 828 0040 84F83000 		strb	r0, [r4, #48]
 829              		.loc 1 559 0
 830 0044 2946     		mov	r1, r5
 831 0046 2046     		mov	r0, r4
 832 0048 2A46     		mov	r2, r5
 833 004a 2B46     		mov	r3, r5
 834 004c FFF7FEFF 		bl	usb_lld_prepare_transmit
 835              		.loc 1 560 0
ARM GAS  /tmp/cc7pvxVj.s 			page 16


 836 0050 2046     		mov	r0, r4
 837 0052 2946     		mov	r1, r5
 838              		.loc 1 563 0
 839 0054 BDE8F041 		pop	{r4, r5, r6, r7, r8, lr}
 840              		.loc 1 560 0
 841 0058 FFF7FEBF 		b	usb_lld_start_in
 842              	.L66:
 843              		.loc 1 511 0
 844 005c 94F84030 		ldrb	r3, [r4, #64]	@ zero_extendqisi2
 845 0060 13F06006 		ands	r6, r3, #96
 846 0064 1A46     		mov	r2, r3
 847 0066 12D0     		beq	.L108
 848              	.L68:
 849              		.loc 1 516 0
 850 0068 0021     		movs	r1, #0
 851 006a 2046     		mov	r0, r4
 852 006c FFF7FEFF 		bl	usb_lld_stall_in
 853              		.loc 1 517 0
 854 0070 2046     		mov	r0, r4
 855 0072 0021     		movs	r1, #0
 856 0074 FFF7FEFF 		bl	usb_lld_stall_out
 857              		.loc 1 518 0
 858 0078 6268     		ldr	r2, [r4, #4]
 859 007a 1368     		ldr	r3, [r2, #0]
 860 007c 13B1     		cbz	r3, .L97
 861              		.loc 1 518 0 is_stmt 0 discriminator 1
 862 007e 2046     		mov	r0, r4
 863 0080 0521     		movs	r1, #5
 864 0082 9847     		blx	r3
 865              	.L97:
 866              		.loc 1 519 0 is_stmt 1
 867 0084 0523     		movs	r3, #5
 868 0086 84F83030 		strb	r3, [r4, #48]
 869              		.loc 1 563 0
 870 008a BDE8F081 		pop	{r4, r5, r6, r7, r8, pc}
 871              	.L108:
 872              	.LVL37:
 873              	.LBB4:
 874              	.LBB5:
 875              		.loc 1 95 0
 876 008e 94F84170 		ldrb	r7, [r4, #65]	@ zero_extendqisi2
 877              		.loc 1 93 0
 878 0092 03F07F01 		and	r1, r3, #127
 879              		.loc 1 94 0
 880 0096 41EA0727 		orr	r7, r1, r7, lsl #8
 881              		.loc 1 93 0
 882 009a B7F5407F 		cmp	r7, #768
 883 009e 00F0A980 		beq	.L75
 884 00a2 16DD     		ble	.L109
 885 00a4 B7F5C06F 		cmp	r7, #1536
 886 00a8 00F0CE80 		beq	.L78
 887 00ac 60DD     		ble	.L110
 888 00ae B7F5106F 		cmp	r7, #2304
 889 00b2 00F0B680 		beq	.L80
 890 00b6 40F6024C 		movw	ip, #3074
 891 00ba 6745     		cmp	r7, ip
 892 00bc 6BD0     		beq	.L71
ARM GAS  /tmp/cc7pvxVj.s 			page 17


 893 00be B7F5006F 		cmp	r7, #2048
 894 00c2 D1D1     		bne	.L68
 895              		.loc 1 142 0
 896 00c4 0125     		movs	r5, #1
 897 00c6 04F14B00 		add	r0, r4, #75
 898 00ca 6063     		str	r0, [r4, #52]
 899 00cc A563     		str	r5, [r4, #56]
 900 00ce E663     		str	r6, [r4, #60]
 901 00d0 AAE7     		b	.L103
 902              	.L109:
 903              		.loc 1 93 0
 904 00d2 022F     		cmp	r7, #2
 905 00d4 77D0     		beq	.L72
 906 00d6 59DD     		ble	.L111
 907 00d8 B7F5807F 		cmp	r7, #256
 908 00dc 62D0     		beq	.L73
 909 00de B7F5817F 		cmp	r7, #258
 910 00e2 C1D1     		bne	.L68
 911              		.loc 1 188 0
 912 00e4 94F84200 		ldrb	r0, [r4, #66]	@ zero_extendqisi2
 913 00e8 0028     		cmp	r0, #0
 914 00ea BDD1     		bne	.L68
 915              		.loc 1 191 0
 916 00ec 94F84430 		ldrb	r3, [r4, #68]	@ zero_extendqisi2
 917 00f0 13F00F01 		ands	r1, r3, #15
 918 00f4 08D0     		beq	.L95
 919              		.loc 1 192 0
 920 00f6 13F0800F 		tst	r3, #128
 921 00fa 40F0E080 		bne	.L112
 922              		.loc 1 195 0
 923 00fe 2046     		mov	r0, r4
 924 0100 FFF7FEFF 		bl	usb_lld_clear_out
 925 0104 94F84020 		ldrb	r2, [r4, #64]	@ zero_extendqisi2
 926              	.L95:
 927              		.loc 1 210 0
 928 0108 0025     		movs	r5, #0
 929 010a 6563     		str	r5, [r4, #52]
 930 010c A563     		str	r5, [r4, #56]
 931 010e E563     		str	r5, [r4, #60]
 932 0110 1346     		mov	r3, r2
 933 0112 89E7     		b	.L103
 934              	.LVL38:
 935              	.L107:
 936              	.LBE5:
 937              	.LBE4:
 938              		.loc 1 551 0
 939 0114 0323     		movs	r3, #3
 940              		.loc 1 552 0
 941 0116 0021     		movs	r1, #0
 942              		.loc 1 551 0
 943 0118 84F83030 		strb	r3, [r4, #48]
 944              		.loc 1 552 0
 945 011c 2046     		mov	r0, r4
 946              	.LVL39:
 947 011e 626B     		ldr	r2, [r4, #52]
 948 0120 2B46     		mov	r3, r5
 949 0122 FFF7FEFF 		bl	usb_lld_prepare_receive
ARM GAS  /tmp/cc7pvxVj.s 			page 18


 950              		.loc 1 553 0
 951 0126 2046     		mov	r0, r4
 952 0128 0021     		movs	r1, #0
 953              		.loc 1 563 0
 954 012a BDE8F041 		pop	{r4, r5, r6, r7, r8, lr}
 955              		.loc 1 553 0
 956 012e FFF7FEBF 		b	usb_lld_start_out
 957              	.LVL40:
 958              	.L106:
 959              		.loc 1 533 0
 960 0132 75B1     		cbz	r5, .L101
 961              		.loc 1 535 0
 962 0134 0122     		movs	r2, #1
 963              		.loc 1 536 0
 964 0136 0021     		movs	r1, #0
 965              		.loc 1 535 0
 966 0138 84F83020 		strb	r2, [r4, #48]
 967              		.loc 1 536 0
 968 013c 2046     		mov	r0, r4
 969              	.LVL41:
 970 013e 626B     		ldr	r2, [r4, #52]
 971 0140 2B46     		mov	r3, r5
 972 0142 FFF7FEFF 		bl	usb_lld_prepare_transmit
 973              		.loc 1 537 0
 974 0146 2046     		mov	r0, r4
 975 0148 0021     		movs	r1, #0
 976              		.loc 1 563 0
 977 014a BDE8F041 		pop	{r4, r5, r6, r7, r8, lr}
 978              		.loc 1 537 0
 979 014e FFF7FEBF 		b	usb_lld_start_in
 980              	.LVL42:
 981              	.L101:
 982              		.loc 1 542 0
 983 0152 0221     		movs	r1, #2
 984 0154 84F83010 		strb	r1, [r4, #48]
 985              		.loc 1 543 0
 986 0158 2046     		mov	r0, r4
 987              	.LVL43:
 988 015a 2946     		mov	r1, r5
 989 015c 2A46     		mov	r2, r5
 990 015e 2B46     		mov	r3, r5
 991 0160 FFF7FEFF 		bl	usb_lld_prepare_receive
 992              		.loc 1 544 0
 993 0164 2046     		mov	r0, r4
 994 0166 2946     		mov	r1, r5
 995              		.loc 1 563 0
 996 0168 BDE8F041 		pop	{r4, r5, r6, r7, r8, lr}
 997              		.loc 1 544 0
 998 016c FFF7FEBF 		b	usb_lld_start_out
 999              	.LVL44:
 1000              	.L110:
 1001              	.LBB7:
 1002              	.LBB6:
 1003              		.loc 1 93 0
 1004 0170 40F20230 		movw	r0, #770
 1005 0174 8742     		cmp	r7, r0
 1006 0176 7CD0     		beq	.L76
ARM GAS  /tmp/cc7pvxVj.s 			page 19


 1007 0178 B7F5A06F 		cmp	r7, #1280
 1008 017c 7FF474AF 		bne	.L68
 1009              		.loc 1 128 0
 1010 0180 554D     		ldr	r5, .L115
 1011 0182 6663     		str	r6, [r4, #52]
 1012 0184 E563     		str	r5, [r4, #60]
 1013 0186 A663     		str	r6, [r4, #56]
 1014 0188 3546     		mov	r5, r6
 1015 018a 4DE7     		b	.L103
 1016              	.L111:
 1017              		.loc 1 93 0
 1018 018c 002F     		cmp	r7, #0
 1019 018e 41D0     		beq	.L70
 1020 0190 012F     		cmp	r7, #1
 1021 0192 7FF469AF 		bne	.L68
 1022              	.L71:
 1023              		.loc 1 158 0
 1024 0196 5149     		ldr	r1, .L115+4
 1025 0198 0225     		movs	r5, #2
 1026 019a 0022     		movs	r2, #0
 1027 019c 6163     		str	r1, [r4, #52]
 1028 019e A563     		str	r5, [r4, #56]
 1029 01a0 E263     		str	r2, [r4, #60]
 1030 01a2 41E7     		b	.L103
 1031              	.L73:
 1032              		.loc 1 103 0
 1033 01a4 94F842E0 		ldrb	lr, [r4, #66]	@ zero_extendqisi2
 1034 01a8 BEF1010F 		cmp	lr, #1
 1035 01ac 7FF45CAF 		bne	.L68
 1036              		.loc 1 104 0
 1037 01b0 B4F84810 		ldrh	r1, [r4, #72]
 1038              		.loc 1 105 0
 1039 01b4 6663     		str	r6, [r4, #52]
 1040              		.loc 1 104 0
 1041 01b6 21F00205 		bic	r5, r1, #2
 1042 01ba A4F84850 		strh	r5, [r4, #72]	@ movhi
 1043              		.loc 1 105 0
 1044 01be A663     		str	r6, [r4, #56]
 1045 01c0 E663     		str	r6, [r4, #60]
 1046 01c2 3546     		mov	r5, r6
 1047 01c4 30E7     		b	.L103
 1048              	.L72:
 1049              		.loc 1 162 0
 1050 01c6 94F84410 		ldrb	r1, [r4, #68]	@ zero_extendqisi2
 1051 01ca 11F0800F 		tst	r1, #128
 1052 01ce 67D1     		bne	.L113
 1053              		.loc 1 175 0
 1054 01d0 2046     		mov	r0, r4
 1055 01d2 01F00F01 		and	r1, r1, #15
 1056 01d6 FFF7FEFF 		bl	usb_lld_get_status_out
 1057 01da 0128     		cmp	r0, #1
 1058 01dc 67D0     		beq	.L91
 1059              	.L105:
 1060 01de 0228     		cmp	r0, #2
 1061 01e0 7FF442AF 		bne	.L68
 1062              		.loc 1 180 0
 1063 01e4 3E4B     		ldr	r3, .L115+8
ARM GAS  /tmp/cc7pvxVj.s 			page 20


 1064 01e6 A063     		str	r0, [r4, #56]
 1065 01e8 6363     		str	r3, [r4, #52]
 1066 01ea E663     		str	r6, [r4, #60]
 1067 01ec 94F84030 		ldrb	r3, [r4, #64]	@ zero_extendqisi2
 1068 01f0 0546     		mov	r5, r0
 1069 01f2 19E7     		b	.L103
 1070              	.L75:
 1071              		.loc 1 112 0
 1072 01f4 94F84200 		ldrb	r0, [r4, #66]	@ zero_extendqisi2
 1073 01f8 0128     		cmp	r0, #1
 1074 01fa 7FF435AF 		bne	.L68
 1075              		.loc 1 113 0
 1076 01fe B4F84820 		ldrh	r2, [r4, #72]
 1077              		.loc 1 114 0
 1078 0202 6663     		str	r6, [r4, #52]
 1079              		.loc 1 113 0
 1080 0204 42F0020C 		orr	ip, r2, #2
 1081 0208 A4F848C0 		strh	ip, [r4, #72]	@ movhi
 1082              		.loc 1 114 0
 1083 020c A663     		str	r6, [r4, #56]
 1084 020e E663     		str	r6, [r4, #60]
 1085 0210 3546     		mov	r5, r6
 1086 0212 09E7     		b	.L103
 1087              	.L70:
 1088              		.loc 1 98 0
 1089 0214 0225     		movs	r5, #2
 1090 0216 04F14802 		add	r2, r4, #72
 1091 021a 6263     		str	r2, [r4, #52]
 1092 021c A563     		str	r5, [r4, #56]
 1093 021e E763     		str	r7, [r4, #60]
 1094 0220 02E7     		b	.L103
 1095              	.L80:
 1096              		.loc 1 146 0
 1097 0222 94F84250 		ldrb	r5, [r4, #66]	@ zero_extendqisi2
 1098 0226 84F84B50 		strb	r5, [r4, #75]
 1099              		.loc 1 147 0
 1100 022a 002D     		cmp	r5, #0
 1101 022c 35D1     		bne	.L85
 1102              		.loc 1 148 0
 1103 022e 0323     		movs	r3, #3
 1104 0230 2370     		strb	r3, [r4, #0]
 1105              	.L86:
 1106              		.loc 1 151 0
 1107 0232 6068     		ldr	r0, [r4, #4]
 1108 0234 0368     		ldr	r3, [r0, #0]
 1109 0236 002B     		cmp	r3, #0
 1110 0238 3FF466AF 		beq	.L95
 1111 023c 2046     		mov	r0, r4
 1112 023e 0221     		movs	r1, #2
 1113 0240 9847     		blx	r3
 1114 0242 94F84020 		ldrb	r2, [r4, #64]	@ zero_extendqisi2
 1115 0246 5FE7     		b	.L95
 1116              	.L78:
 1117              		.loc 1 133 0
 1118 0248 6368     		ldr	r3, [r4, #4]
 1119 024a 2046     		mov	r0, r4
 1120 024c 5D68     		ldr	r5, [r3, #4]
ARM GAS  /tmp/cc7pvxVj.s 			page 21


 1121 024e 94F84310 		ldrb	r1, [r4, #67]	@ zero_extendqisi2
 1122 0252 94F84220 		ldrb	r2, [r4, #66]	@ zero_extendqisi2
 1123 0256 B4F84430 		ldrh	r3, [r4, #68]
 1124 025a A847     		blx	r5
 1125              	.LVL45:
 1126              		.loc 1 136 0
 1127 025c 0028     		cmp	r0, #0
 1128 025e 3FF403AF 		beq	.L68
 1129              		.loc 1 138 0
 1130 0262 4168     		ldr	r1, [r0, #4]
 1131 0264 0568     		ldr	r5, [r0, #0]
 1132 0266 94F84030 		ldrb	r3, [r4, #64]	@ zero_extendqisi2
 1133 026a 6163     		str	r1, [r4, #52]
 1134 026c A563     		str	r5, [r4, #56]
 1135 026e E663     		str	r6, [r4, #60]
 1136 0270 DAE6     		b	.L103
 1137              	.LVL46:
 1138              	.L76:
 1139              		.loc 1 201 0
 1140 0272 94F84210 		ldrb	r1, [r4, #66]	@ zero_extendqisi2
 1141 0276 0029     		cmp	r1, #0
 1142 0278 7FF4F6AE 		bne	.L68
 1143              		.loc 1 204 0
 1144 027c 94F84430 		ldrb	r3, [r4, #68]	@ zero_extendqisi2
 1145 0280 13F00F01 		ands	r1, r3, #15
 1146 0284 3FF440AF 		beq	.L95
 1147              		.loc 1 205 0
 1148 0288 13F0800F 		tst	r3, #128
 1149 028c 1DD1     		bne	.L114
 1150              		.loc 1 208 0
 1151 028e 2046     		mov	r0, r4
 1152 0290 FFF7FEFF 		bl	usb_lld_stall_out
 1153 0294 94F84020 		ldrb	r2, [r4, #64]	@ zero_extendqisi2
 1154 0298 36E7     		b	.L95
 1155              	.L85:
 1156              		.loc 1 150 0
 1157 029a 0421     		movs	r1, #4
 1158 029c 2170     		strb	r1, [r4, #0]
 1159 029e C8E7     		b	.L86
 1160              	.L113:
 1161              		.loc 1 163 0
 1162 02a0 2046     		mov	r0, r4
 1163 02a2 01F00F01 		and	r1, r1, #15
 1164 02a6 FFF7FEFF 		bl	usb_lld_get_status_in
 1165 02aa 0128     		cmp	r0, #1
 1166 02ac 97D1     		bne	.L105
 1167              	.L91:
 1168              		.loc 1 177 0
 1169 02ae 0D4D     		ldr	r5, .L115+12
 1170 02b0 A763     		str	r7, [r4, #56]
 1171 02b2 6563     		str	r5, [r4, #52]
 1172 02b4 E663     		str	r6, [r4, #60]
 1173 02b6 94F84030 		ldrb	r3, [r4, #64]	@ zero_extendqisi2
 1174 02ba 3D46     		mov	r5, r7
 1175 02bc B4E6     		b	.L103
 1176              	.L112:
 1177              		.loc 1 193 0
ARM GAS  /tmp/cc7pvxVj.s 			page 22


 1178 02be 2046     		mov	r0, r4
 1179 02c0 FFF7FEFF 		bl	usb_lld_clear_in
 1180 02c4 94F84020 		ldrb	r2, [r4, #64]	@ zero_extendqisi2
 1181 02c8 1EE7     		b	.L95
 1182              	.L114:
 1183              		.loc 1 206 0
 1184 02ca 2046     		mov	r0, r4
 1185 02cc FFF7FEFF 		bl	usb_lld_stall_in
 1186 02d0 94F84020 		ldrb	r2, [r4, #64]	@ zero_extendqisi2
 1187 02d4 18E7     		b	.L95
 1188              	.L116:
 1189 02d6 00BF     		.align	2
 1190              	.L115:
 1191 02d8 00000000 		.word	set_address
 1192 02dc 00000000 		.word	.LANCHOR0
 1193 02e0 00000000 		.word	.LANCHOR2
 1194 02e4 00000000 		.word	.LANCHOR1
 1195              	.LBE6:
 1196              	.LBE7:
 1197              		.cfi_endproc
 1198              	.LFE68:
 1199              		.size	_usb_ep0setup, .-_usb_ep0setup
 1200 02e8 AFF30080 		.section	.text._usb_ep0in,"ax",%progbits
 1200      AFF30080 
 1201              		.align	2
 1202              		.p2align 4,,15
 1203              		.global	_usb_ep0in
 1204              		.thumb
 1205              		.thumb_func
 1206              		.type	_usb_ep0in, %function
 1207              	_usb_ep0in:
 1208              	.LFB69:
 1209              		.loc 1 575 0
 1210              		.cfi_startproc
 1211              		@ args = 0, pretend = 0, frame = 0
 1212              		@ frame_needed = 0, uses_anonymous_args = 0
 1213              	.LVL47:
 1214              		.loc 1 579 0
 1215 0000 90F83030 		ldrb	r3, [r0, #48]	@ zero_extendqisi2
 1216              		.loc 1 575 0
 1217 0004 70B5     		push	{r4, r5, r6, lr}
 1218              	.LCFI11:
 1219              		.cfi_def_cfa_offset 16
 1220              		.loc 1 579 0
 1221 0006 012B     		cmp	r3, #1
 1222              		.loc 1 575 0
 1223 0008 0446     		mov	r4, r0
 1224              		.cfi_offset 14, -4
 1225              		.cfi_offset 6, -8
 1226              		.cfi_offset 5, -12
 1227              		.cfi_offset 4, -16
 1228              		.loc 1 579 0
 1229 000a 19D0     		beq	.L119
 1230 000c 042B     		cmp	r3, #4
 1231 000e 10D0     		beq	.L126
 1232              		.loc 1 609 0
 1233 0010 0021     		movs	r1, #0
ARM GAS  /tmp/cc7pvxVj.s 			page 23


 1234              	.LVL48:
 1235 0012 FFF7FEFF 		bl	usb_lld_stall_in
 1236              	.LVL49:
 1237              		.loc 1 610 0
 1238 0016 0021     		movs	r1, #0
 1239 0018 2046     		mov	r0, r4
 1240 001a FFF7FEFF 		bl	usb_lld_stall_out
 1241              		.loc 1 611 0
 1242 001e 6168     		ldr	r1, [r4, #4]
 1243 0020 0B68     		ldr	r3, [r1, #0]
 1244 0022 13B1     		cbz	r3, .L124
 1245              		.loc 1 611 0 is_stmt 0 discriminator 1
 1246 0024 2046     		mov	r0, r4
 1247 0026 0521     		movs	r1, #5
 1248 0028 9847     		blx	r3
 1249              	.L124:
 1250              		.loc 1 612 0 is_stmt 1
 1251 002a 0522     		movs	r2, #5
 1252 002c 84F83020 		strb	r2, [r4, #48]
 1253 0030 70BD     		pop	{r4, r5, r6, pc}
 1254              	.LVL50:
 1255              	.L126:
 1256              		.loc 1 599 0
 1257 0032 C36B     		ldr	r3, [r0, #60]
 1258 0034 03B1     		cbz	r3, .L122
 1259              		.loc 1 600 0
 1260 0036 9847     		blx	r3
 1261              	.LVL51:
 1262              	.L122:
 1263              		.loc 1 601 0
 1264 0038 0023     		movs	r3, #0
 1265 003a 84F83030 		strb	r3, [r4, #48]
 1266              		.loc 1 602 0
 1267 003e 70BD     		pop	{r4, r5, r6, pc}
 1268              	.LVL52:
 1269              	.L119:
 1270              		.loc 1 585 0
 1271 0040 836B     		ldr	r3, [r0, #56]
 1272              		.loc 1 581 0
 1273 0042 B0F84620 		ldrh	r2, [r0, #70]
 1274              		.loc 1 585 0
 1275 0046 9A42     		cmp	r2, r3
 1276 0048 06D9     		bls	.L121
 1277              		.loc 1 586 0 discriminator 1
 1278 004a 0269     		ldr	r2, [r0, #16]
 1279 004c 118A     		ldrh	r1, [r2, #16]
 1280              	.LVL53:
 1281 004e B3FBF1F5 		udiv	r5, r3, r1
 1282 0052 01FB1535 		mls	r5, r1, r5, r3
 1283              		.loc 1 585 0 discriminator 1
 1284 0056 75B1     		cbz	r5, .L127
 1285              	.L121:
 1286              		.loc 1 594 0
 1287 0058 0021     		movs	r1, #0
 1288              		.loc 1 593 0
 1289 005a 0220     		movs	r0, #2
 1290              		.loc 1 594 0
ARM GAS  /tmp/cc7pvxVj.s 			page 24


 1291 005c 0A46     		mov	r2, r1
 1292 005e 0B46     		mov	r3, r1
 1293              		.loc 1 593 0
 1294 0060 84F83000 		strb	r0, [r4, #48]
 1295              		.loc 1 594 0
 1296 0064 2046     		mov	r0, r4
 1297 0066 FFF7FEFF 		bl	usb_lld_prepare_receive
 1298              	.LVL54:
 1299              		.loc 1 595 0
 1300 006a 2046     		mov	r0, r4
 1301 006c 0021     		movs	r1, #0
 1302              		.loc 1 613 0
 1303 006e BDE87040 		pop	{r4, r5, r6, lr}
 1304              		.loc 1 595 0
 1305 0072 FFF7FEBF 		b	usb_lld_start_out
 1306              	.LVL55:
 1307              	.L127:
 1308              		.loc 1 587 0
 1309 0076 2946     		mov	r1, r5
 1310 0078 2A46     		mov	r2, r5
 1311 007a 2B46     		mov	r3, r5
 1312 007c FFF7FEFF 		bl	usb_lld_prepare_transmit
 1313              	.LVL56:
 1314              		.loc 1 588 0
 1315 0080 2046     		mov	r0, r4
 1316 0082 2946     		mov	r1, r5
 1317              		.loc 1 613 0
 1318 0084 BDE87040 		pop	{r4, r5, r6, lr}
 1319              		.loc 1 588 0
 1320 0088 FFF7FEBF 		b	usb_lld_start_in
 1321              		.cfi_endproc
 1322              	.LFE69:
 1323              		.size	_usb_ep0in, .-_usb_ep0in
 1324 008c AFF30080 		.section	.text._usb_ep0out,"ax",%progbits
 1325              		.align	2
 1326              		.p2align 4,,15
 1327              		.global	_usb_ep0out
 1328              		.thumb
 1329              		.thumb_func
 1330              		.type	_usb_ep0out, %function
 1331              	_usb_ep0out:
 1332              	.LFB70:
 1333              		.loc 1 625 0
 1334              		.cfi_startproc
 1335              		@ args = 0, pretend = 0, frame = 0
 1336              		@ frame_needed = 0, uses_anonymous_args = 0
 1337              	.LVL57:
 1338              		.loc 1 628 0
 1339 0000 90F83030 		ldrb	r3, [r0, #48]	@ zero_extendqisi2
 1340              		.loc 1 625 0
 1341 0004 70B5     		push	{r4, r5, r6, lr}
 1342              	.LCFI12:
 1343              		.cfi_def_cfa_offset 16
 1344              		.loc 1 628 0
 1345 0006 022B     		cmp	r3, #2
 1346              		.loc 1 625 0
 1347 0008 0446     		mov	r4, r0
ARM GAS  /tmp/cc7pvxVj.s 			page 25


 1348              		.cfi_offset 14, -4
 1349              		.cfi_offset 6, -8
 1350              		.cfi_offset 5, -12
 1351              		.cfi_offset 4, -16
 1352              		.loc 1 628 0
 1353 000a 21D0     		beq	.L130
 1354 000c 032B     		cmp	r3, #3
 1355 000e 11D0     		beq	.L135
 1356              	.LVL58:
 1357              	.L129:
 1358              		.loc 1 650 0
 1359 0010 0021     		movs	r1, #0
 1360 0012 2046     		mov	r0, r4
 1361              	.LVL59:
 1362 0014 FFF7FEFF 		bl	usb_lld_stall_in
 1363              		.loc 1 651 0
 1364 0018 2046     		mov	r0, r4
 1365 001a 0021     		movs	r1, #0
 1366 001c FFF7FEFF 		bl	usb_lld_stall_out
 1367              		.loc 1 652 0
 1368 0020 6368     		ldr	r3, [r4, #4]
 1369 0022 1B68     		ldr	r3, [r3, #0]
 1370 0024 13B1     		cbz	r3, .L134
 1371              		.loc 1 652 0 is_stmt 0 discriminator 1
 1372 0026 2046     		mov	r0, r4
 1373 0028 0521     		movs	r1, #5
 1374 002a 9847     		blx	r3
 1375              	.L134:
 1376              		.loc 1 653 0 is_stmt 1
 1377 002c 0521     		movs	r1, #5
 1378 002e 84F83010 		strb	r1, [r4, #48]
 1379 0032 70BD     		pop	{r4, r5, r6, pc}
 1380              	.LVL60:
 1381              	.L135:
 1382              		.loc 1 632 0
 1383 0034 0021     		movs	r1, #0
 1384              	.LVL61:
 1385              		.loc 1 631 0
 1386 0036 0425     		movs	r5, #4
 1387              		.loc 1 632 0
 1388 0038 0A46     		mov	r2, r1
 1389 003a 0B46     		mov	r3, r1
 1390              		.loc 1 631 0
 1391 003c 80F83050 		strb	r5, [r0, #48]
 1392              		.loc 1 632 0
 1393 0040 FFF7FEFF 		bl	usb_lld_prepare_transmit
 1394              		.loc 1 633 0
 1395 0044 2046     		mov	r0, r4
 1396 0046 0021     		movs	r1, #0
 1397              		.loc 1 654 0
 1398 0048 BDE87040 		pop	{r4, r5, r6, lr}
 1399              		.loc 1 633 0
 1400 004c FFF7FEBF 		b	usb_lld_start_in
 1401              	.LVL62:
 1402              	.L130:
 1403              		.loc 1 638 0
 1404 0050 0269     		ldr	r2, [r0, #16]
ARM GAS  /tmp/cc7pvxVj.s 			page 26


 1405 0052 9169     		ldr	r1, [r2, #24]
 1406              	.LVL63:
 1407 0054 CB68     		ldr	r3, [r1, #12]
 1408 0056 002B     		cmp	r3, #0
 1409 0058 DAD1     		bne	.L129
 1410              		.loc 1 640 0
 1411 005a C36B     		ldr	r3, [r0, #60]
 1412 005c 03B1     		cbz	r3, .L132
 1413              		.loc 1 641 0
 1414 005e 9847     		blx	r3
 1415              	.L132:
 1416              		.loc 1 642 0
 1417 0060 0020     		movs	r0, #0
 1418 0062 84F83000 		strb	r0, [r4, #48]
 1419              		.loc 1 643 0
 1420 0066 70BD     		pop	{r4, r5, r6, pc}
 1421              		.cfi_endproc
 1422              	.LFE70:
 1423              		.size	_usb_ep0out, .-_usb_ep0out
 1424 0068 AFF30080 		.section	.rodata.zero_status,"a",%progbits
 1424      AFF30080 
 1425              		.align	2
 1426              		.set	.LANCHOR0,. + 0
 1427              		.type	zero_status, %object
 1428              		.size	zero_status, 2
 1429              	zero_status:
 1430 0000 0000     		.space	2
 1431 0002 0000     		.section	.rodata.active_status,"a",%progbits
 1432              		.align	2
 1433              		.set	.LANCHOR2,. + 0
 1434              		.type	active_status, %object
 1435              		.size	active_status, 2
 1436              	active_status:
 1437 0000 0000     		.space	2
 1438 0002 0000     		.section	.rodata.str1.4,"aMS",%progbits,1
 1439              		.align	2
 1440              	.LC0:
 1441 0000 22757362 		.ascii	"\"usbStart\"()\000"
 1441      53746172 
 1441      74222829 
 1441      00
 1442 000d 000000   		.space	3
 1443              	.LC1:
 1444 0010 75736253 		.ascii	"usbStart(), #1\000"
 1444      74617274 
 1444      28292C20 
 1444      233100
 1445 001f 00       		.space	1
 1446              	.LC2:
 1447 0020 22757362 		.ascii	"\"usbStop\"()\000"
 1447      53746F70 
 1447      22282900 
 1448              	.LC3:
 1449 002c 75736253 		.ascii	"usbStop(), #1\000"
 1449      746F7028 
 1449      292C2023 
 1449      3100
ARM GAS  /tmp/cc7pvxVj.s 			page 27


 1450 003a 0000     		.space	2
 1451              	.LC4:
 1452 003c 22757362 		.ascii	"\"usbInitEndpointI\"()\000"
 1452      496E6974 
 1452      456E6470 
 1452      6F696E74 
 1452      49222829 
 1453 0051 000000   		.space	3
 1454              	.LC5:
 1455 0054 75736245 		.ascii	"usbEnableEndpointI(), #1\000"
 1455      6E61626C 
 1455      65456E64 
 1455      706F696E 
 1455      74492829 
 1456 006d 000000   		.space	3
 1457              	.LC6:
 1458 0070 75736245 		.ascii	"usbEnableEndpointI(), #2\000"
 1458      6E61626C 
 1458      65456E64 
 1458      706F696E 
 1458      74492829 
 1459 0089 000000   		.space	3
 1460              	.LC7:
 1461 008c 22757362 		.ascii	"\"usbDisableEndpointsI\"()\000"
 1461      44697361 
 1461      626C6545 
 1461      6E64706F 
 1461      696E7473 
 1462 00a5 000000   		.space	3
 1463              	.LC8:
 1464 00a8 75736244 		.ascii	"usbDisableEndpointsI(), #1\000"
 1464      69736162 
 1464      6C65456E 
 1464      64706F69 
 1464      6E747349 
 1465 00c3 00       		.space	1
 1466              	.LC9:
 1467 00c4 22757362 		.ascii	"\"usbStartReceiveI\"()\000"
 1467      53746172 
 1467      74526563 
 1467      65697665 
 1467      49222829 
 1468 00d9 000000   		.space	3
 1469              	.LC10:
 1470 00dc 22757362 		.ascii	"\"usbStartTransmitI\"()\000"
 1470      53746172 
 1470      74547261 
 1470      6E736D69 
 1470      74492228 
 1471 00f2 0000     		.space	2
 1472              	.LC11:
 1473 00f4 22757362 		.ascii	"\"usbStallReceiveI\"()\000"
 1473      5374616C 
 1473      6C526563 
 1473      65697665 
 1473      49222829 
 1474 0109 000000   		.space	3
ARM GAS  /tmp/cc7pvxVj.s 			page 28


 1475              	.LC12:
 1476 010c 22757362 		.ascii	"\"usbStallTransmitI\"()\000"
 1476      5374616C 
 1476      6C547261 
 1476      6E736D69 
 1476      74492228 
 1477 0122 0000     		.section	.rodata.halted_status,"a",%progbits
 1478              		.align	2
 1479              		.set	.LANCHOR1,. + 0
 1480              		.type	halted_status, %object
 1481              		.size	halted_status, 2
 1482              	halted_status:
 1483 0000 01       		.byte	1
 1484 0001 00       		.byte	0
 1485 0002 0000     		.text
 1486              	.Letext0: