ARM GAS  C:\DOCUME~1\z_80\LOCALS~1\Temp\cc0FNNDd.s 			page 1


   1              		.syntax unified
   2              		.cpu cortex-m3
   3              		.fpu softvfp
   4              		.eabi_attribute 20, 1
   5              		.eabi_attribute 21, 1
   6              		.eabi_attribute 23, 3
   7              		.eabi_attribute 24, 1
   8              		.eabi_attribute 25, 1
   9              		.eabi_attribute 26, 1
  10              		.eabi_attribute 30, 2
  11              		.eabi_attribute 18, 4
  12              		.thumb
  13              		.file	"usb_lld.c"
  20 0000 44050000 		.text
  20      02001C02 
  20      00000201 
  20      FB0E0D00 
  20      01010101 
  21              	.Ltext0:
  22              		.cfi_sections	.debug_frame
  23              		.section	.text.Vector8C,"ax",%progbits
  24              		.align	2
  25              		.p2align 4,,15
  26              		.global	Vector8C
  27              		.thumb
  28              		.thumb_func
  29              		.type	Vector8C, %function
  30              	Vector8C:
  31              	.LFB57:
  32              		.file 1 "../chibios_2.4.x/os/hal/platforms/STM32/USBv1/usb_lld.c"
  33              		.loc 1 129 0
  34              		.cfi_startproc
  35              		@ args = 0, pretend = 0, frame = 0
  36              		@ frame_needed = 0, uses_anonymous_args = 0
  37 0000 10B5     		push	{r4, lr}
  38              	.LCFI0:
  39              		.cfi_def_cfa_offset 8
  40              		.loc 1 131 0
  41              		.cfi_offset 14, -4
  42              		.cfi_offset 4, -8
  43 0002 FFF7FEFF 		bl	dbg_check_enter_isr
  44              		.loc 1 133 0
  45 0006 FFF7FEFF 		bl	dbg_check_leave_isr
  46              		.loc 1 134 0
  47 000a BDE81040 		pop	{r4, lr}
  48              		.loc 1 133 0
  49 000e FFF7FEBF 		b	_port_irq_epilogue
  50              		.cfi_endproc
  51              	.LFE57:
  52              		.size	Vector8C, .-Vector8C
  53 0012 00BFAFF3 		.section	.text.usb_lld_init,"ax",%progbits
ARM GAS  C:\DOCUME~1\z_80\LOCALS~1\Temp\cc0FNNDd.s 			page 2


  53      0080AFF3 
  53      0080AFF3 
  53      0080
  54              		.align	2
  55              		.p2align 4,,15
  56              		.global	usb_lld_init
  57              		.thumb
  58              		.thumb_func
  59              		.type	usb_lld_init, %function
  60              	usb_lld_init:
  61              	.LFB59:
  62              		.loc 1 272 0
  63              		.cfi_startproc
  64              		@ args = 0, pretend = 0, frame = 0
  65              		@ frame_needed = 0, uses_anonymous_args = 0
  66              		@ link register save eliminated.
  67              		.loc 1 275 0
  68 0000 0148     		ldr	r0, .L3
  69              		.loc 1 276 0
  70              		.loc 1 275 0
  71 0002 FFF7FEBF 		b	usbObjectInit
  72              	.L4:
  73 0006 00BF     		.align	2
  74              	.L3:
  75 0008 00000000 		.word	.LANCHOR0
  76              		.cfi_endproc
  77              	.LFE59:
  78              		.size	usb_lld_init, .-usb_lld_init
  79 000c AFF30080 		.section	.text.usb_lld_start,"ax",%progbits
  80              		.align	2
  81              		.p2align 4,,15
  82              		.global	usb_lld_start
  83              		.thumb
  84              		.thumb_func
  85              		.type	usb_lld_start, %function
  86              	usb_lld_start:
  87              	.LFB60:
  88              		.loc 1 285 0
  89              		.cfi_startproc
  90              		@ args = 0, pretend = 0, frame = 0
  91              		@ frame_needed = 0, uses_anonymous_args = 0
  92              	.LVL0:
  93              		.loc 1 287 0
  94 0000 0378     		ldrb	r3, [r0, #0]	@ zero_extendqisi2
  95              		.loc 1 285 0
  96 0002 70B5     		push	{r4, r5, r6, lr}
  97              	.LCFI1:
  98              		.cfi_def_cfa_offset 16
  99              		.loc 1 287 0
 100 0004 012B     		cmp	r3, #1
 101              		.loc 1 285 0
 102 0006 0446     		mov	r4, r0
 103              		.cfi_offset 14, -4
 104              		.cfi_offset 6, -8
 105              		.cfi_offset 5, -12
 106              		.cfi_offset 4, -16
 107              		.loc 1 287 0
ARM GAS  C:\DOCUME~1\z_80\LOCALS~1\Temp\cc0FNNDd.s 			page 3


 108 0008 00D0     		beq	.L9
 109 000a 70BD     		pop	{r4, r5, r6, pc}
 110              	.L9:
 111              		.loc 1 290 0
 112 000c 0C4A     		ldr	r2, .L11
 113 000e 9042     		cmp	r0, r2
 114 0010 04D0     		beq	.L10
 115              	.LVL1:
 116              	.L7:
 117              		.loc 1 306 0
 118 0012 2046     		mov	r0, r4
 119              		.loc 1 309 0
 120 0014 BDE87040 		pop	{r4, r5, r6, lr}
 121              		.loc 1 306 0
 122 0018 FFF7FEBF 		b	_usb_reset
 123              	.L10:
 124              		.loc 1 292 0
 125 001c 094A     		ldr	r2, .L11+4
 126              		.loc 1 294 0
 127 001e 0A4D     		ldr	r5, .L11+8
 128              		.loc 1 292 0
 129 0020 D669     		ldr	r6, [r2, #28]
 130              		.loc 1 297 0
 131 0022 1320     		movs	r0, #19
 132              		.loc 1 292 0
 133 0024 46F40006 		orr	r6, r6, #8388608
 134 0028 D661     		str	r6, [r2, #28]
 135              		.loc 1 297 0
 136 002a 6021     		movs	r1, #96
 137              		.loc 1 294 0
 138 002c 2B64     		str	r3, [r5, #64]
 139              		.loc 1 297 0
 140 002e FFF7FEFF 		bl	nvicEnableVector
 141              		.loc 1 299 0
 142 0032 1420     		movs	r0, #20
 143 0034 E021     		movs	r1, #224
 144 0036 FFF7FEFF 		bl	nvicEnableVector
 145              		.loc 1 302 0
 146 003a 0023     		movs	r3, #0
 147 003c 2B64     		str	r3, [r5, #64]
 148 003e E8E7     		b	.L7
 149              	.L12:
 150              		.align	2
 151              	.L11:
 152 0040 00000000 		.word	.LANCHOR0
 153 0044 00100240 		.word	1073876992
 154 0048 005C0040 		.word	1073765376
 155              		.cfi_endproc
 156              	.LFE60:
 157              		.size	usb_lld_start, .-usb_lld_start
 158 004c AFF30080 		.section	.text.usb_lld_stop,"ax",%progbits
 159              		.align	2
 160              		.p2align 4,,15
 161              		.global	usb_lld_stop
 162              		.thumb
 163              		.thumb_func
 164              		.type	usb_lld_stop, %function
ARM GAS  C:\DOCUME~1\z_80\LOCALS~1\Temp\cc0FNNDd.s 			page 4


 165              	usb_lld_stop:
 166              	.LFB61:
 167              		.loc 1 318 0
 168              		.cfi_startproc
 169              		@ args = 0, pretend = 0, frame = 0
 170              		@ frame_needed = 0, uses_anonymous_args = 0
 171              	.LVL2:
 172 0000 08B5     		push	{r3, lr}
 173              	.LCFI2:
 174              		.cfi_def_cfa_offset 8
 175              		.loc 1 321 0
 176 0002 0378     		ldrb	r3, [r0, #0]	@ zero_extendqisi2
 177              		.cfi_offset 14, -4
 178              		.cfi_offset 3, -8
 179 0004 012B     		cmp	r3, #1
 180 0006 00D0     		beq	.L15
 181              	.LVL3:
 182              	.L13:
 183 0008 08BD     		pop	{r3, pc}
 184              	.LVL4:
 185              	.L15:
 186              		.loc 1 323 0
 187 000a 0949     		ldr	r1, .L16
 188 000c 8842     		cmp	r0, r1
 189 000e FBD1     		bne	.L13
 190              		.loc 1 324 0
 191 0010 1320     		movs	r0, #19
 192              	.LVL5:
 193 0012 FFF7FEFF 		bl	nvicDisableVector
 194              		.loc 1 325 0
 195 0016 1420     		movs	r0, #20
 196 0018 FFF7FEFF 		bl	nvicDisableVector
 197              		.loc 1 326 0
 198 001c 054A     		ldr	r2, .L16+4
 199              		.loc 1 327 0
 200 001e 0648     		ldr	r0, .L16+8
 201              		.loc 1 326 0
 202 0020 0321     		movs	r1, #3
 203 0022 1164     		str	r1, [r2, #64]
 204              		.loc 1 327 0
 205 0024 C369     		ldr	r3, [r0, #28]
 206 0026 23F40002 		bic	r2, r3, #8388608
 207 002a C261     		str	r2, [r0, #28]
 208 002c ECE7     		b	.L13
 209              	.L17:
 210 002e 00BF     		.align	2
 211              	.L16:
 212 0030 00000000 		.word	.LANCHOR0
 213 0034 005C0040 		.word	1073765376
 214 0038 00100240 		.word	1073876992
 215              		.cfi_endproc
 216              	.LFE61:
 217              		.size	usb_lld_stop, .-usb_lld_stop
 218 003c AFF30080 		.section	.text.usb_lld_set_address,"ax",%progbits
 219              		.align	2
 220              		.p2align 4,,15
 221              		.global	usb_lld_set_address
ARM GAS  C:\DOCUME~1\z_80\LOCALS~1\Temp\cc0FNNDd.s 			page 5


 222              		.thumb
 223              		.thumb_func
 224              		.type	usb_lld_set_address, %function
 225              	usb_lld_set_address:
 226              	.LFB63:
 227              		.loc 1 370 0
 228              		.cfi_startproc
 229              		@ args = 0, pretend = 0, frame = 0
 230              		@ frame_needed = 0, uses_anonymous_args = 0
 231              		@ link register save eliminated.
 232              	.LVL6:
 233              		.loc 1 372 0
 234 0000 90F84A00 		ldrb	r0, [r0, #74]	@ zero_extendqisi2
 235              	.LVL7:
 236 0004 024B     		ldr	r3, .L19
 237 0006 40F08002 		orr	r2, r0, #128
 238 000a DA64     		str	r2, [r3, #76]
 239              		.loc 1 373 0
 240 000c 7047     		bx	lr
 241              	.L20:
 242 000e 00BF     		.align	2
 243              	.L19:
 244 0010 005C0040 		.word	1073765376
 245              		.cfi_endproc
 246              	.LFE63:
 247              		.size	usb_lld_set_address, .-usb_lld_set_address
 248 0014 AFF30080 		.section	.text.usb_lld_init_endpoint,"ax",%progbits
 248      AFF30080 
 248      AFF30080 
 249              		.align	2
 250              		.p2align 4,,15
 251              		.global	usb_lld_init_endpoint
 252              		.thumb
 253              		.thumb_func
 254              		.type	usb_lld_init_endpoint, %function
 255              	usb_lld_init_endpoint:
 256              	.LFB64:
 257              		.loc 1 383 0
 258              		.cfi_startproc
 259              		@ args = 0, pretend = 0, frame = 0
 260              		@ frame_needed = 0, uses_anonymous_args = 0
 261              	.LVL8:
 262              		.loc 1 386 0
 263 0000 0A1D     		adds	r2, r1, #4
 264              		.loc 1 383 0
 265 0002 2DE9F041 		push	{r4, r5, r6, r7, r8, lr}
 266              	.LCFI3:
 267              		.cfi_def_cfa_offset 24
 268              		.loc 1 386 0
 269 0006 50F82240 		ldr	r4, [r0, r2, lsl #2]
 270              		.cfi_offset 14, -4
 271              		.cfi_offset 8, -8
 272              		.cfi_offset 7, -12
 273              		.cfi_offset 6, -16
 274              		.cfi_offset 5, -20
 275              		.cfi_offset 4, -24
 276              	.LVL9:
ARM GAS  C:\DOCUME~1\z_80\LOCALS~1\Temp\cc0FNNDd.s 			page 6


 277              		.loc 1 383 0
 278 000a 0546     		mov	r5, r0
 279              		.loc 1 389 0
 280 000c 2268     		ldr	r2, [r4, #0]
 281              	.LVL10:
 282 000e 02F00303 		and	r3, r2, #3
 283 0012 013B     		subs	r3, r3, #1
 284 0014 022B     		cmp	r3, #2
 285 0016 96BF     		itet	ls
 286 0018 3648     		ldrls	r0, .L32
 287              	.LVL11:
 288 001a 4FF40073 		movhi	r3, #512
 289 001e 30F81330 		ldrhls	r3, [r0, r3, lsl #1]
 290              	.LVL12:
 291              		.loc 1 404 0
 292 0022 A068     		ldr	r0, [r4, #8]
 293 0024 08B1     		cbz	r0, .L23
 294              		.loc 1 405 0
 295 0026 43F02003 		orr	r3, r3, #32
 296              	.LVL13:
 297              	.L23:
 298              		.loc 1 409 0
 299 002a E668     		ldr	r6, [r4, #12]
 300 002c 66B1     		cbz	r6, .L24
 301              		.loc 1 410 0
 302 002e 12F0100F 		tst	r2, #16
 303 0032 55D0     		beq	.L25
 304              		.loc 1 411 0
 305 0034 0120     		movs	r0, #1
 306 0036 10FA01F2 		lsls	r2, r0, r1
 307 003a B5F80E80 		ldrh	r8, [r5, #14]
 308              		.loc 1 412 0
 309 003e 43F44053 		orr	r3, r3, #12288
 310              	.LVL14:
 311              		.loc 1 411 0
 312 0042 42EA0807 		orr	r7, r2, r8
 313 0046 EF81     		strh	r7, [r5, #14]	@ movhi
 314              	.LVL15:
 315              	.L24:
 316              		.loc 1 419 0
 317 0048 43EA010C 		orr	ip, r3, r1
 318 004c 2A4F     		ldr	r7, .L32+4
 319 004e 2CF4F046 		bic	r6, ip, #30720
 320 0052 26F07000 		bic	r0, r6, #112
 321 0056 47F82100 		str	r0, [r7, r1, lsl #2]
 322              		.loc 1 420 0
 323 005a 47F67008 		movw	r8, #30832
 324 005e 57F82120 		ldr	r2, [r7, r1, lsl #2]
 325 0062 03EA080C 		and	ip, r3, r8
 326              		.loc 1 423 0
 327 0066 638A     		ldrh	r3, [r4, #18]
 328              	.LVL16:
 329              		.loc 1 420 0
 330 0068 8CEA0206 		eor	r6, ip, r2
 331              		.loc 1 423 0
 332 006c 3E2B     		cmp	r3, #62
 333              		.loc 1 420 0
ARM GAS  C:\DOCUME~1\z_80\LOCALS~1\Temp\cc0FNNDd.s 			page 7


 334 006e 47F82160 		str	r6, [r7, r1, lsl #2]
 335              		.loc 1 423 0
 336 0072 2BD9     		bls	.L26
 337              		.loc 1 424 0
 338 0074 5F1E     		subs	r7, r3, #1
 339 0076 47F01F06 		orr	r6, r7, #31
 340 007a 701C     		adds	r0, r6, #1
 341 007c 4211     		asrs	r2, r0, #5
 342 007e 6FEAC267 		mvn	r7, r2, lsl #27
 343 0082 6FEA5742 		mvn	r2, r7, lsr #17
 344              	.LVL17:
 345              	.L27:
 346              		.loc 1 428 0
 347 0086 1C4E     		ldr	r6, .L32+4
 348              	.LBB16:
 349              	.LBB19:
 350              		.loc 1 113 0
 351 0088 D5F84C80 		ldr	r8, [r5, #76]
 352              	.LBE19:
 353              	.LBE16:
 354              		.loc 1 428 0
 355 008c 306D     		ldr	r0, [r6, #80]
 356              		.loc 1 431 0
 357 008e B4F810C0 		ldrh	ip, [r4, #16]
 358              		.loc 1 428 0
 359 0092 00F10057 		add	r7, r0, #536870912
 360 0096 07F54056 		add	r6, r7, #12288
 361 009a 06EBC100 		add	r0, r6, r1, lsl #3
 362              	.LBB22:
 363              	.LBB18:
 364              		.loc 1 114 0
 365 009e 0CEB0806 		add	r6, ip, r8
 366              	.LBE18:
 367              	.LBE22:
 368              		.loc 1 428 0
 369 00a2 4700     		lsls	r7, r0, #1
 370              	.LVL18:
 371              		.loc 1 429 0
 372 00a4 0021     		movs	r1, #0
 373              	.LVL19:
 374              	.LBB23:
 375              	.LBB20:
 376              		.loc 1 115 0
 377 00a6 B6F5007F 		cmp	r6, #512
 378              	.LBE20:
 379              	.LBE23:
 380              		.loc 1 429 0
 381 00aa B980     		strh	r1, [r7, #4]	@ movhi
 382              		.loc 1 430 0
 383 00ac BA81     		strh	r2, [r7, #12]	@ movhi
 384              	.LVL20:
 385              	.LBB24:
 386              	.LBB17:
 387              		.loc 1 114 0
 388 00ae EE64     		str	r6, [r5, #76]
 389              		.loc 1 115 0
 390 00b0 19D8     		bhi	.L31
ARM GAS  C:\DOCUME~1\z_80\LOCALS~1\Temp\cc0FNNDd.s 			page 8


 391              	.LVL21:
 392              	.L28:
 393              	.LBE17:
 394              	.LBE24:
 395              	.LBB25:
 396              	.LBB26:
 397              		.loc 1 114 0
 398 00b2 9B19     		adds	r3, r3, r6
 399              		.loc 1 115 0
 400 00b4 B3F5007F 		cmp	r3, #512
 401              	.LBE26:
 402              	.LBE25:
 403              		.loc 1 431 0
 404 00b8 C7F80080 		str	r8, [r7, #0]
 405              	.LBB28:
 406              	.LBB27:
 407              		.loc 1 114 0
 408 00bc EB64     		str	r3, [r5, #76]
 409              		.loc 1 115 0
 410 00be 02D9     		bls	.L29
 411 00c0 0E48     		ldr	r0, .L32+8
 412 00c2 FFF7FEFF 		bl	chDbgPanic
 413              	.L29:
 414              	.LBE27:
 415              	.LBE28:
 416              		.loc 1 432 0
 417 00c6 BE60     		str	r6, [r7, #8]
 418              		.loc 1 433 0
 419 00c8 BDE8F081 		pop	{r4, r5, r6, r7, r8, pc}
 420              	.LVL22:
 421              	.L26:
 422              		.loc 1 427 0
 423 00cc 5A1E     		subs	r2, r3, #1
 424 00ce 42F00107 		orr	r7, r2, #1
 425 00d2 7E1C     		adds	r6, r7, #1
 426 00d4 06EBD670 		add	r0, r6, r6, lsr #31
 427 00d8 4202     		lsls	r2, r0, #9
 428 00da 02F47C42 		and	r2, r2, #64512
 429              	.LVL23:
 430 00de D2E7     		b	.L27
 431              	.LVL24:
 432              	.L25:
 433              		.loc 1 415 0
 434 00e0 43F40053 		orr	r3, r3, #8192
 435              	.LVL25:
 436 00e4 B0E7     		b	.L24
 437              	.LVL26:
 438              	.L31:
 439              	.LBB29:
 440              	.LBB21:
 441              		.loc 1 115 0
 442 00e6 0548     		ldr	r0, .L32+8
 443 00e8 FFF7FEFF 		bl	chDbgPanic
 444              	.LVL27:
 445 00ec 638A     		ldrh	r3, [r4, #18]
 446 00ee EE6C     		ldr	r6, [r5, #76]
 447 00f0 DFE7     		b	.L28
ARM GAS  C:\DOCUME~1\z_80\LOCALS~1\Temp\cc0FNNDd.s 			page 9


 448              	.L33:
 449 00f2 00BF     		.align	2
 450              	.L32:
 451 00f4 00000000 		.word	.LANCHOR1
 452 00f8 005C0040 		.word	1073765376
 453 00fc 00000000 		.word	.LC0
 454              	.LBE21:
 455              	.LBE29:
 456              		.cfi_endproc
 457              	.LFE64:
 458              		.size	usb_lld_init_endpoint, .-usb_lld_init_endpoint
 459              		.section	.text.usb_lld_reset,"ax",%progbits
 460              		.align	2
 461              		.p2align 4,,15
 462              		.global	usb_lld_reset
 463              		.thumb
 464              		.thumb_func
 465              		.type	usb_lld_reset, %function
 466              	usb_lld_reset:
 467              	.LFB62:
 468              		.loc 1 340 0
 469              		.cfi_startproc
 470              		@ args = 0, pretend = 0, frame = 0
 471              		@ frame_needed = 0, uses_anonymous_args = 0
 472              		@ link register save eliminated.
 473              	.LVL28:
 474              		.loc 1 351 0
 475 0000 4168     		ldr	r1, [r0, #4]
 476              		.loc 1 340 0
 477 0002 30B4     		push	{r4, r5}
 478              	.LCFI4:
 479              		.cfi_def_cfa_offset 8
 480              		.loc 1 344 0
 481 0004 0A4B     		ldr	r3, .L37
 482              		.loc 1 351 0
 483 0006 CD68     		ldr	r5, [r1, #12]
 484              		.cfi_offset 5, -4
 485              		.cfi_offset 4, -8
 486              		.loc 1 344 0
 487 0008 0024     		movs	r4, #0
 488 000a 1C65     		str	r4, [r3, #80]
 489              		.loc 1 347 0
 490 000c A542     		cmp	r5, r4
 491 000e 14BF     		ite	ne
 492 0010 4FF41E45 		movne	r5, #40448
 493 0014 4FF41C45 		moveq	r5, #39936
 494              		.loc 1 345 0
 495 0018 5C64     		str	r4, [r3, #68]
 496              		.loc 1 360 0
 497 001a 2146     		mov	r1, r4
 498              		.loc 1 346 0
 499 001c 8024     		movs	r4, #128
 500 001e DC64     		str	r4, [r3, #76]
 501              	.LVL29:
 502              		.loc 1 353 0
 503 0020 1D64     		str	r5, [r3, #64]
 504              		.loc 1 359 0
ARM GAS  C:\DOCUME~1\z_80\LOCALS~1\Temp\cc0FNNDd.s 			page 10


 505 0022 044B     		ldr	r3, .L37+4
 506              	.LBB30:
 507              	.LBB31:
 508              		.loc 1 101 0
 509 0024 4022     		movs	r2, #64
 510 0026 C264     		str	r2, [r0, #76]
 511              	.LBE31:
 512              	.LBE30:
 513              		.loc 1 359 0
 514 0028 0361     		str	r3, [r0, #16]
 515              		.loc 1 361 0
 516 002a 30BC     		pop	{r4, r5}
 517              		.loc 1 360 0
 518 002c FFF7FEBF 		b	usb_lld_init_endpoint
 519              	.LVL30:
 520              	.L38:
 521              		.align	2
 522              	.L37:
 523 0030 005C0040 		.word	1073765376
 524 0034 00000000 		.word	.LANCHOR2
 525              		.cfi_endproc
 526              	.LFE62:
 527              		.size	usb_lld_reset, .-usb_lld_reset
 528 0038 AFF30080 		.section	.text.usb_lld_disable_endpoints,"ax",%progbits
 528      AFF30080 
 529              		.align	2
 530              		.p2align 4,,15
 531              		.global	usb_lld_disable_endpoints
 532              		.thumb
 533              		.thumb_func
 534              		.type	usb_lld_disable_endpoints, %function
 535              	usb_lld_disable_endpoints:
 536              	.LFB65:
 537              		.loc 1 442 0
 538              		.cfi_startproc
 539              		@ args = 0, pretend = 0, frame = 0
 540              		@ frame_needed = 0, uses_anonymous_args = 0
 541              		@ link register save eliminated.
 542              	.LVL31:
 543              		.loc 1 450 0
 544 0000 0C4B     		ldr	r3, .L40
 545              	.LBB32:
 546              	.LBB33:
 547              		.loc 1 101 0
 548 0002 4022     		movs	r2, #64
 549 0004 C264     		str	r2, [r0, #76]
 550              	.LVL32:
 551              	.LBE33:
 552              	.LBE32:
 553              		.loc 1 450 0
 554 0006 5968     		ldr	r1, [r3, #4]
 555              		.loc 1 451 0
 556 0008 0022     		movs	r2, #0
 557              		.loc 1 450 0
 558 000a 5960     		str	r1, [r3, #4]
 559              		.loc 1 451 0
 560 000c 5A60     		str	r2, [r3, #4]
ARM GAS  C:\DOCUME~1\z_80\LOCALS~1\Temp\cc0FNNDd.s 			page 11


 561              	.LVL33:
 562              		.loc 1 450 0
 563 000e 9868     		ldr	r0, [r3, #8]
 564              	.LVL34:
 565 0010 9860     		str	r0, [r3, #8]
 566              		.loc 1 451 0
 567 0012 9A60     		str	r2, [r3, #8]
 568              	.LVL35:
 569              		.loc 1 450 0
 570 0014 D968     		ldr	r1, [r3, #12]
 571 0016 D960     		str	r1, [r3, #12]
 572              		.loc 1 451 0
 573 0018 DA60     		str	r2, [r3, #12]
 574              	.LVL36:
 575              		.loc 1 450 0
 576 001a 1869     		ldr	r0, [r3, #16]
 577 001c 1861     		str	r0, [r3, #16]
 578              		.loc 1 451 0
 579 001e 1A61     		str	r2, [r3, #16]
 580              	.LVL37:
 581              		.loc 1 450 0
 582 0020 5969     		ldr	r1, [r3, #20]
 583 0022 5961     		str	r1, [r3, #20]
 584              		.loc 1 451 0
 585 0024 5A61     		str	r2, [r3, #20]
 586              	.LVL38:
 587              		.loc 1 450 0
 588 0026 9869     		ldr	r0, [r3, #24]
 589 0028 9861     		str	r0, [r3, #24]
 590              		.loc 1 451 0
 591 002a 9A61     		str	r2, [r3, #24]
 592              	.LVL39:
 593              		.loc 1 450 0
 594 002c D969     		ldr	r1, [r3, #28]
 595 002e D961     		str	r1, [r3, #28]
 596              		.loc 1 451 0
 597 0030 DA61     		str	r2, [r3, #28]
 598              	.LVL40:
 599              		.loc 1 453 0
 600 0032 7047     		bx	lr
 601              	.L41:
 602              		.align	2
 603              	.L40:
 604 0034 005C0040 		.word	1073765376
 605              		.cfi_endproc
 606              	.LFE65:
 607              		.size	usb_lld_disable_endpoints, .-usb_lld_disable_endpoints
 608 0038 AFF30080 		.section	.text.usb_lld_get_status_out,"ax",%progbits
 608      AFF30080 
 609              		.align	2
 610              		.p2align 4,,15
 611              		.global	usb_lld_get_status_out
 612              		.thumb
 613              		.thumb_func
 614              		.type	usb_lld_get_status_out, %function
 615              	usb_lld_get_status_out:
 616              	.LFB66:
ARM GAS  C:\DOCUME~1\z_80\LOCALS~1\Temp\cc0FNNDd.s 			page 12


 617              		.loc 1 467 0
 618              		.cfi_startproc
 619              		@ args = 0, pretend = 0, frame = 0
 620              		@ frame_needed = 0, uses_anonymous_args = 0
 621              		@ link register save eliminated.
 622              	.LVL41:
 623              		.loc 1 470 0
 624 0000 054B     		ldr	r3, .L47
 625 0002 53F82100 		ldr	r0, [r3, r1, lsl #2]
 626              	.LVL42:
 627 0006 10F44050 		ands	r0, r0, #12288
 628 000a 04D0     		beq	.L45
 629              		.loc 1 476 0
 630 000c B0F5805F 		cmp	r0, #4096
 631 0010 0CBF     		ite	eq
 632 0012 0120     		moveq	r0, #1
 633 0014 0220     		movne	r0, #2
 634              	.L45:
 635              		.loc 1 478 0
 636 0016 7047     		bx	lr
 637              	.L48:
 638              		.align	2
 639              	.L47:
 640 0018 005C0040 		.word	1073765376
 641              		.cfi_endproc
 642              	.LFE66:
 643              		.size	usb_lld_get_status_out, .-usb_lld_get_status_out
 644 001c AFF30080 		.section	.text.usb_lld_get_status_in,"ax",%progbits
 645              		.align	2
 646              		.p2align 4,,15
 647              		.global	usb_lld_get_status_in
 648              		.thumb
 649              		.thumb_func
 650              		.type	usb_lld_get_status_in, %function
 651              	usb_lld_get_status_in:
 652              	.LFB67:
 653              		.loc 1 492 0
 654              		.cfi_startproc
 655              		@ args = 0, pretend = 0, frame = 0
 656              		@ frame_needed = 0, uses_anonymous_args = 0
 657              		@ link register save eliminated.
 658              	.LVL43:
 659              		.loc 1 495 0
 660 0000 054B     		ldr	r3, .L52
 661 0002 53F82110 		ldr	r1, [r3, r1, lsl #2]
 662              	.LVL44:
 663 0006 01F03003 		and	r3, r1, #48
 664 000a 102B     		cmp	r3, #16
 665 000c 9ABF     		itte	ls
 666 000e 034A     		ldrls	r2, .L52+4
 667 0010 D05C     		ldrbls	r0, [r2, r3]	@ zero_extendqisi2
 668              	.LVL45:
 669 0012 0220     		movhi	r0, #2
 670              		.loc 1 503 0
 671 0014 7047     		bx	lr
 672              	.L53:
 673 0016 00BF     		.align	2
ARM GAS  C:\DOCUME~1\z_80\LOCALS~1\Temp\cc0FNNDd.s 			page 13


 674              	.L52:
 675 0018 005C0040 		.word	1073765376
 676 001c 00000000 		.word	.LANCHOR3
 677              		.cfi_endproc
 678              	.LFE67:
 679              		.size	usb_lld_get_status_in, .-usb_lld_get_status_in
 680              		.section	.text.usb_lld_read_setup,"ax",%progbits
 681              		.align	2
 682              		.p2align 4,,15
 683              		.global	usb_lld_read_setup
 684              		.thumb
 685              		.thumb_func
 686              		.type	usb_lld_read_setup, %function
 687              	usb_lld_read_setup:
 688              	.LFB68:
 689              		.loc 1 519 0
 690              		.cfi_startproc
 691              		@ args = 0, pretend = 0, frame = 0
 692              		@ frame_needed = 0, uses_anonymous_args = 0
 693              		@ link register save eliminated.
 694              	.LVL46:
 695              		.loc 1 525 0
 696 0000 0F4B     		ldr	r3, .L55
 697              		.loc 1 519 0
 698 0002 10B4     		push	{r4}
 699              	.LCFI5:
 700              		.cfi_def_cfa_offset 4
 701              		.loc 1 525 0
 702 0004 1C6D     		ldr	r4, [r3, #80]
 703              		.cfi_offset 4, -4
 704              		.loc 1 528 0
 705 0006 1346     		mov	r3, r2
 706              		.loc 1 525 0
 707 0008 04F10050 		add	r0, r4, #536870912
 708              	.LVL47:
 709 000c 00F5405C 		add	ip, r0, #12288
 710 0010 0CEBC104 		add	r4, ip, r1, lsl #3
 711 0014 6100     		lsls	r1, r4, #1
 712              	.LVL48:
 713              		.loc 1 526 0
 714 0016 8868     		ldr	r0, [r1, #8]
 715 0018 00F1005C 		add	ip, r0, #536870912
 716 001c 0CF54054 		add	r4, ip, #12288
 717 0020 6100     		lsls	r1, r4, #1
 718              	.LVL49:
 719              		.loc 1 528 0
 720 0022 8C46     		mov	ip, r1
 721 0024 5CF8044B 		ldr	r4, [ip], #4
 722 0028 8888     		ldrh	r0, [r1, #4]
 723 002a 23F8024B 		strh	r4, [r3], #2	@ movhi
 724              	.LVL50:
 725 002e BCF80810 		ldrh	r1, [ip, #8]
 726 0032 5080     		strh	r0, [r2, #2]	@ movhi
 727 0034 BCF80420 		ldrh	r2, [ip, #4]
 728 0038 9980     		strh	r1, [r3, #4]	@ movhi
 729 003a 5A80     		strh	r2, [r3, #2]	@ movhi
 730              	.LVL51:
ARM GAS  C:\DOCUME~1\z_80\LOCALS~1\Temp\cc0FNNDd.s 			page 14


 731              		.loc 1 531 0
 732 003c 10BC     		pop	{r4}
 733 003e 7047     		bx	lr
 734              	.L56:
 735              		.align	2
 736              	.L55:
 737 0040 005C0040 		.word	1073765376
 738              		.cfi_endproc
 739              	.LFE68:
 740              		.size	usb_lld_read_setup, .-usb_lld_read_setup
 741 0044 AFF30080 		.section	.text.usb_lld_read_packet_buffer,"ax",%progbits
 741      AFF30080 
 741      AFF30080 
 742              		.align	2
 743              		.p2align 4,,15
 744              		.global	usb_lld_read_packet_buffer
 745              		.thumb
 746              		.thumb_func
 747              		.type	usb_lld_read_packet_buffer, %function
 748              	usb_lld_read_packet_buffer:
 749              	.LFB69:
 750              		.loc 1 551 0
 751              		.cfi_startproc
 752              		@ args = 0, pretend = 0, frame = 0
 753              		@ frame_needed = 0, uses_anonymous_args = 0
 754              		@ link register save eliminated.
 755              	.LVL52:
 756              		.loc 1 557 0
 757 0000 1B48     		ldr	r0, .L66
 758              	.LVL53:
 759              		.loc 1 551 0
 760 0002 F0B4     		push	{r4, r5, r6, r7}
 761              	.LCFI6:
 762              		.cfi_def_cfa_offset 16
 763              		.loc 1 557 0
 764 0004 006D     		ldr	r0, [r0, #80]
 765 0006 00F10050 		add	r0, r0, #536870912
 766 000a 00F5405C 		add	ip, r0, #12288
 767 000e 0CEBC101 		add	r1, ip, r1, lsl #3
 768              	.LVL54:
 769 0012 4800     		lsls	r0, r1, #1
 770              	.LVL55:
 771              		.loc 1 558 0
 772 0014 8168     		ldr	r1, [r0, #8]
 773              	.LVL56:
 774              		.loc 1 559 0
 775 0016 8089     		ldrh	r0, [r0, #12]
 776              	.LVL57:
 777 0018 8005     		lsls	r0, r0, #22
 778 001a 800D     		lsrs	r0, r0, #22
 779              	.LVL58:
 780              		.loc 1 562 0
 781 001c 8342     		cmp	r3, r0
 782 001e 28BF     		it	cs
 783 0020 0346     		movcs	r3, r0
 784              	.LVL59:
 785 0022 0133     		adds	r3, r3, #1
ARM GAS  C:\DOCUME~1\z_80\LOCALS~1\Temp\cc0FNNDd.s 			page 15


 786              	.LVL60:
 787              		.loc 1 563 0
 788 0024 5B08     		lsrs	r3, r3, #1
 789              	.LVL61:
 790 0026 20D0     		beq	.L58
 791              		.cfi_offset 7, -4
 792              		.cfi_offset 6, -8
 793              		.cfi_offset 5, -12
 794              		.cfi_offset 4, -16
 795              		.loc 1 558 0
 796 0028 01F10051 		add	r1, r1, #536870912
 797              	.LVL62:
 798 002c 01F54055 		add	r5, r1, #12288
 799              		.loc 1 564 0
 800 0030 6900     		lsls	r1, r5, #1
 801              	.LVL63:
 802 0032 5C1E     		subs	r4, r3, #1
 803 0034 51F8045B 		ldr	r5, [r1], #4
 804              	.LVL64:
 805              		.loc 1 563 0
 806 0038 2346     		mov	r3, r4
 807              	.LVL65:
 808              		.loc 1 564 0
 809 003a 22F8025B 		strh	r5, [r2], #2	@ movhi
 810              	.LVL66:
 811 003e 04F00104 		and	r4, r4, #1
 812              		.loc 1 563 0
 813 0042 93B1     		cbz	r3, .L58
 814 0044 2CB1     		cbz	r4, .L59
 815              		.loc 1 564 0
 816 0046 51F8044B 		ldr	r4, [r1], #4
 817              		.loc 1 563 0
 818 004a 013B     		subs	r3, r3, #1
 819              		.loc 1 564 0
 820 004c 22F8024B 		strh	r4, [r2], #2	@ movhi
 821              		.loc 1 563 0
 822 0050 0BD0     		beq	.L58
 823              	.L59:
 824              		.loc 1 564 0
 825 0052 0D46     		mov	r5, r1
 826 0054 55F8047B 		ldr	r7, [r5], #4
 827 0058 4E68     		ldr	r6, [r1, #4]
 828 005a 1446     		mov	r4, r2
 829 005c 24F8027B 		strh	r7, [r4], #2	@ movhi
 830 0060 291D     		adds	r1, r5, #4
 831 0062 5680     		strh	r6, [r2, #2]	@ movhi
 832              		.loc 1 565 0
 833 0064 A21C     		adds	r2, r4, #2
 834              		.loc 1 563 0
 835 0066 023B     		subs	r3, r3, #2
 836 0068 F3D1     		bne	.L59
 837              	.L58:
 838              		.loc 1 569 0
 839 006a F0BC     		pop	{r4, r5, r6, r7}
 840 006c 7047     		bx	lr
 841              	.L67:
 842 006e 00BF     		.align	2
ARM GAS  C:\DOCUME~1\z_80\LOCALS~1\Temp\cc0FNNDd.s 			page 16


 843              	.L66:
 844 0070 005C0040 		.word	1073765376
 845              		.cfi_endproc
 846              	.LFE69:
 847              		.size	usb_lld_read_packet_buffer, .-usb_lld_read_packet_buffer
 848 0074 AFF30080 		.section	.text.usb_lld_write_packet_buffer,"ax",%progbits
 848      AFF30080 
 848      AFF30080 
 849              		.align	2
 850              		.p2align 4,,15
 851              		.global	usb_lld_write_packet_buffer
 852              		.thumb
 853              		.thumb_func
 854              		.type	usb_lld_write_packet_buffer, %function
 855              	usb_lld_write_packet_buffer:
 856              	.LFB70:
 857              		.loc 1 586 0
 858              		.cfi_startproc
 859              		@ args = 0, pretend = 0, frame = 0
 860              		@ frame_needed = 0, uses_anonymous_args = 0
 861              		@ link register save eliminated.
 862              	.LVL67:
 863              		.loc 1 591 0
 864 0000 1848     		ldr	r0, .L77
 865              	.LVL68:
 866              		.loc 1 586 0
 867 0002 70B4     		push	{r4, r5, r6}
 868              	.LCFI7:
 869              		.cfi_def_cfa_offset 12
 870              		.loc 1 591 0
 871 0004 046D     		ldr	r4, [r0, #80]
 872              		.cfi_offset 6, -4
 873              		.cfi_offset 5, -8
 874              		.cfi_offset 4, -12
 875 0006 04F10050 		add	r0, r4, #536870912
 876 000a 00F5405C 		add	ip, r0, #12288
 877 000e 0CEBC104 		add	r4, ip, r1, lsl #3
 878              		.loc 1 594 0
 879 0012 591C     		adds	r1, r3, #1
 880              	.LVL69:
 881              		.loc 1 591 0
 882 0014 6000     		lsls	r0, r4, #1
 883              	.LVL70:
 884              		.loc 1 595 0
 885 0016 4908     		lsrs	r1, r1, #1
 886              		.loc 1 592 0
 887 0018 0468     		ldr	r4, [r0, #0]
 888              	.LVL71:
 889              		.loc 1 593 0
 890 001a 8380     		strh	r3, [r0, #4]	@ movhi
 891              		.loc 1 595 0
 892 001c 20D0     		beq	.L68
 893              		.loc 1 592 0
 894 001e 04F1005C 		add	ip, r4, #536870912
 895 0022 0139     		subs	r1, r1, #1
 896 0024 0CF54053 		add	r3, ip, #12288
 897              		.loc 1 596 0
ARM GAS  C:\DOCUME~1\z_80\LOCALS~1\Temp\cc0FNNDd.s 			page 17


 898 0028 32F8020B 		ldrh	r0, [r2], #2
 899              	.LVL72:
 900 002c 5C00     		lsls	r4, r3, #1
 901              	.LVL73:
 902              		.loc 1 595 0
 903 002e 0B46     		mov	r3, r1
 904              		.loc 1 596 0
 905 0030 44F8040B 		str	r0, [r4], #4
 906              	.LVL74:
 907 0034 01F00101 		and	r1, r1, #1
 908              		.loc 1 595 0
 909 0038 93B1     		cbz	r3, .L68
 910 003a 29B1     		cbz	r1, .L70
 911              		.loc 1 596 0
 912 003c 32F8021B 		ldrh	r1, [r2], #2
 913              		.loc 1 595 0
 914 0040 013B     		subs	r3, r3, #1
 915              		.loc 1 596 0
 916 0042 44F8041B 		str	r1, [r4], #4
 917              		.loc 1 595 0
 918 0046 0BD0     		beq	.L68
 919              	.L70:
 920              		.loc 1 596 0
 921 0048 1046     		mov	r0, r2
 922 004a 30F8026B 		ldrh	r6, [r0], #2
 923 004e 5588     		ldrh	r5, [r2, #2]
 924 0050 2146     		mov	r1, r4
 925 0052 41F8046B 		str	r6, [r1], #4
 926 0056 821C     		adds	r2, r0, #2
 927 0058 6560     		str	r5, [r4, #4]
 928 005a 0C1D     		adds	r4, r1, #4
 929              		.loc 1 595 0
 930 005c 023B     		subs	r3, r3, #2
 931 005e F3D1     		bne	.L70
 932              	.L68:
 933              		.loc 1 600 0
 934 0060 70BC     		pop	{r4, r5, r6}
 935 0062 7047     		bx	lr
 936              	.L78:
 937              		.align	2
 938              	.L77:
 939 0064 005C0040 		.word	1073765376
 940              		.cfi_endproc
 941              	.LFE70:
 942              		.size	usb_lld_write_packet_buffer, .-usb_lld_write_packet_buffer
 943 0068 AFF30080 		.section	.text.Vector90,"ax",%progbits
 943      AFF30080 
 944              		.align	2
 945              		.p2align 4,,15
 946              		.global	Vector90
 947              		.thumb
 948              		.thumb_func
 949              		.type	Vector90, %function
 950              	Vector90:
 951              	.LFB58:
 952              		.loc 1 141 0
 953              		.cfi_startproc
ARM GAS  C:\DOCUME~1\z_80\LOCALS~1\Temp\cc0FNNDd.s 			page 18


 954              		@ args = 0, pretend = 0, frame = 0
 955              		@ frame_needed = 0, uses_anonymous_args = 0
 956              	.LVL75:
 957 0000 2DE9F04F 		push	{r4, r5, r6, r7, r8, r9, sl, fp, lr}
 958              	.LCFI8:
 959              		.cfi_def_cfa_offset 36
 960 0004 81B0     		sub	sp, sp, #4
 961              	.LCFI9:
 962              		.cfi_def_cfa_offset 40
 963              		.loc 1 146 0
 964              		.cfi_offset 14, -4
 965              		.cfi_offset 11, -8
 966              		.cfi_offset 10, -12
 967              		.cfi_offset 9, -16
 968              		.cfi_offset 8, -20
 969              		.cfi_offset 7, -24
 970              		.cfi_offset 6, -28
 971              		.cfi_offset 5, -32
 972              		.cfi_offset 4, -36
 973 0006 FFF7FEFF 		bl	dbg_check_enter_isr
 974              		.loc 1 148 0
 975 000a 904B     		ldr	r3, .L102
 976 000c 5C6C     		ldr	r4, [r3, #68]
 977              	.LVL76:
 978              		.loc 1 151 0
 979 000e 14F4806F 		tst	r4, #1024
 980 0012 40F00C81 		bne	.L98
 981              	.L80:
 982              		.loc 1 158 0
 983 0016 14F4006F 		tst	r4, #2048
 984 001a 0ED0     		beq	.L82
 985              		.loc 1 160 0
 986 001c 8C48     		ldr	r0, .L102+4
 987              		.loc 1 159 0
 988 001e 8B4A     		ldr	r2, .L102
 989              		.loc 1 160 0
 990 0020 4368     		ldr	r3, [r0, #4]
 991              		.loc 1 159 0
 992 0022 116C     		ldr	r1, [r2, #64]
 993              		.loc 1 160 0
 994 0024 1B68     		ldr	r3, [r3, #0]
 995              		.loc 1 159 0
 996 0026 41F00801 		orr	r1, r1, #8
 997 002a 1164     		str	r1, [r2, #64]
 998              		.loc 1 160 0
 999 002c 0BB1     		cbz	r3, .L83
 1000              		.loc 1 160 0 is_stmt 0 discriminator 1
 1001 002e 0321     		movs	r1, #3
 1002 0030 9847     		blx	r3
 1003              	.L83:
 1004              		.loc 1 164 0 is_stmt 1
 1005 0032 864A     		ldr	r2, .L102
 1006 0034 6FF40060 		mvn	r0, #2048
 1007 0038 5064     		str	r0, [r2, #68]
 1008              	.L82:
 1009              		.loc 1 168 0
 1010 003a 14F4805F 		tst	r4, #4096
ARM GAS  C:\DOCUME~1\z_80\LOCALS~1\Temp\cc0FNNDd.s 			page 19


 1011 003e 09D0     		beq	.L84
 1012              	.LBB34:
 1013              		.loc 1 169 0
 1014 0040 824A     		ldr	r2, .L102
 1015 0042 916C     		ldr	r1, [r2, #72]
 1016              	.LVL77:
 1017              		.loc 1 170 0
 1018 0044 11F4004F 		tst	r1, #32768
 1019 0048 00F0E480 		beq	.L99
 1020              	.LVL78:
 1021              	.L85:
 1022              		.loc 1 181 0
 1023 004c 7F4A     		ldr	r2, .L102
 1024 004e 6FF48050 		mvn	r0, #4096
 1025 0052 5064     		str	r0, [r2, #68]
 1026              	.L84:
 1027              	.LBE34:
 1028              		.loc 1 185 0
 1029 0054 14F4007F 		tst	r4, #512
 1030 0058 08D0     		beq	.L86
 1031              		.loc 1 186 0
 1032 005a 7D48     		ldr	r0, .L102+4
 1033 005c 4368     		ldr	r3, [r0, #4]
 1034 005e DB68     		ldr	r3, [r3, #12]
 1035 0060 03B1     		cbz	r3, .L87
 1036              		.loc 1 186 0 is_stmt 0 discriminator 1
 1037 0062 9847     		blx	r3
 1038              	.L87:
 1039              		.loc 1 187 0 is_stmt 1
 1040 0064 7948     		ldr	r0, .L102
 1041 0066 6FF40071 		mvn	r1, #512
 1042 006a 4164     		str	r1, [r0, #68]
 1043              	.L86:
 1044              		.loc 1 191 0 discriminator 1
 1045 006c 14F4004F 		tst	r4, #32768
 1046 0070 00F0A480 		beq	.L88
 1047 0074 DFF8D891 		ldr	r9, .L102+4
 1048              	.LBB35:
 1049              		.loc 1 193 0
 1050 0078 744D     		ldr	r5, .L102
 1051              		.loc 1 194 0
 1052 007a CA46     		mov	sl, r9
 1053 007c 13E0     		b	.L96
 1054              	.LVL79:
 1055              	.L101:
 1056              		.loc 1 234 0
 1057 007e 0120     		movs	r0, #1
 1058 0080 10FA04F1 		lsls	r1, r0, r4
 1059 0084 B9F80EE0 		ldrh	lr, [r9, #14]
 1060 0088 59F82830 		ldr	r3, [r9, r8, lsl #2]
 1061 008c 2EEA010C 		bic	ip, lr, r1
 1062 0090 A9F80EC0 		strh	ip, [r9, #14]	@ movhi
 1063 0094 DA68     		ldr	r2, [r3, #12]
 1064 0096 6E48     		ldr	r0, .L102+4
 1065 0098 2146     		mov	r1, r4
 1066 009a 9047     		blx	r2
 1067              	.LVL80:
ARM GAS  C:\DOCUME~1\z_80\LOCALS~1\Temp\cc0FNNDd.s 			page 20


 1068              	.L92:
 1069              		.loc 1 256 0
 1070 009c 6C6C     		ldr	r4, [r5, #68]
 1071              	.LVL81:
 1072              	.LBE35:
 1073              		.loc 1 191 0
 1074 009e 14F4004F 		tst	r4, #32768
 1075 00a2 00F08B80 		beq	.L88
 1076              	.LVL82:
 1077              	.L96:
 1078              	.LBB46:
 1079              		.loc 1 193 0
 1080 00a6 04F00F04 		and	r4, r4, #15
 1081              	.LVL83:
 1082 00aa 55F82460 		ldr	r6, [r5, r4, lsl #2]
 1083              	.LVL84:
 1084              		.loc 1 194 0
 1085 00ae 04F10408 		add	r8, r4, #4
 1086              		.loc 1 196 0
 1087 00b2 16F0800F 		tst	r6, #128
 1088              		.loc 1 194 0
 1089 00b6 59F82870 		ldr	r7, [r9, r8, lsl #2]
 1090              	.LVL85:
 1091              		.loc 1 196 0
 1092 00ba 3AD0     		beq	.L89
 1093              		.loc 1 198 0
 1094 00bc 55F82410 		ldr	r1, [r5, r4, lsl #2]
 1095 00c0 21F4F04C 		bic	ip, r1, #30720
 1096 00c4 2CF0F003 		bic	r3, ip, #240
 1097 00c8 45F82430 		str	r3, [r5, r4, lsl #2]
 1098              		.loc 1 199 0
 1099 00cc 3A68     		ldr	r2, [r7, #0]
 1100 00ce 12F0100F 		tst	r2, #16
 1101 00d2 7AD1     		bne	.L91
 1102              		.loc 1 205 0
 1103 00d4 2B6D     		ldr	r3, [r5, #80]
 1104              		.loc 1 206 0
 1105 00d6 7969     		ldr	r1, [r7, #20]
 1106              		.loc 1 205 0
 1107 00d8 03F10052 		add	r2, r3, #536870912
 1108 00dc 02F5405E 		add	lr, r2, #12288
 1109 00e0 0EEBC400 		add	r0, lr, r4, lsl #3
 1110 00e4 4300     		lsls	r3, r0, #1
 1111 00e6 B3F804C0 		ldrh	ip, [r3, #4]
 1112              		.loc 1 206 0
 1113 00ea 0A68     		ldr	r2, [r1, #0]
 1114              		.loc 1 207 0
 1115 00ec 8868     		ldr	r0, [r1, #8]
 1116              		.loc 1 208 0
 1117 00ee D1F804E0 		ldr	lr, [r1, #4]
 1118              		.loc 1 205 0
 1119 00f2 1FFA8CF3 		uxth	r3, ip
 1120              	.LVL86:
 1121              		.loc 1 206 0
 1122 00f6 D218     		adds	r2, r2, r3
 1123              		.loc 1 207 0
 1124 00f8 C018     		adds	r0, r0, r3
ARM GAS  C:\DOCUME~1\z_80\LOCALS~1\Temp\cc0FNNDd.s 			page 21


 1125              		.loc 1 208 0
 1126 00fa C3EB0E03 		rsb	r3, r3, lr
 1127              	.LVL87:
 1128              		.loc 1 206 0
 1129 00fe 0A60     		str	r2, [r1, #0]
 1130              		.loc 1 207 0
 1131 0100 8860     		str	r0, [r1, #8]
 1132              		.loc 1 208 0
 1133 0102 4B60     		str	r3, [r1, #4]
 1134              		.loc 1 209 0
 1135 0104 002B     		cmp	r3, #0
 1136 0106 60D0     		beq	.L91
 1137              		.loc 1 211 0
 1138 0108 B7F810E0 		ldrh	lr, [r7, #16]
 1139              		.loc 1 215 0
 1140 010c 5FFA84FB 		uxtb	fp, r4
 1141 0110 4F48     		ldr	r0, .L102+4
 1142 0112 5946     		mov	r1, fp
 1143 0114 7345     		cmp	r3, lr
 1144 0116 28BF     		it	cs
 1145 0118 7346     		movcs	r3, lr
 1146              	.LVL88:
 1147 011a FFF7FEFF 		bl	usb_lld_write_packet_buffer
 1148              	.LVL89:
 1149              	.LBB44:
 1150              	.LBB45:
 1151              		.loc 1 675 0
 1152 011e 55F82B20 		ldr	r2, [r5, fp, lsl #2]
 1153 0122 22F4F040 		bic	r0, r2, #30720
 1154 0126 20F0400C 		bic	ip, r0, #64
 1155 012a 8CF03001 		eor	r1, ip, #48
 1156 012e 45F82B10 		str	r1, [r5, fp, lsl #2]
 1157              	.LVL90:
 1158              	.L89:
 1159              	.LBE45:
 1160              	.LBE44:
 1161              		.loc 1 224 0
 1162 0132 16F4004F 		tst	r6, #32768
 1163 0136 B1D0     		beq	.L92
 1164              		.loc 1 225 0
 1165 0138 55F82410 		ldr	r1, [r5, r4, lsl #2]
 1166              		.loc 1 227 0
 1167 013c 16F4006F 		tst	r6, #2048
 1168              		.loc 1 225 0
 1169 0140 21F4784E 		bic	lr, r1, #63488
 1170 0144 2EF07003 		bic	r3, lr, #112
 1171 0148 45F82430 		str	r3, [r5, r4, lsl #2]
 1172              		.loc 1 227 0
 1173 014c 4BD1     		bne	.L100
 1174              		.loc 1 232 0
 1175 014e 3868     		ldr	r0, [r7, #0]
 1176 0150 10F0100F 		tst	r0, #16
 1177 0154 93D1     		bne	.L101
 1178              		.loc 1 239 0
 1179 0156 BB69     		ldr	r3, [r7, #24]
 1180              		.loc 1 238 0
 1181 0158 E6B2     		uxtb	r6, r4
ARM GAS  C:\DOCUME~1\z_80\LOCALS~1\Temp\cc0FNNDd.s 			page 22


 1182              	.LVL91:
 1183 015a 5A68     		ldr	r2, [r3, #4]
 1184 015c 3146     		mov	r1, r6
 1185 015e 9B68     		ldr	r3, [r3, #8]
 1186 0160 3B48     		ldr	r0, .L102+4
 1187 0162 FFF7FEFF 		bl	usb_lld_read_packet_buffer
 1188              	.LVL92:
 1189              		.loc 1 242 0
 1190 0166 BB69     		ldr	r3, [r7, #24]
 1191              	.LBB39:
 1192              	.LBB41:
 1193              		.loc 1 660 0
 1194 0168 55F826E0 		ldr	lr, [r5, r6, lsl #2]
 1195              	.LBE41:
 1196              	.LBE39:
 1197              		.loc 1 245 0
 1198 016c 1A88     		ldrh	r2, [r3, #0]
 1199              		.loc 1 242 0
 1200 016e 5F68     		ldr	r7, [r3, #4]
 1201              	.LVL93:
 1202              		.loc 1 243 0
 1203 0170 D968     		ldr	r1, [r3, #12]
 1204              		.loc 1 244 0
 1205 0172 D3F808C0 		ldr	ip, [r3, #8]
 1206              	.LBB38:
 1207              	.LBB42:
 1208              		.loc 1 660 0
 1209 0176 2EF4904E 		bic	lr, lr, #18432
 1210 017a 2EF0700E 		bic	lr, lr, #112
 1211              	.LBE42:
 1212              	.LBE38:
 1213              		.loc 1 245 0
 1214 017e 013A     		subs	r2, r2, #1
 1215              		.loc 1 242 0
 1216 0180 3F18     		adds	r7, r7, r0
 1217              		.loc 1 243 0
 1218 0182 0918     		adds	r1, r1, r0
 1219              	.LBB37:
 1220              	.LBB40:
 1221              		.loc 1 660 0
 1222 0184 8EF4405E 		eor	lr, lr, #12288
 1223              	.LBE40:
 1224              	.LBE37:
 1225              		.loc 1 244 0
 1226 0188 C0EB0C00 		rsb	r0, r0, ip
 1227              	.LVL94:
 1228              		.loc 1 245 0
 1229 018c 92B2     		uxth	r2, r2
 1230              	.LBB36:
 1231              	.LBB43:
 1232              		.loc 1 660 0
 1233 018e 45F826E0 		str	lr, [r5, r6, lsl #2]
 1234              	.LBE43:
 1235              	.LBE36:
 1236              		.loc 1 242 0
 1237 0192 5F60     		str	r7, [r3, #4]
 1238              		.loc 1 243 0
ARM GAS  C:\DOCUME~1\z_80\LOCALS~1\Temp\cc0FNNDd.s 			page 23


 1239 0194 D960     		str	r1, [r3, #12]
 1240              		.loc 1 244 0
 1241 0196 9860     		str	r0, [r3, #8]
 1242              		.loc 1 245 0
 1243 0198 1A80     		strh	r2, [r3, #0]	@ movhi
 1244              		.loc 1 246 0
 1245 019a 002A     		cmp	r2, #0
 1246 019c 2AD0     		beq	.L95
 1247              		.loc 1 248 0
 1248 019e 55F82420 		ldr	r2, [r5, r4, lsl #2]
 1249 01a2 22F49041 		bic	r1, r2, #18432
 1250 01a6 21F0700C 		bic	ip, r1, #112
 1251 01aa 8CF44050 		eor	r0, ip, #12288
 1252 01ae 45F82400 		str	r0, [r5, r4, lsl #2]
 1253              		.loc 1 256 0
 1254 01b2 6C6C     		ldr	r4, [r5, #68]
 1255              	.LVL95:
 1256              	.LBE46:
 1257              		.loc 1 191 0
 1258 01b4 14F4004F 		tst	r4, #32768
 1259 01b8 7FF475AF 		bne	.L96
 1260              	.LVL96:
 1261              	.L88:
 1262              		.loc 1 259 0
 1263 01bc FFF7FEFF 		bl	dbg_check_leave_isr
 1264              		.loc 1 260 0
 1265 01c0 01B0     		add	sp, sp, #4
 1266 01c2 BDE8F04F 		pop	{r4, r5, r6, r7, r8, r9, sl, fp, lr}
 1267              		.loc 1 259 0
 1268 01c6 FFF7FEBF 		b	_port_irq_epilogue
 1269              	.LVL97:
 1270              	.L91:
 1271              	.LBB47:
 1272              		.loc 1 220 0
 1273 01ca 0122     		movs	r2, #1
 1274 01cc 12FA04F0 		lsls	r0, r2, r4
 1275 01d0 BAF80CC0 		ldrh	ip, [sl, #12]
 1276 01d4 BB68     		ldr	r3, [r7, #8]
 1277 01d6 2CEA0001 		bic	r1, ip, r0
 1278 01da AAF80C10 		strh	r1, [sl, #12]	@ movhi
 1279 01de 1C48     		ldr	r0, .L102+4
 1280 01e0 2146     		mov	r1, r4
 1281 01e2 9847     		blx	r3
 1282 01e4 A5E7     		b	.L89
 1283              	.L100:
 1284              		.loc 1 230 0
 1285 01e6 59F82830 		ldr	r3, [r9, r8, lsl #2]
 1286 01ea 1948     		ldr	r0, .L102+4
 1287 01ec 5A68     		ldr	r2, [r3, #4]
 1288 01ee 2146     		mov	r1, r4
 1289 01f0 9047     		blx	r2
 1290 01f2 53E7     		b	.L92
 1291              	.LVL98:
 1292              	.L95:
 1293              		.loc 1 252 0
 1294 01f4 0121     		movs	r1, #1
 1295 01f6 11FA04F0 		lsls	r0, r1, r4
ARM GAS  C:\DOCUME~1\z_80\LOCALS~1\Temp\cc0FNNDd.s 			page 24


 1296 01fa BAF80EC0 		ldrh	ip, [sl, #14]
 1297 01fe 5AF82830 		ldr	r3, [sl, r8, lsl #2]
 1298 0202 2CEA000E 		bic	lr, ip, r0
 1299 0206 AAF80EE0 		strh	lr, [sl, #14]	@ movhi
 1300 020a DC68     		ldr	r4, [r3, #12]
 1301              	.LVL99:
 1302 020c 1048     		ldr	r0, .L102+4
 1303 020e 3146     		mov	r1, r6
 1304 0210 A047     		blx	r4
 1305 0212 43E7     		b	.L92
 1306              	.LVL100:
 1307              	.L99:
 1308              	.LBE47:
 1309              	.LBB48:
 1310              		.loc 1 172 0
 1311 0214 0E48     		ldr	r0, .L102+4
 1312              		.loc 1 171 0
 1313 0216 116C     		ldr	r1, [r2, #64]
 1314              	.LVL101:
 1315              		.loc 1 172 0
 1316 0218 4368     		ldr	r3, [r0, #4]
 1317              		.loc 1 171 0
 1318 021a 21F00801 		bic	r1, r1, #8
 1319              		.loc 1 172 0
 1320 021e 1B68     		ldr	r3, [r3, #0]
 1321              		.loc 1 171 0
 1322 0220 1164     		str	r1, [r2, #64]
 1323              		.loc 1 172 0
 1324 0222 002B     		cmp	r3, #0
 1325 0224 3FF412AF 		beq	.L85
 1326              		.loc 1 172 0 is_stmt 0 discriminator 1
 1327 0228 0421     		movs	r1, #4
 1328 022a 9847     		blx	r3
 1329 022c 0EE7     		b	.L85
 1330              	.L98:
 1331              	.LBE48:
 1332              		.loc 1 144 0 is_stmt 1
 1333 022e 084D     		ldr	r5, .L102+4
 1334              		.loc 1 152 0
 1335 0230 2846     		mov	r0, r5
 1336 0232 FFF7FEFF 		bl	_usb_reset
 1337              		.loc 1 153 0
 1338 0236 6868     		ldr	r0, [r5, #4]
 1339 0238 0368     		ldr	r3, [r0, #0]
 1340 023a 13B1     		cbz	r3, .L81
 1341              		.loc 1 153 0 is_stmt 0 discriminator 1
 1342 023c 2846     		mov	r0, r5
 1343 023e 0021     		movs	r1, #0
 1344 0240 9847     		blx	r3
 1345              	.L81:
 1346              		.loc 1 154 0 is_stmt 1
 1347 0242 0249     		ldr	r1, .L102
 1348 0244 6FF48062 		mvn	r2, #1024
 1349 0248 4A64     		str	r2, [r1, #68]
 1350 024a E4E6     		b	.L80
 1351              	.L103:
 1352              		.align	2
ARM GAS  C:\DOCUME~1\z_80\LOCALS~1\Temp\cc0FNNDd.s 			page 25


 1353              	.L102:
 1354 024c 005C0040 		.word	1073765376
 1355 0250 00000000 		.word	.LANCHOR0
 1356              		.cfi_endproc
 1357              	.LFE58:
 1358              		.size	Vector90, .-Vector90
 1359 0254 AFF30080 		.section	.text.usb_lld_prepare_receive,"ax",%progbits
 1359      AFF30080 
 1359      AFF30080 
 1360              		.align	2
 1361              		.p2align 4,,15
 1362              		.global	usb_lld_prepare_receive
 1363              		.thumb
 1364              		.thumb_func
 1365              		.type	usb_lld_prepare_receive, %function
 1366              	usb_lld_prepare_receive:
 1367              	.LFB71:
 1368              		.loc 1 613 0
 1369              		.cfi_startproc
 1370              		@ args = 0, pretend = 0, frame = 0
 1371              		@ frame_needed = 0, uses_anonymous_args = 0
 1372              		@ link register save eliminated.
 1373              	.LVL102:
 1374              		.loc 1 614 0
 1375 0000 0431     		adds	r1, r1, #4
 1376              	.LVL103:
 1377 0002 50F82110 		ldr	r1, [r0, r1, lsl #2]
 1378 0006 8869     		ldr	r0, [r1, #24]
 1379              	.LVL104:
 1380              		.loc 1 616 0
 1381 0008 4260     		str	r2, [r0, #4]
 1382              		.loc 1 618 0
 1383 000a 0022     		movs	r2, #0
 1384              	.LVL105:
 1385              		.loc 1 617 0
 1386 000c 8360     		str	r3, [r0, #8]
 1387              		.loc 1 618 0
 1388 000e C260     		str	r2, [r0, #12]
 1389              		.loc 1 619 0
 1390 0010 3BB1     		cbz	r3, .L107
 1391              		.loc 1 622 0
 1392 0012 4A8A     		ldrh	r2, [r1, #18]
 1393 0014 511E     		subs	r1, r2, #1
 1394              	.LVL106:
 1395 0016 C918     		adds	r1, r1, r3
 1396 0018 B1FBF2FC 		udiv	ip, r1, r2
 1397 001c A0F800C0 		strh	ip, [r0, #0]	@ movhi
 1398 0020 7047     		bx	lr
 1399              	.L107:
 1400              		.loc 1 620 0
 1401 0022 0123     		movs	r3, #1
 1402              	.LVL107:
 1403 0024 0380     		strh	r3, [r0, #0]	@ movhi
 1404 0026 7047     		bx	lr
 1405              		.cfi_endproc
 1406              	.LFE71:
 1407              		.size	usb_lld_prepare_receive, .-usb_lld_prepare_receive
ARM GAS  C:\DOCUME~1\z_80\LOCALS~1\Temp\cc0FNNDd.s 			page 26


 1408 0028 AFF30080 		.section	.text.usb_lld_prepare_transmit,"ax",%progbits
 1408      AFF30080 
 1409              		.align	2
 1410              		.p2align 4,,15
 1411              		.global	usb_lld_prepare_transmit
 1412              		.thumb
 1413              		.thumb_func
 1414              		.type	usb_lld_prepare_transmit, %function
 1415              	usb_lld_prepare_transmit:
 1416              	.LFB72:
 1417              		.loc 1 637 0
 1418              		.cfi_startproc
 1419              		@ args = 0, pretend = 0, frame = 0
 1420              		@ frame_needed = 0, uses_anonymous_args = 0
 1421              		@ link register save eliminated.
 1422              	.LVL108:
 1423 0000 70B4     		push	{r4, r5, r6}
 1424              	.LCFI10:
 1425              		.cfi_def_cfa_offset 12
 1426              		.loc 1 638 0
 1427 0002 0D1D     		adds	r5, r1, #4
 1428              		.cfi_offset 6, -4
 1429              		.cfi_offset 5, -8
 1430              		.cfi_offset 4, -12
 1431 0004 50F82540 		ldr	r4, [r0, r5, lsl #2]
 1432              		.loc 1 642 0
 1433 0008 0026     		movs	r6, #0
 1434              		.loc 1 638 0
 1435 000a 6569     		ldr	r5, [r4, #20]
 1436              	.LVL109:
 1437              		.loc 1 643 0
 1438 000c 248A     		ldrh	r4, [r4, #16]
 1439              		.loc 1 641 0
 1440 000e 6B60     		str	r3, [r5, #4]
 1441              		.loc 1 645 0
 1442 0010 A342     		cmp	r3, r4
 1443 0012 28BF     		it	cs
 1444 0014 2346     		movcs	r3, r4
 1445              	.LVL110:
 1446              		.loc 1 640 0
 1447 0016 2A60     		str	r2, [r5, #0]
 1448              		.loc 1 642 0
 1449 0018 AE60     		str	r6, [r5, #8]
 1450              	.LVL111:
 1451              		.loc 1 646 0
 1452 001a 70BC     		pop	{r4, r5, r6}
 1453              		.loc 1 645 0
 1454 001c FFF7FEBF 		b	usb_lld_write_packet_buffer
 1455              		.cfi_endproc
 1456              	.LFE72:
 1457              		.size	usb_lld_prepare_transmit, .-usb_lld_prepare_transmit
 1458              		.section	.text.usb_lld_start_out,"ax",%progbits
 1459              		.align	2
 1460              		.p2align 4,,15
 1461              		.global	usb_lld_start_out
 1462              		.thumb
 1463              		.thumb_func
ARM GAS  C:\DOCUME~1\z_80\LOCALS~1\Temp\cc0FNNDd.s 			page 27


 1464              		.type	usb_lld_start_out, %function
 1465              	usb_lld_start_out:
 1466              	.LFB73:
 1467              		.loc 1 656 0
 1468              		.cfi_startproc
 1469              		@ args = 0, pretend = 0, frame = 0
 1470              		@ frame_needed = 0, uses_anonymous_args = 0
 1471              		@ link register save eliminated.
 1472              	.LVL112:
 1473              		.loc 1 660 0
 1474 0000 054B     		ldr	r3, .L110
 1475 0002 53F82120 		ldr	r2, [r3, r1, lsl #2]
 1476 0006 22F4904C 		bic	ip, r2, #18432
 1477 000a 2CF07000 		bic	r0, ip, #112
 1478              	.LVL113:
 1479 000e 80F44052 		eor	r2, r0, #12288
 1480 0012 43F82120 		str	r2, [r3, r1, lsl #2]
 1481              		.loc 1 661 0
 1482 0016 7047     		bx	lr
 1483              	.L111:
 1484              		.align	2
 1485              	.L110:
 1486 0018 005C0040 		.word	1073765376
 1487              		.cfi_endproc
 1488              	.LFE73:
 1489              		.size	usb_lld_start_out, .-usb_lld_start_out
 1490 001c AFF30080 		.section	.text.usb_lld_start_in,"ax",%progbits
 1491              		.align	2
 1492              		.p2align 4,,15
 1493              		.global	usb_lld_start_in
 1494              		.thumb
 1495              		.thumb_func
 1496              		.type	usb_lld_start_in, %function
 1497              	usb_lld_start_in:
 1498              	.LFB74:
 1499              		.loc 1 671 0
 1500              		.cfi_startproc
 1501              		@ args = 0, pretend = 0, frame = 0
 1502              		@ frame_needed = 0, uses_anonymous_args = 0
 1503              		@ link register save eliminated.
 1504              	.LVL114:
 1505              		.loc 1 675 0
 1506 0000 054B     		ldr	r3, .L113
 1507 0002 53F82120 		ldr	r2, [r3, r1, lsl #2]
 1508 0006 22F4F04C 		bic	ip, r2, #30720
 1509 000a 2CF04000 		bic	r0, ip, #64
 1510              	.LVL115:
 1511 000e 80F03002 		eor	r2, r0, #48
 1512 0012 43F82120 		str	r2, [r3, r1, lsl #2]
 1513              		.loc 1 676 0
 1514 0016 7047     		bx	lr
 1515              	.L114:
 1516              		.align	2
 1517              	.L113:
 1518 0018 005C0040 		.word	1073765376
 1519              		.cfi_endproc
 1520              	.LFE74:
ARM GAS  C:\DOCUME~1\z_80\LOCALS~1\Temp\cc0FNNDd.s 			page 28


 1521              		.size	usb_lld_start_in, .-usb_lld_start_in
 1522 001c AFF30080 		.section	.text.usb_lld_stall_out,"ax",%progbits
 1523              		.align	2
 1524              		.p2align 4,,15
 1525              		.global	usb_lld_stall_out
 1526              		.thumb
 1527              		.thumb_func
 1528              		.type	usb_lld_stall_out, %function
 1529              	usb_lld_stall_out:
 1530              	.LFB75:
 1531              		.loc 1 686 0
 1532              		.cfi_startproc
 1533              		@ args = 0, pretend = 0, frame = 0
 1534              		@ frame_needed = 0, uses_anonymous_args = 0
 1535              		@ link register save eliminated.
 1536              	.LVL116:
 1537              		.loc 1 690 0
 1538 0000 054B     		ldr	r3, .L116
 1539 0002 53F82120 		ldr	r2, [r3, r1, lsl #2]
 1540 0006 22F4904C 		bic	ip, r2, #18432
 1541 000a 2CF07000 		bic	r0, ip, #112
 1542              	.LVL117:
 1543 000e 80F48052 		eor	r2, r0, #4096
 1544 0012 43F82120 		str	r2, [r3, r1, lsl #2]
 1545              		.loc 1 691 0
 1546 0016 7047     		bx	lr
 1547              	.L117:
 1548              		.align	2
 1549              	.L116:
 1550 0018 005C0040 		.word	1073765376
 1551              		.cfi_endproc
 1552              	.LFE75:
 1553              		.size	usb_lld_stall_out, .-usb_lld_stall_out
 1554 001c AFF30080 		.section	.text.usb_lld_stall_in,"ax",%progbits
 1555              		.align	2
 1556              		.p2align 4,,15
 1557              		.global	usb_lld_stall_in
 1558              		.thumb
 1559              		.thumb_func
 1560              		.type	usb_lld_stall_in, %function
 1561              	usb_lld_stall_in:
 1562              	.LFB76:
 1563              		.loc 1 701 0
 1564              		.cfi_startproc
 1565              		@ args = 0, pretend = 0, frame = 0
 1566              		@ frame_needed = 0, uses_anonymous_args = 0
 1567              		@ link register save eliminated.
 1568              	.LVL118:
 1569              		.loc 1 705 0
 1570 0000 054B     		ldr	r3, .L119
 1571 0002 53F82120 		ldr	r2, [r3, r1, lsl #2]
 1572 0006 22F4F04C 		bic	ip, r2, #30720
 1573 000a 2CF04000 		bic	r0, ip, #64
 1574              	.LVL119:
 1575 000e 80F01002 		eor	r2, r0, #16
 1576 0012 43F82120 		str	r2, [r3, r1, lsl #2]
 1577              		.loc 1 706 0
ARM GAS  C:\DOCUME~1\z_80\LOCALS~1\Temp\cc0FNNDd.s 			page 29


 1578 0016 7047     		bx	lr
 1579              	.L120:
 1580              		.align	2
 1581              	.L119:
 1582 0018 005C0040 		.word	1073765376
 1583              		.cfi_endproc
 1584              	.LFE76:
 1585              		.size	usb_lld_stall_in, .-usb_lld_stall_in
 1586 001c AFF30080 		.section	.text.usb_lld_clear_out,"ax",%progbits
 1587              		.align	2
 1588              		.p2align 4,,15
 1589              		.global	usb_lld_clear_out
 1590              		.thumb
 1591              		.thumb_func
 1592              		.type	usb_lld_clear_out, %function
 1593              	usb_lld_clear_out:
 1594              	.LFB77:
 1595              		.loc 1 716 0
 1596              		.cfi_startproc
 1597              		@ args = 0, pretend = 0, frame = 0
 1598              		@ frame_needed = 0, uses_anonymous_args = 0
 1599              		@ link register save eliminated.
 1600              	.LVL120:
 1601              		.loc 1 722 0
 1602 0000 094B     		ldr	r3, .L123
 1603 0002 53F82100 		ldr	r0, [r3, r1, lsl #2]
 1604              	.LVL121:
 1605 0006 00F44052 		and	r2, r0, #12288
 1606 000a B2F5405F 		cmp	r2, #12288
 1607 000e 09D0     		beq	.L121
 1608              		.loc 1 723 0
 1609 0010 53F82120 		ldr	r2, [r3, r1, lsl #2]
 1610 0014 22F4F040 		bic	r0, r2, #30720
 1611 0018 20F0400C 		bic	ip, r0, #64
 1612 001c 8CF40052 		eor	r2, ip, #8192
 1613 0020 43F82120 		str	r2, [r3, r1, lsl #2]
 1614              	.L121:
 1615 0024 7047     		bx	lr
 1616              	.L124:
 1617 0026 00BF     		.align	2
 1618              	.L123:
 1619 0028 005C0040 		.word	1073765376
 1620              		.cfi_endproc
 1621              	.LFE77:
 1622              		.size	usb_lld_clear_out, .-usb_lld_clear_out
 1623 002c AFF30080 		.section	.text.usb_lld_clear_in,"ax",%progbits
 1624              		.align	2
 1625              		.p2align 4,,15
 1626              		.global	usb_lld_clear_in
 1627              		.thumb
 1628              		.thumb_func
 1629              		.type	usb_lld_clear_in, %function
 1630              	usb_lld_clear_in:
 1631              	.LFB78:
 1632              		.loc 1 734 0
 1633              		.cfi_startproc
 1634              		@ args = 0, pretend = 0, frame = 0
ARM GAS  C:\DOCUME~1\z_80\LOCALS~1\Temp\cc0FNNDd.s 			page 30


 1635              		@ frame_needed = 0, uses_anonymous_args = 0
 1636              		@ link register save eliminated.
 1637              	.LVL122:
 1638              		.loc 1 740 0
 1639 0000 084B     		ldr	r3, .L127
 1640 0002 53F82100 		ldr	r0, [r3, r1, lsl #2]
 1641              	.LVL123:
 1642 0006 00F03002 		and	r2, r0, #48
 1643 000a 302A     		cmp	r2, #48
 1644 000c 09D0     		beq	.L125
 1645              		.loc 1 741 0
 1646 000e 53F82120 		ldr	r2, [r3, r1, lsl #2]
 1647 0012 22F4F040 		bic	r0, r2, #30720
 1648 0016 20F0400C 		bic	ip, r0, #64
 1649 001a 8CF02002 		eor	r2, ip, #32
 1650 001e 43F82120 		str	r2, [r3, r1, lsl #2]
 1651              	.L125:
 1652 0022 7047     		bx	lr
 1653              	.L128:
 1654              		.align	2
 1655              	.L127:
 1656 0024 005C0040 		.word	1073765376
 1657              		.cfi_endproc
 1658              	.LFE78:
 1659              		.size	usb_lld_clear_in, .-usb_lld_clear_in
 1660              		.global	USBD1
 1661 0028 AFF30080 		.section	.rodata.CSWTCH.7,"a",%progbits
 1661      AFF30080 
 1662              		.align	2
 1663              		.set	.LANCHOR1,. + 0
 1664              		.type	CSWTCH.7, %object
 1665              		.size	CSWTCH.7, 6
 1666              	CSWTCH.7:
 1667 0000 0004     		.short	1024
 1668 0002 0000     		.short	0
 1669 0004 0006     		.short	1536
 1670 0006 0000     		.section	.bss.USBD1,"aw",%nobits
 1671              		.align	2
 1672              		.set	.LANCHOR0,. + 0
 1673              		.type	USBD1, %object
 1674              		.size	USBD1, 80
 1675              	USBD1:
 1676 0000 00000000 		.space	80
 1676      00000000 
 1676      00000000 
 1676      00000000 
 1676      00000000 
 1677              		.section	.rodata.CSWTCH.10,"a",%progbits
 1678              		.align	2
 1679              		.set	.LANCHOR3,. + 0
 1680              		.type	CSWTCH.10, %object
 1681              		.size	CSWTCH.10, 17
 1682              	CSWTCH.10:
 1683 0000 00       		.byte	0
 1684 0001 02       		.byte	2
 1685 0002 02       		.byte	2
 1686 0003 02       		.byte	2
ARM GAS  C:\DOCUME~1\z_80\LOCALS~1\Temp\cc0FNNDd.s 			page 31


 1687 0004 02       		.byte	2
 1688 0005 02       		.byte	2
 1689 0006 02       		.byte	2
 1690 0007 02       		.byte	2
 1691 0008 02       		.byte	2
 1692 0009 02       		.byte	2
 1693 000a 02       		.byte	2
 1694 000b 02       		.byte	2
 1695 000c 02       		.byte	2
 1696 000d 02       		.byte	2
 1697 000e 02       		.byte	2
 1698 000f 02       		.byte	2
 1699 0010 01       		.byte	1
 1700 0011 000000   		.section	.rodata.str1.4,"aMS",%progbits,1
 1701              		.align	2
 1702              	.LC0:
 1703 0000 706D5F61 		.ascii	"pm_alloc(), #1\000"
 1703      6C6C6F63 
 1703      28292C20 
 1703      233100
 1704 000f 00       		.section	.rodata.ep0config,"a",%progbits
 1705              		.align	2
 1706              		.set	.LANCHOR2,. + 0
 1707              		.type	ep0config, %object
 1708              		.size	ep0config, 28
 1709              	ep0config:
 1710 0000 00000000 		.word	0
 1711 0004 00000000 		.word	_usb_ep0setup
 1712 0008 00000000 		.word	_usb_ep0in
 1713 000c 00000000 		.word	_usb_ep0out
 1714 0010 4000     		.short	64
 1715 0012 4000     		.short	64
 1716 0014 00000000 		.word	ep0_state
 1717 0018 00000000 		.word	ep0_state
 1718              		.section	.bss.ep0_state,"aw",%nobits
 1719              		.align	2
 1720              		.type	ep0_state, %object
 1721              		.size	ep0_state, 16
 1722              	ep0_state:
 1723 0000 00000000 		.space	16
 1723      00000000 
 1723      00000000 
 1723      00000000 
 1724              		.text
 1725              	.Letext0: